---
triple:          'arm64-apple-darwin'
binary-path:     '/Users/grey/SNID/python/target/debug/deps/libsnid_native.dylib'
relocations:
  - { offset: 0x1E, size: 0x8, addend: 0x0, symName: __ZN11snid_native6py_err17h8b715912e69bc58dE, symObjAddr: 0x0, symBinAddr: 0x838, symSize: 0xD0 }
  - { offset: 0x2D53, size: 0x8, addend: 0x0, symName: '__ZN73_$LT$snid_native..PySnid$u20$as$u20$pyo3..impl_..pyclass..PyClassImpl$GT$10items_iter15INTRINSIC_ITEMS17h807f73aa93a468d3E', symObjAddr: 0xF7C8, symBinAddr: 0xB92A0, symSize: 0x0 }
  - { offset: 0x2D73, size: 0x8, addend: 0x0, symName: '__ZN73_$LT$snid_native..PySnid$u20$as$u20$pyo3..impl_..pyclass..PyClassImpl$GT$3doc3DOC17hd573890c3c74f5a7E', symObjAddr: 0x3DFB0, symBinAddr: 0x114A38, symSize: 0x0 }
  - { offset: 0x2D93, size: 0x8, addend: 0x0, symName: '__ZN73_$LT$snid_native..PySnid$u20$as$u20$pyo3..impl_..pyclass..PyClassImpl$GT$16lazy_type_object11TYPE_OBJECT17h11bed1dacacb784bE', symObjAddr: 0x10018, symBinAddr: 0x1143C8, symSize: 0x0 }
  - { offset: 0x2DA1, size: 0x8, addend: 0x0, symName: '__ZN73_$LT$snid_native..PySnid$u20$as$u20$pyo3..impl_..pyclass..PyClassImpl$GT$10items_iter17h065381c97e00bc3aE', symObjAddr: 0x13C, symBinAddr: 0x974, symSize: 0x38 }
  - { offset: 0x2DDB, size: 0x8, addend: 0x0, symName: '__ZN73_$LT$snid_native..PySnid$u20$as$u20$pyo3..impl_..pyclass..PyClassImpl$GT$3doc17h6ddc535d474401baE', symObjAddr: 0x174, symBinAddr: 0x9AC, symSize: 0x3C }
  - { offset: 0x2E11, size: 0x8, addend: 0x0, symName: '__ZN73_$LT$snid_native..PySnid$u20$as$u20$pyo3..impl_..pyclass..PyClassImpl$GT$16lazy_type_object17he1f9dc990a70fcc8E', symObjAddr: 0x1B0, symBinAddr: 0x9E8, symSize: 0xC }
  - { offset: 0x317D, size: 0x8, addend: 0x0, symName: '__ZN11snid_native158_$LT$impl$u20$pyo3..impl_..pyclass..PyMethods$LT$snid_native..PySnid$GT$$u20$for$u20$pyo3..impl_..pyclass..PyClassImplCollector$LT$snid_native..PySnid$GT$$GT$10py_methods5ITEMS17h234c98e482c3f3ecE', symObjAddr: 0xDDE8, symBinAddr: 0x1084A0, symSize: 0x0 }
  - { offset: 0x318F, size: 0x8, addend: 0x0, symName: '__ZN11snid_native158_$LT$impl$u20$pyo3..impl_..pyclass..PyMethods$LT$snid_native..PySnid$GT$$u20$for$u20$pyo3..impl_..pyclass..PyClassImplCollector$LT$snid_native..PySnid$GT$$GT$10py_methods5ITEMS10trampoline17h4967c15e3b3af544E', symObjAddr: 0x950, symBinAddr: 0x1188, symSize: 0x44 }
  - { offset: 0x31C9, size: 0x8, addend: 0x0, symName: '__ZN11snid_native158_$LT$impl$u20$pyo3..impl_..pyclass..PyMethods$LT$snid_native..PySnid$GT$$u20$for$u20$pyo3..impl_..pyclass..PyClassImplCollector$LT$snid_native..PySnid$GT$$GT$10py_methods5ITEMS10trampoline17h4843739fdee79024E', symObjAddr: 0x994, symBinAddr: 0x11CC, symSize: 0x50 }
  - { offset: 0x321F, size: 0x8, addend: 0x0, symName: '__ZN11snid_native158_$LT$impl$u20$pyo3..impl_..pyclass..PyMethods$LT$snid_native..PySnid$GT$$u20$for$u20$pyo3..impl_..pyclass..PyClassImplCollector$LT$snid_native..PySnid$GT$$GT$10py_methods5ITEMS10trampoline17he01f259728a2809dE', symObjAddr: 0x9E4, symBinAddr: 0x121C, symSize: 0x50 }
  - { offset: 0x3275, size: 0x8, addend: 0x0, symName: '__ZN11snid_native158_$LT$impl$u20$pyo3..impl_..pyclass..PyMethods$LT$snid_native..PySnid$GT$$u20$for$u20$pyo3..impl_..pyclass..PyClassImplCollector$LT$snid_native..PySnid$GT$$GT$10py_methods5ITEMS10trampoline17hd70fe674aada2925E', symObjAddr: 0xA34, symBinAddr: 0x126C, symSize: 0x44 }
  - { offset: 0x32AF, size: 0x8, addend: 0x0, symName: '__ZN11snid_native158_$LT$impl$u20$pyo3..impl_..pyclass..PyMethods$LT$snid_native..PySnid$GT$$u20$for$u20$pyo3..impl_..pyclass..PyClassImplCollector$LT$snid_native..PySnid$GT$$GT$10py_methods5ITEMS10trampoline17h75259f733305b2e3E', symObjAddr: 0xA78, symBinAddr: 0x12B0, symSize: 0x50 }
  - { offset: 0x3305, size: 0x8, addend: 0x0, symName: '__ZN11snid_native158_$LT$impl$u20$pyo3..impl_..pyclass..PyMethods$LT$snid_native..PySnid$GT$$u20$for$u20$pyo3..impl_..pyclass..PyClassImplCollector$LT$snid_native..PySnid$GT$$GT$10py_methods5ITEMS10trampoline17hcf655141d7c0c5dbE', symObjAddr: 0xAC8, symBinAddr: 0x1300, symSize: 0x44 }
  - { offset: 0x333F, size: 0x8, addend: 0x0, symName: '__ZN11snid_native158_$LT$impl$u20$pyo3..impl_..pyclass..PyMethods$LT$snid_native..PySnid$GT$$u20$for$u20$pyo3..impl_..pyclass..PyClassImplCollector$LT$snid_native..PySnid$GT$$GT$10py_methods5ITEMS10trampoline17ha6d22e2ef49bc82fE', symObjAddr: 0xB0C, symBinAddr: 0x1344, symSize: 0x44 }
  - { offset: 0x3379, size: 0x8, addend: 0x0, symName: '__ZN11snid_native158_$LT$impl$u20$pyo3..impl_..pyclass..PyMethods$LT$snid_native..PySnid$GT$$u20$for$u20$pyo3..impl_..pyclass..PyClassImplCollector$LT$snid_native..PySnid$GT$$GT$10py_methods5ITEMS10trampoline17h3e6dec91e27724b3E', symObjAddr: 0xB50, symBinAddr: 0x1388, symSize: 0x50 }
  - { offset: 0x33CF, size: 0x8, addend: 0x0, symName: '__ZN11snid_native158_$LT$impl$u20$pyo3..impl_..pyclass..PyMethods$LT$snid_native..PySnid$GT$$u20$for$u20$pyo3..impl_..pyclass..PyClassImplCollector$LT$snid_native..PySnid$GT$$GT$10py_methods5ITEMS10trampoline17he2880910495cb913E', symObjAddr: 0xBA0, symBinAddr: 0x13D8, symSize: 0x50 }
  - { offset: 0x3425, size: 0x8, addend: 0x0, symName: '__ZN11snid_native158_$LT$impl$u20$pyo3..impl_..pyclass..PyMethods$LT$snid_native..PySnid$GT$$u20$for$u20$pyo3..impl_..pyclass..PyClassImplCollector$LT$snid_native..PySnid$GT$$GT$10py_methods5ITEMS10trampoline17h5656c0dacd95b0e1E', symObjAddr: 0xBF0, symBinAddr: 0x1428, symSize: 0x50 }
  - { offset: 0x347B, size: 0x8, addend: 0x0, symName: '__ZN11snid_native158_$LT$impl$u20$pyo3..impl_..pyclass..PyMethods$LT$snid_native..PySnid$GT$$u20$for$u20$pyo3..impl_..pyclass..PyClassImplCollector$LT$snid_native..PySnid$GT$$GT$10py_methods5ITEMS10trampoline17h7b5d1c8e9468b917E', symObjAddr: 0xC40, symBinAddr: 0x1478, symSize: 0x50 }
  - { offset: 0x34D1, size: 0x8, addend: 0x0, symName: '__ZN11snid_native158_$LT$impl$u20$pyo3..impl_..pyclass..PyMethods$LT$snid_native..PySnid$GT$$u20$for$u20$pyo3..impl_..pyclass..PyClassImplCollector$LT$snid_native..PySnid$GT$$GT$10py_methods5ITEMS10trampoline17h62a9723f68d968cbE', symObjAddr: 0xC90, symBinAddr: 0x14C8, symSize: 0x44 }
  - { offset: 0x350B, size: 0x8, addend: 0x0, symName: '__ZN11snid_native158_$LT$impl$u20$pyo3..impl_..pyclass..PyMethods$LT$snid_native..PySnid$GT$$u20$for$u20$pyo3..impl_..pyclass..PyClassImplCollector$LT$snid_native..PySnid$GT$$GT$10py_methods5ITEMS10trampoline17ha74468c1b05da4ecE', symObjAddr: 0xCD4, symBinAddr: 0x150C, symSize: 0x44 }
  - { offset: 0x3545, size: 0x8, addend: 0x0, symName: '__ZN11snid_native158_$LT$impl$u20$pyo3..impl_..pyclass..PyMethods$LT$snid_native..PySnid$GT$$u20$for$u20$pyo3..impl_..pyclass..PyClassImplCollector$LT$snid_native..PySnid$GT$$GT$10py_methods5ITEMS10trampoline17hcc3ffcd4ad8fd272E', symObjAddr: 0xD18, symBinAddr: 0x1550, symSize: 0x50 }
  - { offset: 0x35B5, size: 0x8, addend: 0x0, symName: '__ZN73_$LT$snid_native..PySgid$u20$as$u20$pyo3..impl_..pyclass..PyClassImpl$GT$10items_iter15INTRINSIC_ITEMS17h3fb5dda282725fdaE', symObjAddr: 0xFAB0, symBinAddr: 0xB9588, symSize: 0x0 }
  - { offset: 0x35D5, size: 0x8, addend: 0x0, symName: '__ZN73_$LT$snid_native..PySgid$u20$as$u20$pyo3..impl_..pyclass..PyClassImpl$GT$3doc3DOC17h087df9eed037aa7fE', symObjAddr: 0x3DFD0, symBinAddr: 0x114A58, symSize: 0x0 }
  - { offset: 0x35F5, size: 0x8, addend: 0x0, symName: '__ZN73_$LT$snid_native..PySgid$u20$as$u20$pyo3..impl_..pyclass..PyClassImpl$GT$16lazy_type_object11TYPE_OBJECT17h7f1ba10d252ad8a2E', symObjAddr: 0x10070, symBinAddr: 0x114420, symSize: 0x0 }
  - { offset: 0x3603, size: 0x8, addend: 0x0, symName: '__ZN73_$LT$snid_native..PySgid$u20$as$u20$pyo3..impl_..pyclass..PyClassImpl$GT$10items_iter17h4fa402690caa82a0E', symObjAddr: 0x3790, symBinAddr: 0x3FC8, symSize: 0x38 }
  - { offset: 0x363D, size: 0x8, addend: 0x0, symName: '__ZN73_$LT$snid_native..PySgid$u20$as$u20$pyo3..impl_..pyclass..PyClassImpl$GT$3doc17h5210747063ce037fE', symObjAddr: 0x37C8, symBinAddr: 0x4000, symSize: 0x3C }
  - { offset: 0x3673, size: 0x8, addend: 0x0, symName: '__ZN73_$LT$snid_native..PySgid$u20$as$u20$pyo3..impl_..pyclass..PyClassImpl$GT$16lazy_type_object17hcb37db2361ff2917E', symObjAddr: 0x3804, symBinAddr: 0x403C, symSize: 0xC }
  - { offset: 0x37A1, size: 0x8, addend: 0x0, symName: '__ZN11snid_native158_$LT$impl$u20$pyo3..impl_..pyclass..PyMethods$LT$snid_native..PySgid$GT$$u20$for$u20$pyo3..impl_..pyclass..PyClassImplCollector$LT$snid_native..PySgid$GT$$GT$10py_methods5ITEMS17h6549c4d11afc7889E', symObjAddr: 0xE2E8, symBinAddr: 0x1089A0, symSize: 0x0 }
  - { offset: 0x37B3, size: 0x8, addend: 0x0, symName: '__ZN11snid_native158_$LT$impl$u20$pyo3..impl_..pyclass..PyMethods$LT$snid_native..PySgid$GT$$u20$for$u20$pyo3..impl_..pyclass..PyClassImplCollector$LT$snid_native..PySgid$GT$$GT$10py_methods5ITEMS10trampoline17h8e03390e8895b6c5E', symObjAddr: 0x391C, symBinAddr: 0x4154, symSize: 0x50 }
  - { offset: 0x3809, size: 0x8, addend: 0x0, symName: '__ZN11snid_native158_$LT$impl$u20$pyo3..impl_..pyclass..PyMethods$LT$snid_native..PySgid$GT$$u20$for$u20$pyo3..impl_..pyclass..PyClassImplCollector$LT$snid_native..PySgid$GT$$GT$10py_methods5ITEMS10trampoline17h3d42012e4aa19574E', symObjAddr: 0x396C, symBinAddr: 0x41A4, symSize: 0x44 }
  - { offset: 0x3843, size: 0x8, addend: 0x0, symName: '__ZN11snid_native158_$LT$impl$u20$pyo3..impl_..pyclass..PyMethods$LT$snid_native..PySgid$GT$$u20$for$u20$pyo3..impl_..pyclass..PyClassImplCollector$LT$snid_native..PySgid$GT$$GT$10py_methods5ITEMS10trampoline17h3310fa64698bc740E', symObjAddr: 0x39B0, symBinAddr: 0x41E8, symSize: 0x50 }
  - { offset: 0x3899, size: 0x8, addend: 0x0, symName: '__ZN11snid_native158_$LT$impl$u20$pyo3..impl_..pyclass..PyMethods$LT$snid_native..PySgid$GT$$u20$for$u20$pyo3..impl_..pyclass..PyClassImplCollector$LT$snid_native..PySgid$GT$$GT$10py_methods5ITEMS10trampoline17h77f0f90f89f6238aE', symObjAddr: 0x3A00, symBinAddr: 0x4238, symSize: 0x44 }
  - { offset: 0x38ED, size: 0x8, addend: 0x0, symName: '__ZN72_$LT$snid_native..PyNid$u20$as$u20$pyo3..impl_..pyclass..PyClassImpl$GT$10items_iter15INTRINSIC_ITEMS17hb165c1dc9702311fE', symObjAddr: 0xFB20, symBinAddr: 0xB95F8, symSize: 0x0 }
  - { offset: 0x390D, size: 0x8, addend: 0x0, symName: '__ZN72_$LT$snid_native..PyNid$u20$as$u20$pyo3..impl_..pyclass..PyClassImpl$GT$3doc3DOC17hb3ac540555a58f0eE', symObjAddr: 0x3DFF0, symBinAddr: 0x114A78, symSize: 0x0 }
  - { offset: 0x392D, size: 0x8, addend: 0x0, symName: '__ZN72_$LT$snid_native..PyNid$u20$as$u20$pyo3..impl_..pyclass..PyClassImpl$GT$16lazy_type_object11TYPE_OBJECT17h6f6d4661565be9b9E', symObjAddr: 0x100C8, symBinAddr: 0x114478, symSize: 0x0 }
  - { offset: 0x393B, size: 0x8, addend: 0x0, symName: '__ZN72_$LT$snid_native..PyNid$u20$as$u20$pyo3..impl_..pyclass..PyClassImpl$GT$10items_iter17hc5bcb9815afcb7e5E', symObjAddr: 0x4694, symBinAddr: 0x4ECC, symSize: 0x38 }
  - { offset: 0x3975, size: 0x8, addend: 0x0, symName: '__ZN72_$LT$snid_native..PyNid$u20$as$u20$pyo3..impl_..pyclass..PyClassImpl$GT$3doc17he93c5be35f7a63adE', symObjAddr: 0x46CC, symBinAddr: 0x4F04, symSize: 0x3C }
  - { offset: 0x39AB, size: 0x8, addend: 0x0, symName: '__ZN72_$LT$snid_native..PyNid$u20$as$u20$pyo3..impl_..pyclass..PyClassImpl$GT$16lazy_type_object17h72c39fdcd9d9dc5dE', symObjAddr: 0x4708, symBinAddr: 0x4F40, symSize: 0xC }
  - { offset: 0x3A96, size: 0x8, addend: 0x0, symName: '__ZN11snid_native156_$LT$impl$u20$pyo3..impl_..pyclass..PyMethods$LT$snid_native..PyNid$GT$$u20$for$u20$pyo3..impl_..pyclass..PyClassImplCollector$LT$snid_native..PyNid$GT$$GT$10py_methods5ITEMS17hf10b5551b4a00aa5E', symObjAddr: 0xE5C0, symBinAddr: 0x108C78, symSize: 0x0 }
  - { offset: 0x3AA8, size: 0x8, addend: 0x0, symName: '__ZN11snid_native156_$LT$impl$u20$pyo3..impl_..pyclass..PyMethods$LT$snid_native..PyNid$GT$$u20$for$u20$pyo3..impl_..pyclass..PyClassImplCollector$LT$snid_native..PyNid$GT$$GT$10py_methods5ITEMS10trampoline17h729e0ce7edcc5d12E', symObjAddr: 0x4BC0, symBinAddr: 0x53F8, symSize: 0x50 }
  - { offset: 0x3AFE, size: 0x8, addend: 0x0, symName: '__ZN11snid_native156_$LT$impl$u20$pyo3..impl_..pyclass..PyMethods$LT$snid_native..PyNid$GT$$u20$for$u20$pyo3..impl_..pyclass..PyClassImplCollector$LT$snid_native..PyNid$GT$$GT$10py_methods5ITEMS10trampoline17h1f22f519f543bba0E', symObjAddr: 0x4C10, symBinAddr: 0x5448, symSize: 0x44 }
  - { offset: 0x3B38, size: 0x8, addend: 0x0, symName: '__ZN11snid_native156_$LT$impl$u20$pyo3..impl_..pyclass..PyMethods$LT$snid_native..PyNid$GT$$u20$for$u20$pyo3..impl_..pyclass..PyClassImplCollector$LT$snid_native..PyNid$GT$$GT$10py_methods5ITEMS10trampoline17h88d6edcd12662bf5E', symObjAddr: 0x4C54, symBinAddr: 0x548C, symSize: 0x44 }
  - { offset: 0x3B8C, size: 0x8, addend: 0x0, symName: '__ZN72_$LT$snid_native..PyWid$u20$as$u20$pyo3..impl_..pyclass..PyClassImpl$GT$10items_iter15INTRINSIC_ITEMS17hb0ce189eacfbad3aE', symObjAddr: 0xFB98, symBinAddr: 0xB9670, symSize: 0x0 }
  - { offset: 0x3BAC, size: 0x8, addend: 0x0, symName: '__ZN72_$LT$snid_native..PyWid$u20$as$u20$pyo3..impl_..pyclass..PyClassImpl$GT$3doc3DOC17h05a8b14572188b75E', symObjAddr: 0x3E010, symBinAddr: 0x114A98, symSize: 0x0 }
  - { offset: 0x3BCC, size: 0x8, addend: 0x0, symName: '__ZN72_$LT$snid_native..PyWid$u20$as$u20$pyo3..impl_..pyclass..PyClassImpl$GT$16lazy_type_object11TYPE_OBJECT17hfaf4c4188aaed17dE', symObjAddr: 0x10120, symBinAddr: 0x1144D0, symSize: 0x0 }
  - { offset: 0x3BDA, size: 0x8, addend: 0x0, symName: '__ZN72_$LT$snid_native..PyWid$u20$as$u20$pyo3..impl_..pyclass..PyClassImpl$GT$10items_iter17h32baf4d3f5d98308E', symObjAddr: 0x55D8, symBinAddr: 0x5E10, symSize: 0x38 }
  - { offset: 0x3C14, size: 0x8, addend: 0x0, symName: '__ZN72_$LT$snid_native..PyWid$u20$as$u20$pyo3..impl_..pyclass..PyClassImpl$GT$3doc17hcc278656bac4b245E', symObjAddr: 0x5610, symBinAddr: 0x5E48, symSize: 0x3C }
  - { offset: 0x3C4A, size: 0x8, addend: 0x0, symName: '__ZN72_$LT$snid_native..PyWid$u20$as$u20$pyo3..impl_..pyclass..PyClassImpl$GT$16lazy_type_object17hb34ccdfc1eec14e2E', symObjAddr: 0x564C, symBinAddr: 0x5E84, symSize: 0xC }
  - { offset: 0x3D35, size: 0x8, addend: 0x0, symName: '__ZN11snid_native156_$LT$impl$u20$pyo3..impl_..pyclass..PyMethods$LT$snid_native..PyWid$GT$$u20$for$u20$pyo3..impl_..pyclass..PyClassImplCollector$LT$snid_native..PyWid$GT$$GT$10py_methods5ITEMS17h4dfda9e2b37354bbE', symObjAddr: 0xE770, symBinAddr: 0x108E28, symSize: 0x0 }
  - { offset: 0x3D47, size: 0x8, addend: 0x0, symName: '__ZN11snid_native156_$LT$impl$u20$pyo3..impl_..pyclass..PyMethods$LT$snid_native..PyWid$GT$$u20$for$u20$pyo3..impl_..pyclass..PyClassImplCollector$LT$snid_native..PyWid$GT$$GT$10py_methods5ITEMS10trampoline17h717a3ba1cb3360b5E', symObjAddr: 0x5818, symBinAddr: 0x6050, symSize: 0x50 }
  - { offset: 0x3D9D, size: 0x8, addend: 0x0, symName: '__ZN11snid_native156_$LT$impl$u20$pyo3..impl_..pyclass..PyMethods$LT$snid_native..PyWid$GT$$u20$for$u20$pyo3..impl_..pyclass..PyClassImplCollector$LT$snid_native..PyWid$GT$$GT$10py_methods5ITEMS10trampoline17h02099cc4d523c1c4E', symObjAddr: 0x5868, symBinAddr: 0x60A0, symSize: 0x44 }
  - { offset: 0x3DD7, size: 0x8, addend: 0x0, symName: '__ZN11snid_native156_$LT$impl$u20$pyo3..impl_..pyclass..PyMethods$LT$snid_native..PyWid$GT$$u20$for$u20$pyo3..impl_..pyclass..PyClassImplCollector$LT$snid_native..PyWid$GT$$GT$10py_methods5ITEMS10trampoline17h8e7bf028fc11e3f0E', symObjAddr: 0x58AC, symBinAddr: 0x60E4, symSize: 0x44 }
  - { offset: 0x3E2B, size: 0x8, addend: 0x0, symName: '__ZN72_$LT$snid_native..PyXid$u20$as$u20$pyo3..impl_..pyclass..PyClassImpl$GT$10items_iter15INTRINSIC_ITEMS17h3768a4d5ec4b7a41E', symObjAddr: 0xFC10, symBinAddr: 0xB96E8, symSize: 0x0 }
  - { offset: 0x3E4B, size: 0x8, addend: 0x0, symName: '__ZN72_$LT$snid_native..PyXid$u20$as$u20$pyo3..impl_..pyclass..PyClassImpl$GT$3doc3DOC17h4034619e6cdd643fE', symObjAddr: 0x3E030, symBinAddr: 0x114AB8, symSize: 0x0 }
  - { offset: 0x3E6B, size: 0x8, addend: 0x0, symName: '__ZN72_$LT$snid_native..PyXid$u20$as$u20$pyo3..impl_..pyclass..PyClassImpl$GT$16lazy_type_object11TYPE_OBJECT17hff8031e2522ae5e9E', symObjAddr: 0x10178, symBinAddr: 0x114528, symSize: 0x0 }
  - { offset: 0x3E79, size: 0x8, addend: 0x0, symName: '__ZN72_$LT$snid_native..PyXid$u20$as$u20$pyo3..impl_..pyclass..PyClassImpl$GT$10items_iter17h7e42c74568a3f5d5E', symObjAddr: 0x6230, symBinAddr: 0x6A68, symSize: 0x38 }
  - { offset: 0x3EB3, size: 0x8, addend: 0x0, symName: '__ZN72_$LT$snid_native..PyXid$u20$as$u20$pyo3..impl_..pyclass..PyClassImpl$GT$3doc17h82c716f47644a174E', symObjAddr: 0x6268, symBinAddr: 0x6AA0, symSize: 0x3C }
  - { offset: 0x3EE9, size: 0x8, addend: 0x0, symName: '__ZN72_$LT$snid_native..PyXid$u20$as$u20$pyo3..impl_..pyclass..PyClassImpl$GT$16lazy_type_object17he327786043e75df7E', symObjAddr: 0x62A4, symBinAddr: 0x6ADC, symSize: 0xC }
  - { offset: 0x3FD4, size: 0x8, addend: 0x0, symName: '__ZN11snid_native156_$LT$impl$u20$pyo3..impl_..pyclass..PyMethods$LT$snid_native..PyXid$GT$$u20$for$u20$pyo3..impl_..pyclass..PyClassImplCollector$LT$snid_native..PyXid$GT$$GT$10py_methods5ITEMS17hba9585ef2650efd6E', symObjAddr: 0xE920, symBinAddr: 0x108FD8, symSize: 0x0 }
  - { offset: 0x3FE6, size: 0x8, addend: 0x0, symName: '__ZN11snid_native156_$LT$impl$u20$pyo3..impl_..pyclass..PyMethods$LT$snid_native..PyXid$GT$$u20$for$u20$pyo3..impl_..pyclass..PyClassImplCollector$LT$snid_native..PyXid$GT$$GT$10py_methods5ITEMS10trampoline17h690c3d7a733ce325E', symObjAddr: 0x6470, symBinAddr: 0x6CA8, symSize: 0x50 }
  - { offset: 0x403C, size: 0x8, addend: 0x0, symName: '__ZN11snid_native156_$LT$impl$u20$pyo3..impl_..pyclass..PyMethods$LT$snid_native..PyXid$GT$$u20$for$u20$pyo3..impl_..pyclass..PyClassImplCollector$LT$snid_native..PyXid$GT$$GT$10py_methods5ITEMS10trampoline17h673d3b1ac72d5d4bE', symObjAddr: 0x64C0, symBinAddr: 0x6CF8, symSize: 0x44 }
  - { offset: 0x4076, size: 0x8, addend: 0x0, symName: '__ZN11snid_native156_$LT$impl$u20$pyo3..impl_..pyclass..PyMethods$LT$snid_native..PyXid$GT$$u20$for$u20$pyo3..impl_..pyclass..PyClassImplCollector$LT$snid_native..PyXid$GT$$GT$10py_methods5ITEMS10trampoline17he1c409b6b74d10bdE', symObjAddr: 0x6504, symBinAddr: 0x6D3C, symSize: 0x44 }
  - { offset: 0x40CA, size: 0x8, addend: 0x0, symName: '__ZN72_$LT$snid_native..PyKid$u20$as$u20$pyo3..impl_..pyclass..PyClassImpl$GT$10items_iter15INTRINSIC_ITEMS17h1bb2fd0bbf235392E', symObjAddr: 0xFC78, symBinAddr: 0xB9750, symSize: 0x0 }
  - { offset: 0x40EA, size: 0x8, addend: 0x0, symName: '__ZN72_$LT$snid_native..PyKid$u20$as$u20$pyo3..impl_..pyclass..PyClassImpl$GT$3doc3DOC17hec0734bbb41ff40cE', symObjAddr: 0x3E050, symBinAddr: 0x114AD8, symSize: 0x0 }
  - { offset: 0x410A, size: 0x8, addend: 0x0, symName: '__ZN72_$LT$snid_native..PyKid$u20$as$u20$pyo3..impl_..pyclass..PyClassImpl$GT$16lazy_type_object11TYPE_OBJECT17h044927e9e0574bacE', symObjAddr: 0x101D0, symBinAddr: 0x114580, symSize: 0x0 }
  - { offset: 0x4118, size: 0x8, addend: 0x0, symName: '__ZN72_$LT$snid_native..PyKid$u20$as$u20$pyo3..impl_..pyclass..PyClassImpl$GT$10items_iter17h08a2c3ac6782e342E', symObjAddr: 0x6E88, symBinAddr: 0x76C0, symSize: 0x38 }
  - { offset: 0x4152, size: 0x8, addend: 0x0, symName: '__ZN72_$LT$snid_native..PyKid$u20$as$u20$pyo3..impl_..pyclass..PyClassImpl$GT$3doc17h9a24ae502ced3a4dE', symObjAddr: 0x6EC0, symBinAddr: 0x76F8, symSize: 0x3C }
  - { offset: 0x4188, size: 0x8, addend: 0x0, symName: '__ZN72_$LT$snid_native..PyKid$u20$as$u20$pyo3..impl_..pyclass..PyClassImpl$GT$16lazy_type_object17h2e3aca3de14d018fE', symObjAddr: 0x6EFC, symBinAddr: 0x7734, symSize: 0xC }
  - { offset: 0x42D7, size: 0x8, addend: 0x0, symName: '__ZN11snid_native156_$LT$impl$u20$pyo3..impl_..pyclass..PyMethods$LT$snid_native..PyKid$GT$$u20$for$u20$pyo3..impl_..pyclass..PyClassImplCollector$LT$snid_native..PyKid$GT$$GT$10py_methods5ITEMS17h633eddfcfba29f0fE', symObjAddr: 0xEB10, symBinAddr: 0x1091C8, symSize: 0x0 }
  - { offset: 0x42E9, size: 0x8, addend: 0x0, symName: '__ZN11snid_native156_$LT$impl$u20$pyo3..impl_..pyclass..PyMethods$LT$snid_native..PyKid$GT$$u20$for$u20$pyo3..impl_..pyclass..PyClassImplCollector$LT$snid_native..PyKid$GT$$GT$10py_methods5ITEMS10trampoline17h0acc26c857912bbaE', symObjAddr: 0x7284, symBinAddr: 0x7ABC, symSize: 0x50 }
  - { offset: 0x433F, size: 0x8, addend: 0x0, symName: '__ZN11snid_native156_$LT$impl$u20$pyo3..impl_..pyclass..PyMethods$LT$snid_native..PyKid$GT$$u20$for$u20$pyo3..impl_..pyclass..PyClassImplCollector$LT$snid_native..PyKid$GT$$GT$10py_methods5ITEMS10trampoline17h6c6dff5ad077dc8aE', symObjAddr: 0x72D4, symBinAddr: 0x7B0C, symSize: 0x44 }
  - { offset: 0x4379, size: 0x8, addend: 0x0, symName: '__ZN11snid_native156_$LT$impl$u20$pyo3..impl_..pyclass..PyMethods$LT$snid_native..PyKid$GT$$u20$for$u20$pyo3..impl_..pyclass..PyClassImplCollector$LT$snid_native..PyKid$GT$$GT$10py_methods5ITEMS10trampoline17h26d2f1d9c332e34dE', symObjAddr: 0x7318, symBinAddr: 0x7B50, symSize: 0x44 }
  - { offset: 0x43B3, size: 0x8, addend: 0x0, symName: '__ZN11snid_native156_$LT$impl$u20$pyo3..impl_..pyclass..PyMethods$LT$snid_native..PyKid$GT$$u20$for$u20$pyo3..impl_..pyclass..PyClassImplCollector$LT$snid_native..PyKid$GT$$GT$10py_methods5ITEMS10trampoline17h2a6da25ae957e8dcE', symObjAddr: 0x735C, symBinAddr: 0x7B94, symSize: 0x50 }
  - { offset: 0x4424, size: 0x8, addend: 0x0, symName: '__ZN72_$LT$snid_native..PyLid$u20$as$u20$pyo3..impl_..pyclass..PyClassImpl$GT$10items_iter15INTRINSIC_ITEMS17h9bc2c3516357f614E', symObjAddr: 0xFD28, symBinAddr: 0xB9800, symSize: 0x0 }
  - { offset: 0x4445, size: 0x8, addend: 0x0, symName: '__ZN72_$LT$snid_native..PyLid$u20$as$u20$pyo3..impl_..pyclass..PyClassImpl$GT$3doc3DOC17h46a1db0086b924deE', symObjAddr: 0x3E070, symBinAddr: 0x114AF8, symSize: 0x0 }
  - { offset: 0x4466, size: 0x8, addend: 0x0, symName: '__ZN72_$LT$snid_native..PyLid$u20$as$u20$pyo3..impl_..pyclass..PyClassImpl$GT$16lazy_type_object11TYPE_OBJECT17hfd84c8f1e664a672E', symObjAddr: 0x10228, symBinAddr: 0x1145D8, symSize: 0x0 }
  - { offset: 0x4474, size: 0x8, addend: 0x0, symName: '__ZN72_$LT$snid_native..PyLid$u20$as$u20$pyo3..impl_..pyclass..PyClassImpl$GT$10items_iter17h53107b5e0ad5b498E', symObjAddr: 0x879C, symBinAddr: 0x8FD4, symSize: 0x38 }
  - { offset: 0x44B0, size: 0x8, addend: 0x0, symName: '__ZN72_$LT$snid_native..PyLid$u20$as$u20$pyo3..impl_..pyclass..PyClassImpl$GT$3doc17h448cdb8b88e3682cE', symObjAddr: 0x87D4, symBinAddr: 0x900C, symSize: 0x3C }
  - { offset: 0x44E9, size: 0x8, addend: 0x0, symName: '__ZN72_$LT$snid_native..PyLid$u20$as$u20$pyo3..impl_..pyclass..PyClassImpl$GT$16lazy_type_object17h44f3e553dcbed033E', symObjAddr: 0x8810, symBinAddr: 0x9048, symSize: 0xC }
  - { offset: 0x45B5, size: 0x8, addend: 0x0, symName: '__ZN11snid_native156_$LT$impl$u20$pyo3..impl_..pyclass..PyMethods$LT$snid_native..PyLid$GT$$u20$for$u20$pyo3..impl_..pyclass..PyClassImplCollector$LT$snid_native..PyLid$GT$$GT$10py_methods5ITEMS17ha454074ac43e1845E', symObjAddr: 0xEE00, symBinAddr: 0x1094B8, symSize: 0x0 }
  - { offset: 0x45C7, size: 0x8, addend: 0x0, symName: '__ZN11snid_native156_$LT$impl$u20$pyo3..impl_..pyclass..PyMethods$LT$snid_native..PyLid$GT$$u20$for$u20$pyo3..impl_..pyclass..PyClassImplCollector$LT$snid_native..PyLid$GT$$GT$10py_methods5ITEMS10trampoline17h9c782f5789610146E', symObjAddr: 0x8AEC, symBinAddr: 0x9324, symSize: 0x50 }
  - { offset: 0x4622, size: 0x8, addend: 0x0, symName: '__ZN11snid_native156_$LT$impl$u20$pyo3..impl_..pyclass..PyMethods$LT$snid_native..PyLid$GT$$u20$for$u20$pyo3..impl_..pyclass..PyClassImplCollector$LT$snid_native..PyLid$GT$$GT$10py_methods5ITEMS10trampoline17hfdec97cea9a3af61E', symObjAddr: 0x8B3C, symBinAddr: 0x9374, symSize: 0x44 }
  - { offset: 0x467A, size: 0x8, addend: 0x0, symName: '__ZN72_$LT$snid_native..PyEid$u20$as$u20$pyo3..impl_..pyclass..PyClassImpl$GT$10items_iter15INTRINSIC_ITEMS17hb4de695d866d1d27E', symObjAddr: 0xFDA0, symBinAddr: 0xB9878, symSize: 0x0 }
  - { offset: 0x469B, size: 0x8, addend: 0x0, symName: '__ZN72_$LT$snid_native..PyEid$u20$as$u20$pyo3..impl_..pyclass..PyClassImpl$GT$3doc3DOC17hb6d515b15b809499E', symObjAddr: 0x3E090, symBinAddr: 0x114B18, symSize: 0x0 }
  - { offset: 0x46BC, size: 0x8, addend: 0x0, symName: '__ZN72_$LT$snid_native..PyEid$u20$as$u20$pyo3..impl_..pyclass..PyClassImpl$GT$16lazy_type_object11TYPE_OBJECT17h07faa47e152a10e3E', symObjAddr: 0x10280, symBinAddr: 0x114630, symSize: 0x0 }
  - { offset: 0x46CA, size: 0x8, addend: 0x0, symName: '__ZN72_$LT$snid_native..PyEid$u20$as$u20$pyo3..impl_..pyclass..PyClassImpl$GT$10items_iter17hf28327bcb43a5e13E', symObjAddr: 0x9544, symBinAddr: 0x9D7C, symSize: 0x38 }
  - { offset: 0x4706, size: 0x8, addend: 0x0, symName: '__ZN72_$LT$snid_native..PyEid$u20$as$u20$pyo3..impl_..pyclass..PyClassImpl$GT$3doc17hb6c716bbbc4a4b6cE', symObjAddr: 0x957C, symBinAddr: 0x9DB4, symSize: 0x3C }
  - { offset: 0x473F, size: 0x8, addend: 0x0, symName: '__ZN72_$LT$snid_native..PyEid$u20$as$u20$pyo3..impl_..pyclass..PyClassImpl$GT$16lazy_type_object17h3921840b16324419E', symObjAddr: 0x95B8, symBinAddr: 0x9DF0, symSize: 0xC }
  - { offset: 0x4863, size: 0x8, addend: 0x0, symName: '__ZN11snid_native156_$LT$impl$u20$pyo3..impl_..pyclass..PyMethods$LT$snid_native..PyEid$GT$$u20$for$u20$pyo3..impl_..pyclass..PyClassImplCollector$LT$snid_native..PyEid$GT$$GT$10py_methods5ITEMS17h3048d6e4cba1cc93E', symObjAddr: 0xF028, symBinAddr: 0x1096E0, symSize: 0x0 }
  - { offset: 0x4875, size: 0x8, addend: 0x0, symName: '__ZN11snid_native156_$LT$impl$u20$pyo3..impl_..pyclass..PyMethods$LT$snid_native..PyEid$GT$$u20$for$u20$pyo3..impl_..pyclass..PyClassImplCollector$LT$snid_native..PyEid$GT$$GT$10py_methods5ITEMS10trampoline17h6fc3c6b130160d11E', symObjAddr: 0x9684, symBinAddr: 0x9EBC, symSize: 0x50 }
  - { offset: 0x48D0, size: 0x8, addend: 0x0, symName: '__ZN11snid_native156_$LT$impl$u20$pyo3..impl_..pyclass..PyMethods$LT$snid_native..PyEid$GT$$u20$for$u20$pyo3..impl_..pyclass..PyClassImplCollector$LT$snid_native..PyEid$GT$$GT$10py_methods5ITEMS10trampoline17h3c04e75ff4e6337bE', symObjAddr: 0x96D4, symBinAddr: 0x9F0C, symSize: 0x44 }
  - { offset: 0x490D, size: 0x8, addend: 0x0, symName: '__ZN11snid_native156_$LT$impl$u20$pyo3..impl_..pyclass..PyMethods$LT$snid_native..PyEid$GT$$u20$for$u20$pyo3..impl_..pyclass..PyClassImplCollector$LT$snid_native..PyEid$GT$$GT$10py_methods5ITEMS10trampoline17h2cd6e29b0434fc50E', symObjAddr: 0x9718, symBinAddr: 0x9F50, symSize: 0x44 }
  - { offset: 0x494A, size: 0x8, addend: 0x0, symName: '__ZN11snid_native156_$LT$impl$u20$pyo3..impl_..pyclass..PyMethods$LT$snid_native..PyEid$GT$$u20$for$u20$pyo3..impl_..pyclass..PyClassImplCollector$LT$snid_native..PyEid$GT$$GT$10py_methods5ITEMS10trampoline17hfb782f7bd29fce7cE', symObjAddr: 0x975C, symBinAddr: 0x9F94, symSize: 0x44 }
  - { offset: 0x49A2, size: 0x8, addend: 0x0, symName: '__ZN72_$LT$snid_native..PyBid$u20$as$u20$pyo3..impl_..pyclass..PyClassImpl$GT$10items_iter15INTRINSIC_ITEMS17he9aa6396e6278df1E', symObjAddr: 0xFE08, symBinAddr: 0xB98E0, symSize: 0x0 }
  - { offset: 0x49C3, size: 0x8, addend: 0x0, symName: '__ZN72_$LT$snid_native..PyBid$u20$as$u20$pyo3..impl_..pyclass..PyClassImpl$GT$3doc3DOC17hf29b30e807538a29E', symObjAddr: 0x3E0B0, symBinAddr: 0x114B38, symSize: 0x0 }
  - { offset: 0x49E4, size: 0x8, addend: 0x0, symName: '__ZN72_$LT$snid_native..PyBid$u20$as$u20$pyo3..impl_..pyclass..PyClassImpl$GT$16lazy_type_object11TYPE_OBJECT17hba11d8235065aa28E', symObjAddr: 0x102D8, symBinAddr: 0x114688, symSize: 0x0 }
  - { offset: 0x49F2, size: 0x8, addend: 0x0, symName: '__ZN72_$LT$snid_native..PyBid$u20$as$u20$pyo3..impl_..pyclass..PyClassImpl$GT$10items_iter17hb0c612d1fc09fb44E', symObjAddr: 0xA194, symBinAddr: 0xA9CC, symSize: 0x38 }
  - { offset: 0x4A2E, size: 0x8, addend: 0x0, symName: '__ZN72_$LT$snid_native..PyBid$u20$as$u20$pyo3..impl_..pyclass..PyClassImpl$GT$3doc17h25ef619d33e5039aE', symObjAddr: 0xA1CC, symBinAddr: 0xAA04, symSize: 0x3C }
  - { offset: 0x4A67, size: 0x8, addend: 0x0, symName: '__ZN72_$LT$snid_native..PyBid$u20$as$u20$pyo3..impl_..pyclass..PyClassImpl$GT$16lazy_type_object17hd768117d6b02fb4aE', symObjAddr: 0xA208, symBinAddr: 0xAA40, symSize: 0xC }
  - { offset: 0x4B5A, size: 0x8, addend: 0x0, symName: '__ZN11snid_native156_$LT$impl$u20$pyo3..impl_..pyclass..PyMethods$LT$snid_native..PyBid$GT$$u20$for$u20$pyo3..impl_..pyclass..PyClassImplCollector$LT$snid_native..PyBid$GT$$GT$10py_methods5ITEMS17h22a5a4cd23313707E', symObjAddr: 0xF1D8, symBinAddr: 0x109890, symSize: 0x0 }
  - { offset: 0x4B6C, size: 0x8, addend: 0x0, symName: '__ZN11snid_native156_$LT$impl$u20$pyo3..impl_..pyclass..PyMethods$LT$snid_native..PyBid$GT$$u20$for$u20$pyo3..impl_..pyclass..PyClassImplCollector$LT$snid_native..PyBid$GT$$GT$10py_methods5ITEMS10trampoline17he55cce81652d2b7aE', symObjAddr: 0xA440, symBinAddr: 0xAC78, symSize: 0x50 }
  - { offset: 0x4BC7, size: 0x8, addend: 0x0, symName: '__ZN11snid_native156_$LT$impl$u20$pyo3..impl_..pyclass..PyMethods$LT$snid_native..PyBid$GT$$u20$for$u20$pyo3..impl_..pyclass..PyClassImplCollector$LT$snid_native..PyBid$GT$$GT$10py_methods5ITEMS10trampoline17hac154ae879e90f7bE', symObjAddr: 0xA490, symBinAddr: 0xACC8, symSize: 0x44 }
  - { offset: 0x4C04, size: 0x8, addend: 0x0, symName: '__ZN11snid_native156_$LT$impl$u20$pyo3..impl_..pyclass..PyMethods$LT$snid_native..PyBid$GT$$u20$for$u20$pyo3..impl_..pyclass..PyClassImplCollector$LT$snid_native..PyBid$GT$$GT$10py_methods5ITEMS10trampoline17hee518652c40b9f79E', symObjAddr: 0xA4D4, symBinAddr: 0xAD0C, symSize: 0x44 }
  - { offset: 0x4C44, size: 0x8, addend: 0x0, symName: __ZN11snid_native6py_err17h8b715912e69bc58dE, symObjAddr: 0x0, symBinAddr: 0x838, symSize: 0xD0 }
  - { offset: 0x4CF2, size: 0x8, addend: 0x0, symName: '__ZN69_$LT$snid_native..PySnid$u20$as$u20$pyo3..type_object..PyTypeInfo$GT$15type_object_raw17h0c2856db3e85df50E', symObjAddr: 0xD0, symBinAddr: 0x908, symSize: 0x24 }
  - { offset: 0x4D2E, size: 0x8, addend: 0x0, symName: '__ZN93_$LT$$RF$snid_native..PySnid$u20$as$u20$pyo3..impl_..extract_argument..PyFunctionArgument$GT$7extract17hb3e9f58f8c8fca23E', symObjAddr: 0xF4, symBinAddr: 0x92C, symSize: 0x2C }
  - { offset: 0x4D6E, size: 0x8, addend: 0x0, symName: '__ZN70_$LT$snid_native..PySnid$u20$as$u20$pyo3..conversion..IntoPyObject$GT$13into_pyobject17h9652848c63f9dc95E', symObjAddr: 0x120, symBinAddr: 0x958, symSize: 0x1C }
  - { offset: 0x4DB9, size: 0x8, addend: 0x0, symName: '__ZN69_$LT$snid_native..PySgid$u20$as$u20$pyo3..type_object..PyTypeInfo$GT$15type_object_raw17hd1a4e71419121ca7E', symObjAddr: 0x3750, symBinAddr: 0x3F88, symSize: 0x24 }
  - { offset: 0x4DF5, size: 0x8, addend: 0x0, symName: '__ZN70_$LT$snid_native..PySgid$u20$as$u20$pyo3..conversion..IntoPyObject$GT$13into_pyobject17h8e2cd6b4beeacd8dE', symObjAddr: 0x3774, symBinAddr: 0x3FAC, symSize: 0x1C }
  - { offset: 0x4E40, size: 0x8, addend: 0x0, symName: '__ZN68_$LT$snid_native..PyNid$u20$as$u20$pyo3..type_object..PyTypeInfo$GT$15type_object_raw17hc5ab1398f87d4db3E', symObjAddr: 0x4654, symBinAddr: 0x4E8C, symSize: 0x24 }
  - { offset: 0x4E7C, size: 0x8, addend: 0x0, symName: '__ZN69_$LT$snid_native..PyNid$u20$as$u20$pyo3..conversion..IntoPyObject$GT$13into_pyobject17h6e40fcc5e0dfdcd5E', symObjAddr: 0x4678, symBinAddr: 0x4EB0, symSize: 0x1C }
  - { offset: 0x4EC7, size: 0x8, addend: 0x0, symName: '__ZN68_$LT$snid_native..PyWid$u20$as$u20$pyo3..type_object..PyTypeInfo$GT$15type_object_raw17h74478d46fc7e2bb6E', symObjAddr: 0x5598, symBinAddr: 0x5DD0, symSize: 0x24 }
  - { offset: 0x4F03, size: 0x8, addend: 0x0, symName: '__ZN69_$LT$snid_native..PyWid$u20$as$u20$pyo3..conversion..IntoPyObject$GT$13into_pyobject17h4d0251f6f9fb2ba7E', symObjAddr: 0x55BC, symBinAddr: 0x5DF4, symSize: 0x1C }
  - { offset: 0x4F4E, size: 0x8, addend: 0x0, symName: '__ZN68_$LT$snid_native..PyXid$u20$as$u20$pyo3..type_object..PyTypeInfo$GT$15type_object_raw17hfcba7eaefab98a79E', symObjAddr: 0x61F0, symBinAddr: 0x6A28, symSize: 0x24 }
  - { offset: 0x4F8A, size: 0x8, addend: 0x0, symName: '__ZN69_$LT$snid_native..PyXid$u20$as$u20$pyo3..conversion..IntoPyObject$GT$13into_pyobject17h02c31ed35dfef9a6E', symObjAddr: 0x6214, symBinAddr: 0x6A4C, symSize: 0x1C }
  - { offset: 0x4FD5, size: 0x8, addend: 0x0, symName: '__ZN68_$LT$snid_native..PyKid$u20$as$u20$pyo3..type_object..PyTypeInfo$GT$15type_object_raw17hf49dac3cdf9f6e2aE', symObjAddr: 0x6E48, symBinAddr: 0x7680, symSize: 0x24 }
  - { offset: 0x5011, size: 0x8, addend: 0x0, symName: '__ZN69_$LT$snid_native..PyKid$u20$as$u20$pyo3..conversion..IntoPyObject$GT$13into_pyobject17hfecb43a0776a194bE', symObjAddr: 0x6E6C, symBinAddr: 0x76A4, symSize: 0x1C }
  - { offset: 0x505C, size: 0x8, addend: 0x0, symName: '__ZN68_$LT$snid_native..PyLid$u20$as$u20$pyo3..type_object..PyTypeInfo$GT$15type_object_raw17h3e352bae9d822d3cE', symObjAddr: 0x875C, symBinAddr: 0x8F94, symSize: 0x24 }
  - { offset: 0x509B, size: 0x8, addend: 0x0, symName: '__ZN69_$LT$snid_native..PyLid$u20$as$u20$pyo3..conversion..IntoPyObject$GT$13into_pyobject17h4dc1e9438fe3e619E', symObjAddr: 0x8780, symBinAddr: 0x8FB8, symSize: 0x1C }
  - { offset: 0x50EA, size: 0x8, addend: 0x0, symName: '__ZN68_$LT$snid_native..PyEid$u20$as$u20$pyo3..type_object..PyTypeInfo$GT$15type_object_raw17hf2b524639c7ed92dE', symObjAddr: 0x9500, symBinAddr: 0x9D38, symSize: 0x24 }
  - { offset: 0x5129, size: 0x8, addend: 0x0, symName: '__ZN69_$LT$snid_native..PyEid$u20$as$u20$pyo3..conversion..IntoPyObject$GT$13into_pyobject17hbd9745e3a10292c1E', symObjAddr: 0x9524, symBinAddr: 0x9D5C, symSize: 0x20 }
  - { offset: 0x5177, size: 0x8, addend: 0x0, symName: '__ZN68_$LT$snid_native..PyBid$u20$as$u20$pyo3..type_object..PyTypeInfo$GT$15type_object_raw17h2791630ec1a889afE', symObjAddr: 0xA154, symBinAddr: 0xA98C, symSize: 0x24 }
  - { offset: 0x51B6, size: 0x8, addend: 0x0, symName: '__ZN69_$LT$snid_native..PyBid$u20$as$u20$pyo3..conversion..IntoPyObject$GT$13into_pyobject17h562a7a3207a05010E', symObjAddr: 0xA178, symBinAddr: 0xA9B0, symSize: 0x1C }
  - { offset: 0x5200, size: 0x8, addend: 0x0, symName: __ZN11snid_native11snid_native17h10876f7f3a4a813bE, symObjAddr: 0xAE80, symBinAddr: 0xB6B8, symSize: 0x698 }
  - { offset: 0x5463, size: 0x8, addend: 0x0, symName: '__ZN11snid_native51_$LT$impl$u20$snid_native..snid_native..MakeDef$GT$8make_def15__pyo3_pymodule17hfb87713867c4f4dbE', symObjAddr: 0xB518, symBinAddr: 0xBD50, symSize: 0x44 }
  - { offset: 0x5493, size: 0x8, addend: 0x0, symName: __ZN11snid_native19encode_fixed64_pair17h7807f14d0e70debcE, symObjAddr: 0xB55C, symBinAddr: 0xBD94, symSize: 0x3C }
  - { offset: 0x54F4, size: 0x8, addend: 0x0, symName: '__ZN11snid_native59_$LT$impl$u20$snid_native..encode_fixed64_pair..MakeDef$GT$9_PYO3_DEF10trampoline17hd1b0a1aab09bcfc6E', symObjAddr: 0xB598, symBinAddr: 0xBDD0, symSize: 0x50 }
  - { offset: 0x5551, size: 0x8, addend: 0x0, symName: __ZN11snid_native32__pyfunction_encode_fixed64_pair17h956b3c686c9e5747E, symObjAddr: 0xB5E8, symBinAddr: 0xBE20, symSize: 0x394 }
  - { offset: 0x5705, size: 0x8, addend: 0x0, symName: __ZN11snid_native19decode_fixed64_pair17h5614d245b97076f0E, symObjAddr: 0xB97C, symBinAddr: 0xC1B4, symSize: 0x84 }
  - { offset: 0x573E, size: 0x8, addend: 0x0, symName: '__ZN11snid_native59_$LT$impl$u20$snid_native..decode_fixed64_pair..MakeDef$GT$9_PYO3_DEF10trampoline17hef7ae85967e1c828E', symObjAddr: 0xBA00, symBinAddr: 0xC238, symSize: 0x50 }
  - { offset: 0x579B, size: 0x8, addend: 0x0, symName: __ZN11snid_native32__pyfunction_decode_fixed64_pair17hc73d4c5c538a4f92E, symObjAddr: 0xBA50, symBinAddr: 0xC288, symSize: 0x340 }
  - { offset: 0x5919, size: 0x8, addend: 0x0, symName: __ZN11snid_native20generate_batch_bytes17hc94a20cf359704a0E, symObjAddr: 0xBD90, symBinAddr: 0xC5C8, symSize: 0x84 }
  - { offset: 0x596B, size: 0x8, addend: 0x0, symName: '__ZN11snid_native60_$LT$impl$u20$snid_native..generate_batch_bytes..MakeDef$GT$9_PYO3_DEF10trampoline17h7ba4f11a34e6d7c9E', symObjAddr: 0xBE14, symBinAddr: 0xC64C, symSize: 0x50 }
  - { offset: 0x59C8, size: 0x8, addend: 0x0, symName: __ZN11snid_native33__pyfunction_generate_batch_bytes17h735ab28277e31d7aE, symObjAddr: 0xBE64, symBinAddr: 0xC69C, symSize: 0x300 }
  - { offset: 0x5B47, size: 0x8, addend: 0x0, symName: __ZN11snid_native27generate_batch_tensor_bytes17hd6d6bdc3cbbe1aefE, symObjAddr: 0xC164, symBinAddr: 0xC99C, symSize: 0x84 }
  - { offset: 0x5B99, size: 0x8, addend: 0x0, symName: '__ZN11snid_native67_$LT$impl$u20$snid_native..generate_batch_tensor_bytes..MakeDef$GT$9_PYO3_DEF10trampoline17h5803151fe80da7eeE', symObjAddr: 0xC1E8, symBinAddr: 0xCA20, symSize: 0x50 }
  - { offset: 0x5BF6, size: 0x8, addend: 0x0, symName: __ZN11snid_native40__pyfunction_generate_batch_tensor_bytes17he8a27ba60bf85a60E, symObjAddr: 0xC238, symBinAddr: 0xCA70, symSize: 0x300 }
  - { offset: 0x87F2, size: 0x8, addend: 0x0, symName: __ZN11snid_native6PySnid8new_fast17hf88f70b8fed12fdfE, symObjAddr: 0x1BC, symBinAddr: 0x9F4, symSize: 0x30 }
  - { offset: 0x8805, size: 0x8, addend: 0x0, symName: __ZN11snid_native6PySnid10from_bytes17ha1f70a418d98ceebE, symObjAddr: 0x1EC, symBinAddr: 0xA24, symSize: 0x12C }
  - { offset: 0x885B, size: 0x8, addend: 0x0, symName: __ZN11snid_native6PySnid10parse_wire17had5f61159d8d4715E, symObjAddr: 0x318, symBinAddr: 0xB50, symSize: 0x118 }
  - { offset: 0x88D4, size: 0x8, addend: 0x0, symName: __ZN11snid_native6PySnid8to_bytes17he60aaa031178b8cbE, symObjAddr: 0x430, symBinAddr: 0xC68, symSize: 0x50 }
  - { offset: 0x88F6, size: 0x8, addend: 0x0, symName: __ZN11snid_native6PySnid7to_wire17hb3258a078dff09b8E, symObjAddr: 0x480, symBinAddr: 0xCB8, symSize: 0x54 }
  - { offset: 0x8944, size: 0x8, addend: 0x0, symName: __ZN11snid_native6PySnid9to_tensor17h73352f7c55ab1dd8E, symObjAddr: 0x4D4, symBinAddr: 0xD0C, symSize: 0x30 }
  - { offset: 0x8966, size: 0x8, addend: 0x0, symName: __ZN11snid_native6PySnid16timestamp_millis17hce7ed4a9af99b248E, symObjAddr: 0x504, symBinAddr: 0xD3C, symSize: 0x30 }
  - { offset: 0x89C3, size: 0x8, addend: 0x0, symName: __ZN11snid_native6PySnid13to_llm_format17he5f58678c5436b9cE, symObjAddr: 0x534, symBinAddr: 0xD6C, symSize: 0x134 }
  - { offset: 0x8A8B, size: 0x8, addend: 0x0, symName: __ZN11snid_native6PySnid16to_llm_format_v217hb0a6cdd072f8a10fE, symObjAddr: 0x668, symBinAddr: 0xEA0, symSize: 0x178 }
  - { offset: 0x8AF7, size: 0x8, addend: 0x0, symName: __ZN11snid_native6PySnid8time_bin17h750f17c6a2aa7f23E, symObjAddr: 0x7E0, symBinAddr: 0x1018, symSize: 0x34 }
  - { offset: 0x8B27, size: 0x8, addend: 0x0, symName: __ZN11snid_native6PySnid14with_ghost_bit17h8406aa151f45a753E, symObjAddr: 0x814, symBinAddr: 0x104C, symSize: 0x48 }
  - { offset: 0x8B57, size: 0x8, addend: 0x0, symName: __ZN11snid_native6PySnid10is_ghosted17h29511025d3553950E, symObjAddr: 0x85C, symBinAddr: 0x1094, symSize: 0x30 }
  - { offset: 0x8B79, size: 0x8, addend: 0x0, symName: __ZN11snid_native6PySnid17h3_feature_vector17h9fe90d4c91111dfaE, symObjAddr: 0x88C, symBinAddr: 0x10C4, symSize: 0x30 }
  - { offset: 0x8B9B, size: 0x8, addend: 0x0, symName: __ZN11snid_native6PySnid24from_hash_with_timestamp17h0077f00343ba2d8cE, symObjAddr: 0x8BC, symBinAddr: 0x10F4, symSize: 0x94 }
  - { offset: 0x8BCC, size: 0x8, addend: 0x0, symName: __ZN11snid_native6PySnid21__pymethod_new_fast__17h476779d5cca184ceE, symObjAddr: 0xD68, symBinAddr: 0x15A0, symSize: 0x118 }
  - { offset: 0x8C62, size: 0x8, addend: 0x0, symName: __ZN11snid_native6PySnid23__pymethod_from_bytes__17h6df6ea8c36307e01E, symObjAddr: 0xE80, symBinAddr: 0x16B8, symSize: 0x340 }
  - { offset: 0x8DC4, size: 0x8, addend: 0x0, symName: __ZN11snid_native6PySnid23__pymethod_parse_wire__17h512d8d5bce51d2ebE, symObjAddr: 0x11C0, symBinAddr: 0x19F8, symSize: 0x338 }
  - { offset: 0x8F28, size: 0x8, addend: 0x0, symName: __ZN11snid_native6PySnid21__pymethod_to_bytes__17he02743c334b6df50E, symObjAddr: 0x14F8, symBinAddr: 0x1D30, symSize: 0x290 }
  - { offset: 0x900B, size: 0x8, addend: 0x0, symName: __ZN11snid_native6PySnid20__pymethod_to_wire__17h0c8c3020c408f659E, symObjAddr: 0x1788, symBinAddr: 0x1FC0, symSize: 0x420 }
  - { offset: 0x9194, size: 0x8, addend: 0x0, symName: __ZN11snid_native6PySnid22__pymethod_to_tensor__17h8452a36e405106c0E, symObjAddr: 0x1BA8, symBinAddr: 0x23E0, symSize: 0x238 }
  - { offset: 0x927F, size: 0x8, addend: 0x0, symName: __ZN11snid_native6PySnid29__pymethod_timestamp_millis__17h42dad2c35cb05f9eE, symObjAddr: 0x1DE0, symBinAddr: 0x2618, symSize: 0x210 }
  - { offset: 0x936A, size: 0x8, addend: 0x0, symName: __ZN11snid_native6PySnid26__pymethod_to_llm_format__17h6508e59d9a98243bE, symObjAddr: 0x1FF0, symBinAddr: 0x2828, symSize: 0x420 }
  - { offset: 0x94F3, size: 0x8, addend: 0x0, symName: __ZN11snid_native6PySnid29__pymethod_to_llm_format_v2__17h07ff2b48d33c829cE, symObjAddr: 0x2410, symBinAddr: 0x2C48, symSize: 0x420 }
  - { offset: 0x967C, size: 0x8, addend: 0x0, symName: __ZN11snid_native6PySnid21__pymethod_time_bin__17h0319b13159c236bfE, symObjAddr: 0x2830, symBinAddr: 0x3068, symSize: 0x398 }
  - { offset: 0x980C, size: 0x8, addend: 0x0, symName: __ZN11snid_native6PySnid27__pymethod_with_ghost_bit__17hdea480d6d7f4a87aE, symObjAddr: 0x2BC8, symBinAddr: 0x3400, symSize: 0x39C }
  - { offset: 0x999A, size: 0x8, addend: 0x0, symName: __ZN11snid_native6PySnid23__pymethod_is_ghosted__17h7456fa219e92140dE, symObjAddr: 0x2F64, symBinAddr: 0x379C, symSize: 0x220 }
  - { offset: 0x9A83, size: 0x8, addend: 0x0, symName: __ZN11snid_native6PySnid30__pymethod_h3_feature_vector__17h0767e1d28434f269E, symObjAddr: 0x3184, symBinAddr: 0x39BC, symSize: 0x290 }
  - { offset: 0x9B66, size: 0x8, addend: 0x0, symName: __ZN11snid_native6PySnid37__pymethod_from_hash_with_timestamp__17h6230dea453a16b0aE, symObjAddr: 0x3414, symBinAddr: 0x3C4C, symSize: 0x33C }
  - { offset: 0x9D01, size: 0x8, addend: 0x0, symName: __ZN11snid_native6PySgid10from_parts17hd764ba6a642cea21E, symObjAddr: 0x3810, symBinAddr: 0x4048, symSize: 0x38 }
  - { offset: 0x9D3E, size: 0x8, addend: 0x0, symName: __ZN11snid_native6PySgid8to_bytes17hca51a95f8a76488bE, symObjAddr: 0x3848, symBinAddr: 0x4080, symSize: 0x50 }
  - { offset: 0x9D60, size: 0x8, addend: 0x0, symName: __ZN11snid_native6PySgid7to_wire17h5f11b0014eeeec0fE, symObjAddr: 0x3898, symBinAddr: 0x40D0, symSize: 0x54 }
  - { offset: 0x9D90, size: 0x8, addend: 0x0, symName: __ZN11snid_native6PySgid7h3_cell17he01d1d8d0f31ee29E, symObjAddr: 0x38EC, symBinAddr: 0x4124, symSize: 0x30 }
  - { offset: 0x9DB2, size: 0x8, addend: 0x0, symName: __ZN11snid_native6PySgid23__pymethod_from_parts__17hfd8e019046f7bf57E, symObjAddr: 0x3A44, symBinAddr: 0x427C, symSize: 0x328 }
  - { offset: 0x9F4E, size: 0x8, addend: 0x0, symName: __ZN11snid_native6PySgid21__pymethod_to_bytes__17he7dda7d787857c3dE, symObjAddr: 0x3D6C, symBinAddr: 0x45A4, symSize: 0x290 }
  - { offset: 0xA031, size: 0x8, addend: 0x0, symName: __ZN11snid_native6PySgid20__pymethod_to_wire__17h4635af9ee2c23b98E, symObjAddr: 0x3FFC, symBinAddr: 0x4834, symSize: 0x420 }
  - { offset: 0xA1BA, size: 0x8, addend: 0x0, symName: __ZN11snid_native6PySgid20__pymethod_h3_cell__17h330270da2a7f92a3E, symObjAddr: 0x441C, symBinAddr: 0x4C54, symSize: 0x238 }
  - { offset: 0xA2A5, size: 0x8, addend: 0x0, symName: __ZN11snid_native5PyNid10from_parts17h81d1ec3c7d2ec853E, symObjAddr: 0x4714, symBinAddr: 0x4F4C, symSize: 0x170 }
  - { offset: 0xA2F8, size: 0x8, addend: 0x0, symName: __ZN11snid_native5PyNid8to_bytes17h860dff5281027a10E, symObjAddr: 0x4884, symBinAddr: 0x50BC, symSize: 0x2C }
  - { offset: 0xA3A9, size: 0x8, addend: 0x0, symName: __ZN11snid_native5PyNid9to_tensor17hcbb24806b6d009caE, symObjAddr: 0x48B0, symBinAddr: 0x50E8, symSize: 0x310 }
  - { offset: 0xA4BB, size: 0x8, addend: 0x0, symName: __ZN11snid_native5PyNid23__pymethod_from_parts__17h570fea3487688fc4E, symObjAddr: 0x4C98, symBinAddr: 0x54D0, symSize: 0x448 }
  - { offset: 0xA642, size: 0x8, addend: 0x0, symName: __ZN11snid_native5PyNid21__pymethod_to_bytes__17h671de03bf1b7fa3aE, symObjAddr: 0x50E0, symBinAddr: 0x5918, symSize: 0x290 }
  - { offset: 0xA725, size: 0x8, addend: 0x0, symName: __ZN11snid_native5PyNid22__pymethod_to_tensor__17he0ee5b457c031a13E, symObjAddr: 0x5370, symBinAddr: 0x5BA8, symSize: 0x228 }
  - { offset: 0xA813, size: 0x8, addend: 0x0, symName: __ZN11snid_native5PyWid10from_parts17hcf5ffeaa4816c381E, symObjAddr: 0x5658, symBinAddr: 0x5E90, symSize: 0x170 }
  - { offset: 0xA866, size: 0x8, addend: 0x0, symName: __ZN11snid_native5PyWid8to_bytes17h96f41a3f8cb3e9ecE, symObjAddr: 0x57C8, symBinAddr: 0x6000, symSize: 0x2C }
  - { offset: 0xA888, size: 0x8, addend: 0x0, symName: __ZN11snid_native5PyWid9to_tensor17h6eec838fe1431f66E, symObjAddr: 0x57F4, symBinAddr: 0x602C, symSize: 0x24 }
  - { offset: 0xA8AA, size: 0x8, addend: 0x0, symName: __ZN11snid_native5PyWid23__pymethod_from_parts__17h57844257eb321085E, symObjAddr: 0x58F0, symBinAddr: 0x6128, symSize: 0x448 }
  - { offset: 0xAA31, size: 0x8, addend: 0x0, symName: __ZN11snid_native5PyWid21__pymethod_to_bytes__17h9581acd1ce965d69E, symObjAddr: 0x5D38, symBinAddr: 0x6570, symSize: 0x290 }
  - { offset: 0xAB14, size: 0x8, addend: 0x0, symName: __ZN11snid_native5PyWid22__pymethod_to_tensor__17hdc01f971b8da6b25E, symObjAddr: 0x5FC8, symBinAddr: 0x6800, symSize: 0x228 }
  - { offset: 0xAC02, size: 0x8, addend: 0x0, symName: __ZN11snid_native5PyXid10from_parts17hb4ecf7540ebef74aE, symObjAddr: 0x62B0, symBinAddr: 0x6AE8, symSize: 0x170 }
  - { offset: 0xAC55, size: 0x8, addend: 0x0, symName: __ZN11snid_native5PyXid8to_bytes17h7d348b736494f27eE, symObjAddr: 0x6420, symBinAddr: 0x6C58, symSize: 0x2C }
  - { offset: 0xAC77, size: 0x8, addend: 0x0, symName: __ZN11snid_native5PyXid9to_tensor17h56aa4f0ccddc3a2eE, symObjAddr: 0x644C, symBinAddr: 0x6C84, symSize: 0x24 }
  - { offset: 0xAC99, size: 0x8, addend: 0x0, symName: __ZN11snid_native5PyXid23__pymethod_from_parts__17h00a7fe0649660637E, symObjAddr: 0x6548, symBinAddr: 0x6D80, symSize: 0x448 }
  - { offset: 0xAE20, size: 0x8, addend: 0x0, symName: __ZN11snid_native5PyXid21__pymethod_to_bytes__17habb633751c515b53E, symObjAddr: 0x6990, symBinAddr: 0x71C8, symSize: 0x290 }
  - { offset: 0xAF03, size: 0x8, addend: 0x0, symName: __ZN11snid_native5PyXid22__pymethod_to_tensor__17h20e5ffe9eace2850E, symObjAddr: 0x6C20, symBinAddr: 0x7458, symSize: 0x228 }
  - { offset: 0xAFF1, size: 0x8, addend: 0x0, symName: __ZN11snid_native5PyKid10from_parts17h2fe3f4bd2978ad1bE, symObjAddr: 0x6F08, symBinAddr: 0x7740, symSize: 0x200 }
  - { offset: 0xB079, size: 0x8, addend: 0x0, symName: __ZN11snid_native5PyKid8to_bytes17hc68b2edd5ec2a6baE, symObjAddr: 0x7108, symBinAddr: 0x7940, symSize: 0x2C }
  - { offset: 0xB09C, size: 0x8, addend: 0x0, symName: __ZN11snid_native5PyKid9to_tensor17hf1f71bb3b260ffb4E, symObjAddr: 0x7134, symBinAddr: 0x796C, symSize: 0x24 }
  - { offset: 0xB0BF, size: 0x8, addend: 0x0, symName: __ZN11snid_native5PyKid6verify17hb080c8c585cb8820E, symObjAddr: 0x7158, symBinAddr: 0x7990, symSize: 0x12C }
  - { offset: 0xB121, size: 0x8, addend: 0x0, symName: __ZN11snid_native5PyKid23__pymethod_from_parts__17hb9bd89f505f83a9aE, symObjAddr: 0x73AC, symBinAddr: 0x7BE4, symSize: 0x7C4 }
  - { offset: 0xB37D, size: 0x8, addend: 0x0, symName: __ZN11snid_native5PyKid21__pymethod_to_bytes__17h127c654c327a8c16E, symObjAddr: 0x7B70, symBinAddr: 0x83A8, symSize: 0x290 }
  - { offset: 0xB463, size: 0x8, addend: 0x0, symName: __ZN11snid_native5PyKid22__pymethod_to_tensor__17hab35f98ef3f419bdE, symObjAddr: 0x7E00, symBinAddr: 0x8638, symSize: 0x228 }
  - { offset: 0xB554, size: 0x8, addend: 0x0, symName: __ZN11snid_native5PyKid19__pymethod_verify__17h099acb566da7d8eeE, symObjAddr: 0x8028, symBinAddr: 0x8860, symSize: 0x734 }
  - { offset: 0xB7BF, size: 0x8, addend: 0x0, symName: __ZN11snid_native5PyLid10from_parts17h0a388253d43d4746E, symObjAddr: 0x881C, symBinAddr: 0x9054, symSize: 0x2A4 }
  - { offset: 0xB84C, size: 0x8, addend: 0x0, symName: __ZN11snid_native5PyLid8to_bytes17he30e75ae6afb4bacE, symObjAddr: 0x8AC0, symBinAddr: 0x92F8, symSize: 0x2C }
  - { offset: 0xB86F, size: 0x8, addend: 0x0, symName: __ZN11snid_native5PyLid23__pymethod_from_parts__17ha85531debf23c1b5E, symObjAddr: 0x8B80, symBinAddr: 0x93B8, symSize: 0x6F0 }
  - { offset: 0xBAB7, size: 0x8, addend: 0x0, symName: __ZN11snid_native5PyLid21__pymethod_to_bytes__17hcea28792ce7ec02cE, symObjAddr: 0x9270, symBinAddr: 0x9AA8, symSize: 0x290 }
  - { offset: 0xBBA4, size: 0x8, addend: 0x0, symName: __ZN11snid_native5PyEid10from_parts17h82542e0d70c37cc7E, symObjAddr: 0x95C4, symBinAddr: 0x9DFC, symSize: 0x24 }
  - { offset: 0xBBE3, size: 0x8, addend: 0x0, symName: __ZN11snid_native5PyEid8to_bytes17h98435fe83115db13E, symObjAddr: 0x95E8, symBinAddr: 0x9E20, symSize: 0x4C }
  - { offset: 0xBC06, size: 0x8, addend: 0x0, symName: __ZN11snid_native5PyEid7counter17h7c9e46cc44456674E, symObjAddr: 0x9634, symBinAddr: 0x9E6C, symSize: 0x28 }
  - { offset: 0xBC29, size: 0x8, addend: 0x0, symName: __ZN11snid_native5PyEid16timestamp_millis17he65ac71197a19f9dE, symObjAddr: 0x965C, symBinAddr: 0x9E94, symSize: 0x28 }
  - { offset: 0xBC4C, size: 0x8, addend: 0x0, symName: __ZN11snid_native5PyEid23__pymethod_from_parts__17h1aa837353fb166c8E, symObjAddr: 0x97A0, symBinAddr: 0x9FD8, symSize: 0x304 }
  - { offset: 0xBDFD, size: 0x8, addend: 0x0, symName: __ZN11snid_native5PyEid21__pymethod_to_bytes__17ha428e853bbfaf1ccE, symObjAddr: 0x9AA4, symBinAddr: 0xA2DC, symSize: 0x290 }
  - { offset: 0xBEEA, size: 0x8, addend: 0x0, symName: __ZN11snid_native5PyEid20__pymethod_counter__17hb2ca08a14f4fbd90E, symObjAddr: 0x9D34, symBinAddr: 0xA56C, symSize: 0x210 }
  - { offset: 0xBFDD, size: 0x8, addend: 0x0, symName: __ZN11snid_native5PyEid29__pymethod_timestamp_millis__17hfe531dc75824b224E, symObjAddr: 0x9F44, symBinAddr: 0xA77C, symSize: 0x210 }
  - { offset: 0xC0D2, size: 0x8, addend: 0x0, symName: __ZN11snid_native5PyBid10from_parts17hedf76923d3deab9cE, symObjAddr: 0xA214, symBinAddr: 0xAA4C, symSize: 0x18C }
  - { offset: 0xC128, size: 0x8, addend: 0x0, symName: __ZN11snid_native5PyBid7to_wire17h5323f604bab9f051E, symObjAddr: 0xA3A0, symBinAddr: 0xABD8, symSize: 0x58 }
  - { offset: 0xC14B, size: 0x8, addend: 0x0, symName: __ZN11snid_native5PyBid6r2_key17h2165807f2c62eea5E, symObjAddr: 0xA3F8, symBinAddr: 0xAC30, symSize: 0x48 }
  - { offset: 0xC16E, size: 0x8, addend: 0x0, symName: __ZN11snid_native5PyBid23__pymethod_from_parts__17h6d9588a2d9f3da32E, symObjAddr: 0xA518, symBinAddr: 0xAD50, symSize: 0x448 }
  - { offset: 0xC308, size: 0x8, addend: 0x0, symName: __ZN11snid_native5PyBid20__pymethod_to_wire__17h67270ee831aec499E, symObjAddr: 0xA960, symBinAddr: 0xB198, symSize: 0x290 }
  - { offset: 0xC3F5, size: 0x8, addend: 0x0, symName: __ZN11snid_native5PyBid19__pymethod_r2_key__17hbce1497ecdac38b3E, symObjAddr: 0xABF0, symBinAddr: 0xB428, symSize: 0x290 }
  - { offset: 0xCA73, size: 0x8, addend: 0x0, symName: '__ZN4pyo35impl_7pyclass16lazy_type_object23LazyTypeObject$LT$T$GT$11get_or_init17h1a0804cf3598e235E', symObjAddr: 0x0, symBinAddr: 0xCD70, symSize: 0x40 }
  - { offset: 0xE8AB, size: 0x8, addend: 0x0, symName: '__ZN4pyo35impl_7pyclass16lazy_type_object23LazyTypeObject$LT$T$GT$11get_or_init28_$u7b$$u7b$closure$u7d$$u7d$17h08b9c1b51630ebd0E', symObjAddr: 0x240, symBinAddr: 0xCFB0, symSize: 0xC0 }
  - { offset: 0xE959, size: 0x8, addend: 0x0, symName: '__ZN4pyo35impl_7pyclass16lazy_type_object23LazyTypeObject$LT$T$GT$11get_or_init28_$u7b$$u7b$closure$u7d$$u7d$17h1cc8d7cb7d9ea964E', symObjAddr: 0x300, symBinAddr: 0xD070, symSize: 0xC0 }
  - { offset: 0xEA07, size: 0x8, addend: 0x0, symName: '__ZN4pyo35impl_7pyclass16lazy_type_object23LazyTypeObject$LT$T$GT$11get_or_init28_$u7b$$u7b$closure$u7d$$u7d$17h7b90c77e27916d2eE', symObjAddr: 0x3C0, symBinAddr: 0xD130, symSize: 0xC0 }
  - { offset: 0xEAB5, size: 0x8, addend: 0x0, symName: '__ZN4pyo35impl_7pyclass16lazy_type_object23LazyTypeObject$LT$T$GT$11get_or_init28_$u7b$$u7b$closure$u7d$$u7d$17h8c407d50fd80fc9fE', symObjAddr: 0x480, symBinAddr: 0xD1F0, symSize: 0xC0 }
  - { offset: 0xEB63, size: 0x8, addend: 0x0, symName: '__ZN4pyo35impl_7pyclass16lazy_type_object23LazyTypeObject$LT$T$GT$11get_or_init28_$u7b$$u7b$closure$u7d$$u7d$17h91046e576e25d95fE', symObjAddr: 0x540, symBinAddr: 0xD2B0, symSize: 0xC0 }
  - { offset: 0xEC11, size: 0x8, addend: 0x0, symName: '__ZN4pyo35impl_7pyclass16lazy_type_object23LazyTypeObject$LT$T$GT$11get_or_init28_$u7b$$u7b$closure$u7d$$u7d$17hadb2ce6ac4360929E', symObjAddr: 0x600, symBinAddr: 0xD370, symSize: 0xC0 }
  - { offset: 0xECBF, size: 0x8, addend: 0x0, symName: '__ZN4pyo35impl_7pyclass16lazy_type_object23LazyTypeObject$LT$T$GT$11get_or_init28_$u7b$$u7b$closure$u7d$$u7d$17hc4720b64d4e9ed6aE', symObjAddr: 0x6C0, symBinAddr: 0xD430, symSize: 0xC0 }
  - { offset: 0xED6D, size: 0x8, addend: 0x0, symName: '__ZN4pyo35impl_7pyclass16lazy_type_object23LazyTypeObject$LT$T$GT$11get_or_init28_$u7b$$u7b$closure$u7d$$u7d$17he6fadbbd5fabbdacE', symObjAddr: 0x780, symBinAddr: 0xD4F0, symSize: 0xC0 }
  - { offset: 0xEE1B, size: 0x8, addend: 0x0, symName: '__ZN4pyo35impl_7pyclass16lazy_type_object23LazyTypeObject$LT$T$GT$11get_or_init28_$u7b$$u7b$closure$u7d$$u7d$17hfbe64771cdf132ddE', symObjAddr: 0x840, symBinAddr: 0xD5B0, symSize: 0xC0 }
  - { offset: 0xFCC7, size: 0x8, addend: 0x0, symName: '__ZN4pyo35impl_7pyclass16lazy_type_object23LazyTypeObject$LT$T$GT$11get_or_init17h1a0804cf3598e235E', symObjAddr: 0x0, symBinAddr: 0xCD70, symSize: 0x40 }
  - { offset: 0xFD24, size: 0x8, addend: 0x0, symName: '__ZN4pyo35impl_7pyclass16lazy_type_object23LazyTypeObject$LT$T$GT$11get_or_init17h3bfe0191dea08e58E', symObjAddr: 0x40, symBinAddr: 0xCDB0, symSize: 0x40 }
  - { offset: 0xFD74, size: 0x8, addend: 0x0, symName: '__ZN4pyo35impl_7pyclass16lazy_type_object23LazyTypeObject$LT$T$GT$11get_or_init17h61f141d603916e8aE', symObjAddr: 0x80, symBinAddr: 0xCDF0, symSize: 0x40 }
  - { offset: 0xFDC4, size: 0x8, addend: 0x0, symName: '__ZN4pyo35impl_7pyclass16lazy_type_object23LazyTypeObject$LT$T$GT$11get_or_init17h97f4bc8f2c20f3c9E', symObjAddr: 0xC0, symBinAddr: 0xCE30, symSize: 0x40 }
  - { offset: 0xFE14, size: 0x8, addend: 0x0, symName: '__ZN4pyo35impl_7pyclass16lazy_type_object23LazyTypeObject$LT$T$GT$11get_or_init17h9c1572aa4c02f474E', symObjAddr: 0x100, symBinAddr: 0xCE70, symSize: 0x40 }
  - { offset: 0xFE64, size: 0x8, addend: 0x0, symName: '__ZN4pyo35impl_7pyclass16lazy_type_object23LazyTypeObject$LT$T$GT$11get_or_init17ha7f36c8acf1fb31aE', symObjAddr: 0x140, symBinAddr: 0xCEB0, symSize: 0x40 }
  - { offset: 0xFEB4, size: 0x8, addend: 0x0, symName: '__ZN4pyo35impl_7pyclass16lazy_type_object23LazyTypeObject$LT$T$GT$11get_or_init17hc7e30fca4d390b61E', symObjAddr: 0x180, symBinAddr: 0xCEF0, symSize: 0x40 }
  - { offset: 0xFF04, size: 0x8, addend: 0x0, symName: '__ZN4pyo35impl_7pyclass16lazy_type_object23LazyTypeObject$LT$T$GT$11get_or_init17hd701131304551e34E', symObjAddr: 0x1C0, symBinAddr: 0xCF30, symSize: 0x40 }
  - { offset: 0xFF54, size: 0x8, addend: 0x0, symName: '__ZN4pyo35impl_7pyclass16lazy_type_object23LazyTypeObject$LT$T$GT$11get_or_init17he0d6cef4c3aa2fd5E', symObjAddr: 0x200, symBinAddr: 0xCF70, symSize: 0x40 }
  - { offset: 0x100C9, size: 0x8, addend: 0x0, symName: '__ZN4pyo35impl_7pyclass16lazy_type_object23LazyTypeObject$LT$T$GT$15get_or_try_init17h2b0ae2c1deb595f8E', symObjAddr: 0x900, symBinAddr: 0xD670, symSize: 0x58 }
  - { offset: 0x1010C, size: 0x8, addend: 0x0, symName: '__ZN4pyo35impl_7pyclass16lazy_type_object23LazyTypeObject$LT$T$GT$15get_or_try_init17h3f86fa344d9cf411E', symObjAddr: 0x958, symBinAddr: 0xD6C8, symSize: 0x58 }
  - { offset: 0x1014F, size: 0x8, addend: 0x0, symName: '__ZN4pyo35impl_7pyclass16lazy_type_object23LazyTypeObject$LT$T$GT$15get_or_try_init17h4623abe629753508E', symObjAddr: 0x9B0, symBinAddr: 0xD720, symSize: 0x58 }
  - { offset: 0x10192, size: 0x8, addend: 0x0, symName: '__ZN4pyo35impl_7pyclass16lazy_type_object23LazyTypeObject$LT$T$GT$15get_or_try_init17h63b5a8618324a6ceE', symObjAddr: 0xA08, symBinAddr: 0xD778, symSize: 0x58 }
  - { offset: 0x101D5, size: 0x8, addend: 0x0, symName: '__ZN4pyo35impl_7pyclass16lazy_type_object23LazyTypeObject$LT$T$GT$15get_or_try_init17h7afc032d7c3ccf56E', symObjAddr: 0xA60, symBinAddr: 0xD7D0, symSize: 0x58 }
  - { offset: 0x10218, size: 0x8, addend: 0x0, symName: '__ZN4pyo35impl_7pyclass16lazy_type_object23LazyTypeObject$LT$T$GT$15get_or_try_init17h8ee5672efbdbedc8E', symObjAddr: 0xAB8, symBinAddr: 0xD828, symSize: 0x58 }
  - { offset: 0x1025B, size: 0x8, addend: 0x0, symName: '__ZN4pyo35impl_7pyclass16lazy_type_object23LazyTypeObject$LT$T$GT$15get_or_try_init17ha6b127e08a2a94f3E', symObjAddr: 0xB10, symBinAddr: 0xD880, symSize: 0x58 }
  - { offset: 0x1029E, size: 0x8, addend: 0x0, symName: '__ZN4pyo35impl_7pyclass16lazy_type_object23LazyTypeObject$LT$T$GT$15get_or_try_init17hdda197fada067851E', symObjAddr: 0xB68, symBinAddr: 0xD8D8, symSize: 0x58 }
  - { offset: 0x102E1, size: 0x8, addend: 0x0, symName: '__ZN4pyo35impl_7pyclass16lazy_type_object23LazyTypeObject$LT$T$GT$15get_or_try_init17hf6e2021ebabfa675E', symObjAddr: 0xBC0, symBinAddr: 0xD930, symSize: 0x58 }
  - { offset: 0x1034F, size: 0x8, addend: 0x0, symName: '__ZN4pyo35impl_4wrap30IntoPyObjectConverter$LT$T$GT$4wrap17h0ed6c949612e0cc0E', symObjAddr: 0x0, symBinAddr: 0xD988, symSize: 0x1C }
  - { offset: 0x14846, size: 0x8, addend: 0x0, symName: '__ZN4pyo35impl_4wrap62IntoPyObjectConverter$LT$core..result..Result$LT$T$C$E$GT$$GT$12map_into_ptr28_$u7b$$u7b$closure$u7d$$u7d$17h017465c5c693f75aE', symObjAddr: 0x7D8, symBinAddr: 0xE160, symSize: 0x28 }
  - { offset: 0x1489D, size: 0x8, addend: 0x0, symName: '__ZN4pyo35impl_4wrap62IntoPyObjectConverter$LT$core..result..Result$LT$T$C$E$GT$$GT$12map_into_ptr28_$u7b$$u7b$closure$u7d$$u7d$17h06cd13c20a415826E', symObjAddr: 0x800, symBinAddr: 0xE188, symSize: 0x2C }
  - { offset: 0x148F3, size: 0x8, addend: 0x0, symName: '__ZN4pyo35impl_4wrap62IntoPyObjectConverter$LT$core..result..Result$LT$T$C$E$GT$$GT$12map_into_ptr28_$u7b$$u7b$closure$u7d$$u7d$17h10d2d32680a2a46dE', symObjAddr: 0x82C, symBinAddr: 0xE1B4, symSize: 0x28 }
  - { offset: 0x1494A, size: 0x8, addend: 0x0, symName: '__ZN4pyo35impl_4wrap62IntoPyObjectConverter$LT$core..result..Result$LT$T$C$E$GT$$GT$12map_into_ptr28_$u7b$$u7b$closure$u7d$$u7d$17h153241ebfac90877E', symObjAddr: 0x854, symBinAddr: 0xE1DC, symSize: 0x28 }
  - { offset: 0x149A1, size: 0x8, addend: 0x0, symName: '__ZN4pyo35impl_4wrap62IntoPyObjectConverter$LT$core..result..Result$LT$T$C$E$GT$$GT$12map_into_ptr28_$u7b$$u7b$closure$u7d$$u7d$17h1a95796c16794eecE', symObjAddr: 0x87C, symBinAddr: 0xE204, symSize: 0x28 }
  - { offset: 0x149F8, size: 0x8, addend: 0x0, symName: '__ZN4pyo35impl_4wrap62IntoPyObjectConverter$LT$core..result..Result$LT$T$C$E$GT$$GT$12map_into_ptr28_$u7b$$u7b$closure$u7d$$u7d$17h2eb9df1d682c9fbeE', symObjAddr: 0x8A4, symBinAddr: 0xE22C, symSize: 0x28 }
  - { offset: 0x14A4F, size: 0x8, addend: 0x0, symName: '__ZN4pyo35impl_4wrap62IntoPyObjectConverter$LT$core..result..Result$LT$T$C$E$GT$$GT$12map_into_ptr28_$u7b$$u7b$closure$u7d$$u7d$17h3b166b65407efd4cE', symObjAddr: 0x8CC, symBinAddr: 0xE254, symSize: 0x28 }
  - { offset: 0x14AA6, size: 0x8, addend: 0x0, symName: '__ZN4pyo35impl_4wrap62IntoPyObjectConverter$LT$core..result..Result$LT$T$C$E$GT$$GT$12map_into_ptr28_$u7b$$u7b$closure$u7d$$u7d$17h4399a53edc921bd4E', symObjAddr: 0x8F4, symBinAddr: 0xE27C, symSize: 0x2C }
  - { offset: 0x14AFC, size: 0x8, addend: 0x0, symName: '__ZN4pyo35impl_4wrap62IntoPyObjectConverter$LT$core..result..Result$LT$T$C$E$GT$$GT$12map_into_ptr28_$u7b$$u7b$closure$u7d$$u7d$17h4b8f97142e2ea8ecE', symObjAddr: 0x920, symBinAddr: 0xE2A8, symSize: 0x2C }
  - { offset: 0x14B52, size: 0x8, addend: 0x0, symName: '__ZN4pyo35impl_4wrap62IntoPyObjectConverter$LT$core..result..Result$LT$T$C$E$GT$$GT$12map_into_ptr28_$u7b$$u7b$closure$u7d$$u7d$17h4f4dd081623bdd01E', symObjAddr: 0x94C, symBinAddr: 0xE2D4, symSize: 0x2C }
  - { offset: 0x14BA8, size: 0x8, addend: 0x0, symName: '__ZN4pyo35impl_4wrap62IntoPyObjectConverter$LT$core..result..Result$LT$T$C$E$GT$$GT$12map_into_ptr28_$u7b$$u7b$closure$u7d$$u7d$17h5d792031d2e0960aE', symObjAddr: 0x978, symBinAddr: 0xE300, symSize: 0x28 }
  - { offset: 0x14BFF, size: 0x8, addend: 0x0, symName: '__ZN4pyo35impl_4wrap62IntoPyObjectConverter$LT$core..result..Result$LT$T$C$E$GT$$GT$12map_into_ptr28_$u7b$$u7b$closure$u7d$$u7d$17h6355aaaa5ae12a83E', symObjAddr: 0x9A0, symBinAddr: 0xE328, symSize: 0x2C }
  - { offset: 0x14C55, size: 0x8, addend: 0x0, symName: '__ZN4pyo35impl_4wrap62IntoPyObjectConverter$LT$core..result..Result$LT$T$C$E$GT$$GT$12map_into_ptr28_$u7b$$u7b$closure$u7d$$u7d$17h85ab702d4eb6ca3eE', symObjAddr: 0x9CC, symBinAddr: 0xE354, symSize: 0x28 }
  - { offset: 0x14CAC, size: 0x8, addend: 0x0, symName: '__ZN4pyo35impl_4wrap62IntoPyObjectConverter$LT$core..result..Result$LT$T$C$E$GT$$GT$12map_into_ptr28_$u7b$$u7b$closure$u7d$$u7d$17h922689b804e8e33aE', symObjAddr: 0x9F4, symBinAddr: 0xE37C, symSize: 0x30 }
  - { offset: 0x14D02, size: 0x8, addend: 0x0, symName: '__ZN4pyo35impl_4wrap62IntoPyObjectConverter$LT$core..result..Result$LT$T$C$E$GT$$GT$12map_into_ptr28_$u7b$$u7b$closure$u7d$$u7d$17h92f865759cec6179E', symObjAddr: 0xA24, symBinAddr: 0xE3AC, symSize: 0x28 }
  - { offset: 0x14D59, size: 0x8, addend: 0x0, symName: '__ZN4pyo35impl_4wrap62IntoPyObjectConverter$LT$core..result..Result$LT$T$C$E$GT$$GT$12map_into_ptr28_$u7b$$u7b$closure$u7d$$u7d$17h971190964ce8bd0bE', symObjAddr: 0xA4C, symBinAddr: 0xE3D4, symSize: 0x34 }
  - { offset: 0x14DAF, size: 0x8, addend: 0x0, symName: '__ZN4pyo35impl_4wrap62IntoPyObjectConverter$LT$core..result..Result$LT$T$C$E$GT$$GT$12map_into_ptr28_$u7b$$u7b$closure$u7d$$u7d$17hbae9e52605385cd2E', symObjAddr: 0xA80, symBinAddr: 0xE408, symSize: 0x28 }
  - { offset: 0x14E06, size: 0x8, addend: 0x0, symName: '__ZN4pyo35impl_4wrap62IntoPyObjectConverter$LT$core..result..Result$LT$T$C$E$GT$$GT$12map_into_ptr28_$u7b$$u7b$closure$u7d$$u7d$17hbc8a14f80e5bdbe9E', symObjAddr: 0xAA8, symBinAddr: 0xE430, symSize: 0x28 }
  - { offset: 0x14E5D, size: 0x8, addend: 0x0, symName: '__ZN4pyo35impl_4wrap62IntoPyObjectConverter$LT$core..result..Result$LT$T$C$E$GT$$GT$12map_into_ptr28_$u7b$$u7b$closure$u7d$$u7d$17hbe20108a287379dfE', symObjAddr: 0xAD0, symBinAddr: 0xE458, symSize: 0x28 }
  - { offset: 0x14EB4, size: 0x8, addend: 0x0, symName: '__ZN4pyo35impl_4wrap62IntoPyObjectConverter$LT$core..result..Result$LT$T$C$E$GT$$GT$12map_into_ptr28_$u7b$$u7b$closure$u7d$$u7d$17hd1d79f514fee86c9E', symObjAddr: 0xAF8, symBinAddr: 0xE480, symSize: 0x28 }
  - { offset: 0x14F0B, size: 0x8, addend: 0x0, symName: '__ZN4pyo35impl_4wrap62IntoPyObjectConverter$LT$core..result..Result$LT$T$C$E$GT$$GT$12map_into_ptr28_$u7b$$u7b$closure$u7d$$u7d$17hd3cd99c63aa91f78E', symObjAddr: 0xB20, symBinAddr: 0xE4A8, symSize: 0x28 }
  - { offset: 0x14F62, size: 0x8, addend: 0x0, symName: '__ZN4pyo35impl_4wrap62IntoPyObjectConverter$LT$core..result..Result$LT$T$C$E$GT$$GT$12map_into_ptr28_$u7b$$u7b$closure$u7d$$u7d$17he485c57914e5e7cfE', symObjAddr: 0xB48, symBinAddr: 0xE4D0, symSize: 0x28 }
  - { offset: 0x14FB9, size: 0x8, addend: 0x0, symName: '__ZN4pyo35impl_4wrap62IntoPyObjectConverter$LT$core..result..Result$LT$T$C$E$GT$$GT$12map_into_ptr28_$u7b$$u7b$closure$u7d$$u7d$17hf93261ef6ae734beE', symObjAddr: 0xB70, symBinAddr: 0xE4F8, symSize: 0x34 }
  - { offset: 0x151C6, size: 0x8, addend: 0x0, symName: __ZN4pyo35impl_4wrap9converter17h034c236b8f6d0eb4E, symObjAddr: 0xE14, symBinAddr: 0xE79C, symSize: 0x10 }
  - { offset: 0x151F3, size: 0x8, addend: 0x0, symName: __ZN4pyo35impl_4wrap9converter17h049aab2109500f29E, symObjAddr: 0xE24, symBinAddr: 0xE7AC, symSize: 0x10 }
  - { offset: 0x15220, size: 0x8, addend: 0x0, symName: __ZN4pyo35impl_4wrap9converter17h086277e6b39e3dbfE, symObjAddr: 0xE34, symBinAddr: 0xE7BC, symSize: 0x10 }
  - { offset: 0x1524D, size: 0x8, addend: 0x0, symName: __ZN4pyo35impl_4wrap9converter17h0cb2c494237f3692E, symObjAddr: 0xE44, symBinAddr: 0xE7CC, symSize: 0x10 }
  - { offset: 0x1527A, size: 0x8, addend: 0x0, symName: __ZN4pyo35impl_4wrap9converter17h18c99deb175a2031E, symObjAddr: 0xE54, symBinAddr: 0xE7DC, symSize: 0x10 }
  - { offset: 0x152A7, size: 0x8, addend: 0x0, symName: __ZN4pyo35impl_4wrap9converter17h1a840b890a5a2760E, symObjAddr: 0xE64, symBinAddr: 0xE7EC, symSize: 0x10 }
  - { offset: 0x152D4, size: 0x8, addend: 0x0, symName: __ZN4pyo35impl_4wrap9converter17h22d945f03e31b72dE, symObjAddr: 0xE74, symBinAddr: 0xE7FC, symSize: 0x10 }
  - { offset: 0x15301, size: 0x8, addend: 0x0, symName: __ZN4pyo35impl_4wrap9converter17h2357cb856aa8d5f7E, symObjAddr: 0xE84, symBinAddr: 0xE80C, symSize: 0x10 }
  - { offset: 0x1532E, size: 0x8, addend: 0x0, symName: __ZN4pyo35impl_4wrap9converter17h2af0456a836671cdE, symObjAddr: 0xE94, symBinAddr: 0xE81C, symSize: 0x10 }
  - { offset: 0x1535B, size: 0x8, addend: 0x0, symName: __ZN4pyo35impl_4wrap9converter17h2f0d8c2b474000e5E, symObjAddr: 0xEA4, symBinAddr: 0xE82C, symSize: 0x10 }
  - { offset: 0x15388, size: 0x8, addend: 0x0, symName: __ZN4pyo35impl_4wrap9converter17h4d3dea00654b3954E, symObjAddr: 0xEB4, symBinAddr: 0xE83C, symSize: 0x10 }
  - { offset: 0x153B5, size: 0x8, addend: 0x0, symName: __ZN4pyo35impl_4wrap9converter17h5392de7339f72a27E, symObjAddr: 0xEC4, symBinAddr: 0xE84C, symSize: 0x10 }
  - { offset: 0x153E2, size: 0x8, addend: 0x0, symName: __ZN4pyo35impl_4wrap9converter17h55415c116a6d3b54E, symObjAddr: 0xED4, symBinAddr: 0xE85C, symSize: 0x10 }
  - { offset: 0x1540F, size: 0x8, addend: 0x0, symName: __ZN4pyo35impl_4wrap9converter17h61d5e326ad16d67aE, symObjAddr: 0xEE4, symBinAddr: 0xE86C, symSize: 0x10 }
  - { offset: 0x1543C, size: 0x8, addend: 0x0, symName: __ZN4pyo35impl_4wrap9converter17h67e44dd5851e8e9fE, symObjAddr: 0xEF4, symBinAddr: 0xE87C, symSize: 0x10 }
  - { offset: 0x15469, size: 0x8, addend: 0x0, symName: __ZN4pyo35impl_4wrap9converter17h6d9ada97b2b89d2fE, symObjAddr: 0xF04, symBinAddr: 0xE88C, symSize: 0x10 }
  - { offset: 0x15496, size: 0x8, addend: 0x0, symName: __ZN4pyo35impl_4wrap9converter17h6eb7f9f8f390b18dE, symObjAddr: 0xF14, symBinAddr: 0xE89C, symSize: 0x10 }
  - { offset: 0x154C3, size: 0x8, addend: 0x0, symName: __ZN4pyo35impl_4wrap9converter17h7490104bb230b8fcE, symObjAddr: 0xF24, symBinAddr: 0xE8AC, symSize: 0x10 }
  - { offset: 0x154F0, size: 0x8, addend: 0x0, symName: __ZN4pyo35impl_4wrap9converter17h790742e7dd327e5fE, symObjAddr: 0xF34, symBinAddr: 0xE8BC, symSize: 0x10 }
  - { offset: 0x1551D, size: 0x8, addend: 0x0, symName: __ZN4pyo35impl_4wrap9converter17h790fd4479e3d42fcE, symObjAddr: 0xF44, symBinAddr: 0xE8CC, symSize: 0x10 }
  - { offset: 0x1554A, size: 0x8, addend: 0x0, symName: __ZN4pyo35impl_4wrap9converter17h7c864e65f936d8a1E, symObjAddr: 0xF54, symBinAddr: 0xE8DC, symSize: 0x10 }
  - { offset: 0x15577, size: 0x8, addend: 0x0, symName: __ZN4pyo35impl_4wrap9converter17h818144900f7fc73aE, symObjAddr: 0xF64, symBinAddr: 0xE8EC, symSize: 0x10 }
  - { offset: 0x155A4, size: 0x8, addend: 0x0, symName: __ZN4pyo35impl_4wrap9converter17h86c1856f27fc6788E, symObjAddr: 0xF74, symBinAddr: 0xE8FC, symSize: 0x10 }
  - { offset: 0x155D1, size: 0x8, addend: 0x0, symName: __ZN4pyo35impl_4wrap9converter17h9708b7b45c3713e0E, symObjAddr: 0xF84, symBinAddr: 0xE90C, symSize: 0x10 }
  - { offset: 0x155FE, size: 0x8, addend: 0x0, symName: __ZN4pyo35impl_4wrap9converter17h97e35a3d33064adaE, symObjAddr: 0xF94, symBinAddr: 0xE91C, symSize: 0x10 }
  - { offset: 0x1562B, size: 0x8, addend: 0x0, symName: __ZN4pyo35impl_4wrap9converter17h9a23de1aa07281c6E, symObjAddr: 0xFA4, symBinAddr: 0xE92C, symSize: 0x10 }
  - { offset: 0x15658, size: 0x8, addend: 0x0, symName: __ZN4pyo35impl_4wrap9converter17h9dbd0b4db9a5522bE, symObjAddr: 0xFB4, symBinAddr: 0xE93C, symSize: 0x10 }
  - { offset: 0x15685, size: 0x8, addend: 0x0, symName: __ZN4pyo35impl_4wrap9converter17hb080c9930426be83E, symObjAddr: 0xFC4, symBinAddr: 0xE94C, symSize: 0x10 }
  - { offset: 0x156B2, size: 0x8, addend: 0x0, symName: __ZN4pyo35impl_4wrap9converter17hb65f02c02802d26cE, symObjAddr: 0xFD4, symBinAddr: 0xE95C, symSize: 0x10 }
  - { offset: 0x156DF, size: 0x8, addend: 0x0, symName: __ZN4pyo35impl_4wrap9converter17hb7d08a807de5c721E, symObjAddr: 0xFE4, symBinAddr: 0xE96C, symSize: 0x10 }
  - { offset: 0x1570C, size: 0x8, addend: 0x0, symName: __ZN4pyo35impl_4wrap9converter17hb9bf94b3d6d5d119E, symObjAddr: 0xFF4, symBinAddr: 0xE97C, symSize: 0x10 }
  - { offset: 0x15739, size: 0x8, addend: 0x0, symName: __ZN4pyo35impl_4wrap9converter17hbfdb21dbbc51a91dE, symObjAddr: 0x1004, symBinAddr: 0xE98C, symSize: 0x10 }
  - { offset: 0x15766, size: 0x8, addend: 0x0, symName: __ZN4pyo35impl_4wrap9converter17hc7c49b75fb8ef465E, symObjAddr: 0x1014, symBinAddr: 0xE99C, symSize: 0x10 }
  - { offset: 0x15793, size: 0x8, addend: 0x0, symName: __ZN4pyo35impl_4wrap9converter17hcd0d618029e7094dE, symObjAddr: 0x1024, symBinAddr: 0xE9AC, symSize: 0x10 }
  - { offset: 0x157C0, size: 0x8, addend: 0x0, symName: __ZN4pyo35impl_4wrap9converter17hd231aa71032ab226E, symObjAddr: 0x1034, symBinAddr: 0xE9BC, symSize: 0x10 }
  - { offset: 0x157ED, size: 0x8, addend: 0x0, symName: __ZN4pyo35impl_4wrap9converter17hd7bf0b72095c9d8dE, symObjAddr: 0x1044, symBinAddr: 0xE9CC, symSize: 0x10 }
  - { offset: 0x1581A, size: 0x8, addend: 0x0, symName: __ZN4pyo35impl_4wrap9converter17hee0fd8831cef4056E, symObjAddr: 0x1054, symBinAddr: 0xE9DC, symSize: 0x10 }
  - { offset: 0x1584C, size: 0x8, addend: 0x0, symName: '__ZN81_$LT$pyo3..impl_..wrap..Converter$LT$T$GT$$u20$as$u20$core..ops..deref..Deref$GT$5deref17h00750427c1fdc339E', symObjAddr: 0x1064, symBinAddr: 0xE9EC, symSize: 0x14 }
  - { offset: 0x15881, size: 0x8, addend: 0x0, symName: '__ZN81_$LT$pyo3..impl_..wrap..Converter$LT$T$GT$$u20$as$u20$core..ops..deref..Deref$GT$5deref17h021b23d9e9c93430E', symObjAddr: 0x1078, symBinAddr: 0xEA00, symSize: 0x14 }
  - { offset: 0x158B6, size: 0x8, addend: 0x0, symName: '__ZN81_$LT$pyo3..impl_..wrap..Converter$LT$T$GT$$u20$as$u20$core..ops..deref..Deref$GT$5deref17h07d73b37aafb3fb1E', symObjAddr: 0x108C, symBinAddr: 0xEA14, symSize: 0x14 }
  - { offset: 0x158EB, size: 0x8, addend: 0x0, symName: '__ZN81_$LT$pyo3..impl_..wrap..Converter$LT$T$GT$$u20$as$u20$core..ops..deref..Deref$GT$5deref17h080cdad2d8974824E', symObjAddr: 0x10A0, symBinAddr: 0xEA28, symSize: 0x14 }
  - { offset: 0x15920, size: 0x8, addend: 0x0, symName: '__ZN81_$LT$pyo3..impl_..wrap..Converter$LT$T$GT$$u20$as$u20$core..ops..deref..Deref$GT$5deref17h0a05e7faf6727982E', symObjAddr: 0x10B4, symBinAddr: 0xEA3C, symSize: 0x14 }
  - { offset: 0x15955, size: 0x8, addend: 0x0, symName: '__ZN81_$LT$pyo3..impl_..wrap..Converter$LT$T$GT$$u20$as$u20$core..ops..deref..Deref$GT$5deref17h1c0214581accb471E', symObjAddr: 0x10C8, symBinAddr: 0xEA50, symSize: 0x14 }
  - { offset: 0x1598A, size: 0x8, addend: 0x0, symName: '__ZN81_$LT$pyo3..impl_..wrap..Converter$LT$T$GT$$u20$as$u20$core..ops..deref..Deref$GT$5deref17h3c45139772246b8dE', symObjAddr: 0x10DC, symBinAddr: 0xEA64, symSize: 0x14 }
  - { offset: 0x159BF, size: 0x8, addend: 0x0, symName: '__ZN81_$LT$pyo3..impl_..wrap..Converter$LT$T$GT$$u20$as$u20$core..ops..deref..Deref$GT$5deref17h4d72bff80dc0338fE', symObjAddr: 0x10F0, symBinAddr: 0xEA78, symSize: 0x14 }
  - { offset: 0x159F4, size: 0x8, addend: 0x0, symName: '__ZN81_$LT$pyo3..impl_..wrap..Converter$LT$T$GT$$u20$as$u20$core..ops..deref..Deref$GT$5deref17h586b48e6c5d8a0d7E', symObjAddr: 0x1104, symBinAddr: 0xEA8C, symSize: 0x14 }
  - { offset: 0x15A29, size: 0x8, addend: 0x0, symName: '__ZN81_$LT$pyo3..impl_..wrap..Converter$LT$T$GT$$u20$as$u20$core..ops..deref..Deref$GT$5deref17h59ddd80c63afeed7E', symObjAddr: 0x1118, symBinAddr: 0xEAA0, symSize: 0x14 }
  - { offset: 0x15A5E, size: 0x8, addend: 0x0, symName: '__ZN81_$LT$pyo3..impl_..wrap..Converter$LT$T$GT$$u20$as$u20$core..ops..deref..Deref$GT$5deref17h6b678d2d73f8654eE', symObjAddr: 0x112C, symBinAddr: 0xEAB4, symSize: 0x14 }
  - { offset: 0x15A93, size: 0x8, addend: 0x0, symName: '__ZN81_$LT$pyo3..impl_..wrap..Converter$LT$T$GT$$u20$as$u20$core..ops..deref..Deref$GT$5deref17h6f2229338127c472E', symObjAddr: 0x1140, symBinAddr: 0xEAC8, symSize: 0x14 }
  - { offset: 0x15AC8, size: 0x8, addend: 0x0, symName: '__ZN81_$LT$pyo3..impl_..wrap..Converter$LT$T$GT$$u20$as$u20$core..ops..deref..Deref$GT$5deref17h730b9547e600a42dE', symObjAddr: 0x1154, symBinAddr: 0xEADC, symSize: 0x14 }
  - { offset: 0x15AFD, size: 0x8, addend: 0x0, symName: '__ZN81_$LT$pyo3..impl_..wrap..Converter$LT$T$GT$$u20$as$u20$core..ops..deref..Deref$GT$5deref17h7497d015ad635583E', symObjAddr: 0x1168, symBinAddr: 0xEAF0, symSize: 0x14 }
  - { offset: 0x15B32, size: 0x8, addend: 0x0, symName: '__ZN81_$LT$pyo3..impl_..wrap..Converter$LT$T$GT$$u20$as$u20$core..ops..deref..Deref$GT$5deref17h7683ff740d15729eE', symObjAddr: 0x117C, symBinAddr: 0xEB04, symSize: 0x14 }
  - { offset: 0x15B67, size: 0x8, addend: 0x0, symName: '__ZN81_$LT$pyo3..impl_..wrap..Converter$LT$T$GT$$u20$as$u20$core..ops..deref..Deref$GT$5deref17h7b206e7bc05c5240E', symObjAddr: 0x1190, symBinAddr: 0xEB18, symSize: 0x14 }
  - { offset: 0x15B9C, size: 0x8, addend: 0x0, symName: '__ZN81_$LT$pyo3..impl_..wrap..Converter$LT$T$GT$$u20$as$u20$core..ops..deref..Deref$GT$5deref17h7fb6b03bf2308b4aE', symObjAddr: 0x11A4, symBinAddr: 0xEB2C, symSize: 0x14 }
  - { offset: 0x15BD1, size: 0x8, addend: 0x0, symName: '__ZN81_$LT$pyo3..impl_..wrap..Converter$LT$T$GT$$u20$as$u20$core..ops..deref..Deref$GT$5deref17h89cba83be7d40b8aE', symObjAddr: 0x11B8, symBinAddr: 0xEB40, symSize: 0x14 }
  - { offset: 0x15C06, size: 0x8, addend: 0x0, symName: '__ZN81_$LT$pyo3..impl_..wrap..Converter$LT$T$GT$$u20$as$u20$core..ops..deref..Deref$GT$5deref17h90360a90413eb75eE', symObjAddr: 0x11CC, symBinAddr: 0xEB54, symSize: 0x14 }
  - { offset: 0x15C3B, size: 0x8, addend: 0x0, symName: '__ZN81_$LT$pyo3..impl_..wrap..Converter$LT$T$GT$$u20$as$u20$core..ops..deref..Deref$GT$5deref17h9c35e542ad534ff3E', symObjAddr: 0x11E0, symBinAddr: 0xEB68, symSize: 0x14 }
  - { offset: 0x15C70, size: 0x8, addend: 0x0, symName: '__ZN81_$LT$pyo3..impl_..wrap..Converter$LT$T$GT$$u20$as$u20$core..ops..deref..Deref$GT$5deref17hae61efe554be2ec5E', symObjAddr: 0x11F4, symBinAddr: 0xEB7C, symSize: 0x14 }
  - { offset: 0x15CA5, size: 0x8, addend: 0x0, symName: '__ZN81_$LT$pyo3..impl_..wrap..Converter$LT$T$GT$$u20$as$u20$core..ops..deref..Deref$GT$5deref17haeb4f30e81c043efE', symObjAddr: 0x1208, symBinAddr: 0xEB90, symSize: 0x14 }
  - { offset: 0x15CDA, size: 0x8, addend: 0x0, symName: '__ZN81_$LT$pyo3..impl_..wrap..Converter$LT$T$GT$$u20$as$u20$core..ops..deref..Deref$GT$5deref17hb5d696ce7b4a59c6E', symObjAddr: 0x121C, symBinAddr: 0xEBA4, symSize: 0x14 }
  - { offset: 0x15D0F, size: 0x8, addend: 0x0, symName: '__ZN81_$LT$pyo3..impl_..wrap..Converter$LT$T$GT$$u20$as$u20$core..ops..deref..Deref$GT$5deref17hba65bdd7fa1058e1E', symObjAddr: 0x1230, symBinAddr: 0xEBB8, symSize: 0x14 }
  - { offset: 0x15D44, size: 0x8, addend: 0x0, symName: '__ZN81_$LT$pyo3..impl_..wrap..Converter$LT$T$GT$$u20$as$u20$core..ops..deref..Deref$GT$5deref17hc060cbac5732e482E', symObjAddr: 0x1244, symBinAddr: 0xEBCC, symSize: 0x14 }
  - { offset: 0x15D79, size: 0x8, addend: 0x0, symName: '__ZN81_$LT$pyo3..impl_..wrap..Converter$LT$T$GT$$u20$as$u20$core..ops..deref..Deref$GT$5deref17hc22d7d1be7dbfa3eE', symObjAddr: 0x1258, symBinAddr: 0xEBE0, symSize: 0x14 }
  - { offset: 0x15DAE, size: 0x8, addend: 0x0, symName: '__ZN81_$LT$pyo3..impl_..wrap..Converter$LT$T$GT$$u20$as$u20$core..ops..deref..Deref$GT$5deref17hc89ea5a560fbd341E', symObjAddr: 0x126C, symBinAddr: 0xEBF4, symSize: 0x14 }
  - { offset: 0x15DE3, size: 0x8, addend: 0x0, symName: '__ZN81_$LT$pyo3..impl_..wrap..Converter$LT$T$GT$$u20$as$u20$core..ops..deref..Deref$GT$5deref17hc9004d2a72041141E', symObjAddr: 0x1280, symBinAddr: 0xEC08, symSize: 0x14 }
  - { offset: 0x15E18, size: 0x8, addend: 0x0, symName: '__ZN81_$LT$pyo3..impl_..wrap..Converter$LT$T$GT$$u20$as$u20$core..ops..deref..Deref$GT$5deref17hc9a17babb44fd118E', symObjAddr: 0x1294, symBinAddr: 0xEC1C, symSize: 0x14 }
  - { offset: 0x15E4D, size: 0x8, addend: 0x0, symName: '__ZN81_$LT$pyo3..impl_..wrap..Converter$LT$T$GT$$u20$as$u20$core..ops..deref..Deref$GT$5deref17hd5397f034055f552E', symObjAddr: 0x12A8, symBinAddr: 0xEC30, symSize: 0x14 }
  - { offset: 0x15E82, size: 0x8, addend: 0x0, symName: '__ZN81_$LT$pyo3..impl_..wrap..Converter$LT$T$GT$$u20$as$u20$core..ops..deref..Deref$GT$5deref17hdf25a80ca6cd1f7aE', symObjAddr: 0x12BC, symBinAddr: 0xEC44, symSize: 0x14 }
  - { offset: 0x15EB7, size: 0x8, addend: 0x0, symName: '__ZN81_$LT$pyo3..impl_..wrap..Converter$LT$T$GT$$u20$as$u20$core..ops..deref..Deref$GT$5deref17he040d376b695b4dfE', symObjAddr: 0x12D0, symBinAddr: 0xEC58, symSize: 0x14 }
  - { offset: 0x15EEC, size: 0x8, addend: 0x0, symName: '__ZN81_$LT$pyo3..impl_..wrap..Converter$LT$T$GT$$u20$as$u20$core..ops..deref..Deref$GT$5deref17heee3ec507916b666E', symObjAddr: 0x12E4, symBinAddr: 0xEC6C, symSize: 0x14 }
  - { offset: 0x15F21, size: 0x8, addend: 0x0, symName: '__ZN81_$LT$pyo3..impl_..wrap..Converter$LT$T$GT$$u20$as$u20$core..ops..deref..Deref$GT$5deref17hf0691bc87aea0ad6E', symObjAddr: 0x12F8, symBinAddr: 0xEC80, symSize: 0x14 }
  - { offset: 0x15F56, size: 0x8, addend: 0x0, symName: '__ZN81_$LT$pyo3..impl_..wrap..Converter$LT$T$GT$$u20$as$u20$core..ops..deref..Deref$GT$5deref17hf3e0192e8c3b210aE', symObjAddr: 0x130C, symBinAddr: 0xEC94, symSize: 0x14 }
  - { offset: 0x15F8B, size: 0x8, addend: 0x0, symName: '__ZN81_$LT$pyo3..impl_..wrap..Converter$LT$T$GT$$u20$as$u20$core..ops..deref..Deref$GT$5deref17hf95e880f31a69a91E', symObjAddr: 0x1320, symBinAddr: 0xECA8, symSize: 0x14 }
  - { offset: 0x15FC0, size: 0x8, addend: 0x0, symName: '__ZN81_$LT$pyo3..impl_..wrap..Converter$LT$T$GT$$u20$as$u20$core..ops..deref..Deref$GT$5deref17hfdf0a71f97b33831E', symObjAddr: 0x1334, symBinAddr: 0xECBC, symSize: 0x14 }
  - { offset: 0x15FFB, size: 0x8, addend: 0x0, symName: '__ZN91_$LT$pyo3..impl_..wrap..EmptyTupleConverter$LT$T$GT$$u20$as$u20$core..ops..deref..Deref$GT$5deref17h015a06572718b955E', symObjAddr: 0x1348, symBinAddr: 0xECD0, symSize: 0x14 }
  - { offset: 0x16030, size: 0x8, addend: 0x0, symName: '__ZN91_$LT$pyo3..impl_..wrap..EmptyTupleConverter$LT$T$GT$$u20$as$u20$core..ops..deref..Deref$GT$5deref17h07f2b4963d9d5a22E', symObjAddr: 0x135C, symBinAddr: 0xECE4, symSize: 0x14 }
  - { offset: 0x16065, size: 0x8, addend: 0x0, symName: '__ZN91_$LT$pyo3..impl_..wrap..EmptyTupleConverter$LT$T$GT$$u20$as$u20$core..ops..deref..Deref$GT$5deref17h1be601bfdac67855E', symObjAddr: 0x1370, symBinAddr: 0xECF8, symSize: 0x14 }
  - { offset: 0x1609A, size: 0x8, addend: 0x0, symName: '__ZN91_$LT$pyo3..impl_..wrap..EmptyTupleConverter$LT$T$GT$$u20$as$u20$core..ops..deref..Deref$GT$5deref17h2e8f5e771364a9cbE', symObjAddr: 0x1384, symBinAddr: 0xED0C, symSize: 0x14 }
  - { offset: 0x160CF, size: 0x8, addend: 0x0, symName: '__ZN91_$LT$pyo3..impl_..wrap..EmptyTupleConverter$LT$T$GT$$u20$as$u20$core..ops..deref..Deref$GT$5deref17h3250a78e96644eb6E', symObjAddr: 0x1398, symBinAddr: 0xED20, symSize: 0x14 }
  - { offset: 0x16104, size: 0x8, addend: 0x0, symName: '__ZN91_$LT$pyo3..impl_..wrap..EmptyTupleConverter$LT$T$GT$$u20$as$u20$core..ops..deref..Deref$GT$5deref17h37aa7672d96d127bE', symObjAddr: 0x13AC, symBinAddr: 0xED34, symSize: 0x14 }
  - { offset: 0x16139, size: 0x8, addend: 0x0, symName: '__ZN91_$LT$pyo3..impl_..wrap..EmptyTupleConverter$LT$T$GT$$u20$as$u20$core..ops..deref..Deref$GT$5deref17h38f69d67a5385f5bE', symObjAddr: 0x13C0, symBinAddr: 0xED48, symSize: 0x14 }
  - { offset: 0x1616E, size: 0x8, addend: 0x0, symName: '__ZN91_$LT$pyo3..impl_..wrap..EmptyTupleConverter$LT$T$GT$$u20$as$u20$core..ops..deref..Deref$GT$5deref17h3ad8404011c99393E', symObjAddr: 0x13D4, symBinAddr: 0xED5C, symSize: 0x14 }
  - { offset: 0x161A3, size: 0x8, addend: 0x0, symName: '__ZN91_$LT$pyo3..impl_..wrap..EmptyTupleConverter$LT$T$GT$$u20$as$u20$core..ops..deref..Deref$GT$5deref17h40ffb81597ec325fE', symObjAddr: 0x13E8, symBinAddr: 0xED70, symSize: 0x14 }
  - { offset: 0x161D8, size: 0x8, addend: 0x0, symName: '__ZN91_$LT$pyo3..impl_..wrap..EmptyTupleConverter$LT$T$GT$$u20$as$u20$core..ops..deref..Deref$GT$5deref17h47d527b6e668eb72E', symObjAddr: 0x13FC, symBinAddr: 0xED84, symSize: 0x14 }
  - { offset: 0x1620D, size: 0x8, addend: 0x0, symName: '__ZN91_$LT$pyo3..impl_..wrap..EmptyTupleConverter$LT$T$GT$$u20$as$u20$core..ops..deref..Deref$GT$5deref17h4870dd7d36aad131E', symObjAddr: 0x1410, symBinAddr: 0xED98, symSize: 0x14 }
  - { offset: 0x16242, size: 0x8, addend: 0x0, symName: '__ZN91_$LT$pyo3..impl_..wrap..EmptyTupleConverter$LT$T$GT$$u20$as$u20$core..ops..deref..Deref$GT$5deref17h490bbea102b2c211E', symObjAddr: 0x1424, symBinAddr: 0xEDAC, symSize: 0x14 }
  - { offset: 0x16277, size: 0x8, addend: 0x0, symName: '__ZN91_$LT$pyo3..impl_..wrap..EmptyTupleConverter$LT$T$GT$$u20$as$u20$core..ops..deref..Deref$GT$5deref17h4f14953bb3f35195E', symObjAddr: 0x1438, symBinAddr: 0xEDC0, symSize: 0x14 }
  - { offset: 0x162AC, size: 0x8, addend: 0x0, symName: '__ZN91_$LT$pyo3..impl_..wrap..EmptyTupleConverter$LT$T$GT$$u20$as$u20$core..ops..deref..Deref$GT$5deref17h5950e7f462c897ddE', symObjAddr: 0x144C, symBinAddr: 0xEDD4, symSize: 0x14 }
  - { offset: 0x162E1, size: 0x8, addend: 0x0, symName: '__ZN91_$LT$pyo3..impl_..wrap..EmptyTupleConverter$LT$T$GT$$u20$as$u20$core..ops..deref..Deref$GT$5deref17h5fae6e4d1ec146acE', symObjAddr: 0x1460, symBinAddr: 0xEDE8, symSize: 0x14 }
  - { offset: 0x16316, size: 0x8, addend: 0x0, symName: '__ZN91_$LT$pyo3..impl_..wrap..EmptyTupleConverter$LT$T$GT$$u20$as$u20$core..ops..deref..Deref$GT$5deref17h686d6da7022df2faE', symObjAddr: 0x1474, symBinAddr: 0xEDFC, symSize: 0x14 }
  - { offset: 0x1634B, size: 0x8, addend: 0x0, symName: '__ZN91_$LT$pyo3..impl_..wrap..EmptyTupleConverter$LT$T$GT$$u20$as$u20$core..ops..deref..Deref$GT$5deref17h69ab68dc2576d94fE', symObjAddr: 0x1488, symBinAddr: 0xEE10, symSize: 0x14 }
  - { offset: 0x16380, size: 0x8, addend: 0x0, symName: '__ZN91_$LT$pyo3..impl_..wrap..EmptyTupleConverter$LT$T$GT$$u20$as$u20$core..ops..deref..Deref$GT$5deref17h6a7dc8c54ba2ad9fE', symObjAddr: 0x149C, symBinAddr: 0xEE24, symSize: 0x14 }
  - { offset: 0x163B5, size: 0x8, addend: 0x0, symName: '__ZN91_$LT$pyo3..impl_..wrap..EmptyTupleConverter$LT$T$GT$$u20$as$u20$core..ops..deref..Deref$GT$5deref17h6df26214fe3cd066E', symObjAddr: 0x14B0, symBinAddr: 0xEE38, symSize: 0x14 }
  - { offset: 0x163EA, size: 0x8, addend: 0x0, symName: '__ZN91_$LT$pyo3..impl_..wrap..EmptyTupleConverter$LT$T$GT$$u20$as$u20$core..ops..deref..Deref$GT$5deref17h7bba5a597b4fcb50E', symObjAddr: 0x14C4, symBinAddr: 0xEE4C, symSize: 0x14 }
  - { offset: 0x1641F, size: 0x8, addend: 0x0, symName: '__ZN91_$LT$pyo3..impl_..wrap..EmptyTupleConverter$LT$T$GT$$u20$as$u20$core..ops..deref..Deref$GT$5deref17h98ac4d0792f9c295E', symObjAddr: 0x14D8, symBinAddr: 0xEE60, symSize: 0x14 }
  - { offset: 0x16454, size: 0x8, addend: 0x0, symName: '__ZN91_$LT$pyo3..impl_..wrap..EmptyTupleConverter$LT$T$GT$$u20$as$u20$core..ops..deref..Deref$GT$5deref17hb83a28eeba806a43E', symObjAddr: 0x14EC, symBinAddr: 0xEE74, symSize: 0x14 }
  - { offset: 0x16489, size: 0x8, addend: 0x0, symName: '__ZN91_$LT$pyo3..impl_..wrap..EmptyTupleConverter$LT$T$GT$$u20$as$u20$core..ops..deref..Deref$GT$5deref17hb9ae93d45214f987E', symObjAddr: 0x1500, symBinAddr: 0xEE88, symSize: 0x14 }
  - { offset: 0x164BE, size: 0x8, addend: 0x0, symName: '__ZN91_$LT$pyo3..impl_..wrap..EmptyTupleConverter$LT$T$GT$$u20$as$u20$core..ops..deref..Deref$GT$5deref17hc126cad37e2e6a65E', symObjAddr: 0x1514, symBinAddr: 0xEE9C, symSize: 0x14 }
  - { offset: 0x164F3, size: 0x8, addend: 0x0, symName: '__ZN91_$LT$pyo3..impl_..wrap..EmptyTupleConverter$LT$T$GT$$u20$as$u20$core..ops..deref..Deref$GT$5deref17hc6eb83cbe7494105E', symObjAddr: 0x1528, symBinAddr: 0xEEB0, symSize: 0x14 }
  - { offset: 0x16528, size: 0x8, addend: 0x0, symName: '__ZN91_$LT$pyo3..impl_..wrap..EmptyTupleConverter$LT$T$GT$$u20$as$u20$core..ops..deref..Deref$GT$5deref17hd19e9907c9c2305dE', symObjAddr: 0x153C, symBinAddr: 0xEEC4, symSize: 0x14 }
  - { offset: 0x1655D, size: 0x8, addend: 0x0, symName: '__ZN91_$LT$pyo3..impl_..wrap..EmptyTupleConverter$LT$T$GT$$u20$as$u20$core..ops..deref..Deref$GT$5deref17hd6597dcbfbb8bf06E', symObjAddr: 0x1550, symBinAddr: 0xEED8, symSize: 0x14 }
  - { offset: 0x16592, size: 0x8, addend: 0x0, symName: '__ZN91_$LT$pyo3..impl_..wrap..EmptyTupleConverter$LT$T$GT$$u20$as$u20$core..ops..deref..Deref$GT$5deref17hdcebb803027de5b9E', symObjAddr: 0x1564, symBinAddr: 0xEEEC, symSize: 0x14 }
  - { offset: 0x165C7, size: 0x8, addend: 0x0, symName: '__ZN91_$LT$pyo3..impl_..wrap..EmptyTupleConverter$LT$T$GT$$u20$as$u20$core..ops..deref..Deref$GT$5deref17hdfc7013b4c25d614E', symObjAddr: 0x1578, symBinAddr: 0xEF00, symSize: 0x14 }
  - { offset: 0x165FC, size: 0x8, addend: 0x0, symName: '__ZN91_$LT$pyo3..impl_..wrap..EmptyTupleConverter$LT$T$GT$$u20$as$u20$core..ops..deref..Deref$GT$5deref17he08cca8a41b376adE', symObjAddr: 0x158C, symBinAddr: 0xEF14, symSize: 0x14 }
  - { offset: 0x16631, size: 0x8, addend: 0x0, symName: '__ZN91_$LT$pyo3..impl_..wrap..EmptyTupleConverter$LT$T$GT$$u20$as$u20$core..ops..deref..Deref$GT$5deref17he4d86b6354d8e6d6E', symObjAddr: 0x15A0, symBinAddr: 0xEF28, symSize: 0x14 }
  - { offset: 0x16666, size: 0x8, addend: 0x0, symName: '__ZN91_$LT$pyo3..impl_..wrap..EmptyTupleConverter$LT$T$GT$$u20$as$u20$core..ops..deref..Deref$GT$5deref17he966ee9d4018382fE', symObjAddr: 0x15B4, symBinAddr: 0xEF3C, symSize: 0x14 }
  - { offset: 0x1669B, size: 0x8, addend: 0x0, symName: '__ZN91_$LT$pyo3..impl_..wrap..EmptyTupleConverter$LT$T$GT$$u20$as$u20$core..ops..deref..Deref$GT$5deref17hf4fbe1ac5c19410eE', symObjAddr: 0x15C8, symBinAddr: 0xEF50, symSize: 0x14 }
  - { offset: 0x166D0, size: 0x8, addend: 0x0, symName: '__ZN91_$LT$pyo3..impl_..wrap..EmptyTupleConverter$LT$T$GT$$u20$as$u20$core..ops..deref..Deref$GT$5deref17hf52d48f82b001bf1E', symObjAddr: 0x15DC, symBinAddr: 0xEF64, symSize: 0x14 }
  - { offset: 0x16705, size: 0x8, addend: 0x0, symName: '__ZN91_$LT$pyo3..impl_..wrap..EmptyTupleConverter$LT$T$GT$$u20$as$u20$core..ops..deref..Deref$GT$5deref17hf9c9b032a521a38dE', symObjAddr: 0x15F0, symBinAddr: 0xEF78, symSize: 0x14 }
  - { offset: 0x1673A, size: 0x8, addend: 0x0, symName: '__ZN91_$LT$pyo3..impl_..wrap..EmptyTupleConverter$LT$T$GT$$u20$as$u20$core..ops..deref..Deref$GT$5deref17hfa6ce4e8b6723237E', symObjAddr: 0x1604, symBinAddr: 0xEF8C, symSize: 0x14 }
  - { offset: 0x1676F, size: 0x8, addend: 0x0, symName: '__ZN91_$LT$pyo3..impl_..wrap..EmptyTupleConverter$LT$T$GT$$u20$as$u20$core..ops..deref..Deref$GT$5deref17hfc59be243abc2893E', symObjAddr: 0x1618, symBinAddr: 0xEFA0, symSize: 0x14 }
  - { offset: 0x172DF, size: 0x8, addend: 0x0, symName: '__ZN4pyo35impl_4wrap30IntoPyObjectConverter$LT$T$GT$4wrap17h0ed6c949612e0cc0E', symObjAddr: 0x0, symBinAddr: 0xD988, symSize: 0x1C }
  - { offset: 0x1748B, size: 0x8, addend: 0x0, symName: '__ZN4pyo35impl_4wrap30IntoPyObjectConverter$LT$T$GT$4wrap17h1e21175509f749ecE', symObjAddr: 0x1C, symBinAddr: 0xD9A4, symSize: 0x24 }
  - { offset: 0x17662, size: 0x8, addend: 0x0, symName: '__ZN4pyo35impl_4wrap30IntoPyObjectConverter$LT$T$GT$4wrap17h24bc419eeae4edcaE', symObjAddr: 0x40, symBinAddr: 0xD9C8, symSize: 0x18 }
  - { offset: 0x176AF, size: 0x8, addend: 0x0, symName: '__ZN4pyo35impl_4wrap30IntoPyObjectConverter$LT$T$GT$4wrap17h5aedf611545058b9E', symObjAddr: 0x58, symBinAddr: 0xD9E0, symSize: 0x1C }
  - { offset: 0x176FC, size: 0x8, addend: 0x0, symName: '__ZN4pyo35impl_4wrap30IntoPyObjectConverter$LT$T$GT$4wrap17h61e76fb5601d4f3dE', symObjAddr: 0x74, symBinAddr: 0xD9FC, symSize: 0x24 }
  - { offset: 0x17776, size: 0x8, addend: 0x0, symName: '__ZN4pyo35impl_4wrap30IntoPyObjectConverter$LT$T$GT$4wrap17h645a16a82c9c63bcE', symObjAddr: 0x98, symBinAddr: 0xDA20, symSize: 0x20 }
  - { offset: 0x177DA, size: 0x8, addend: 0x0, symName: '__ZN4pyo35impl_4wrap30IntoPyObjectConverter$LT$T$GT$4wrap17h6549b51d86fa5369E', symObjAddr: 0xB8, symBinAddr: 0xDA40, symSize: 0x28 }
  - { offset: 0x17820, size: 0x8, addend: 0x0, symName: '__ZN4pyo35impl_4wrap30IntoPyObjectConverter$LT$T$GT$4wrap17h6c344744e800120aE', symObjAddr: 0xE0, symBinAddr: 0xDA68, symSize: 0x18 }
  - { offset: 0x17CE7, size: 0x8, addend: 0x0, symName: '__ZN4pyo35impl_4wrap30IntoPyObjectConverter$LT$T$GT$4wrap17h8746146dcd5e50deE', symObjAddr: 0xF8, symBinAddr: 0xDA80, symSize: 0x20 }
  - { offset: 0x17D34, size: 0x8, addend: 0x0, symName: '__ZN4pyo35impl_4wrap30IntoPyObjectConverter$LT$T$GT$4wrap17h982670dff0f4503dE', symObjAddr: 0x118, symBinAddr: 0xDAA0, symSize: 0x20 }
  - { offset: 0x17D7A, size: 0x8, addend: 0x0, symName: '__ZN4pyo35impl_4wrap30IntoPyObjectConverter$LT$T$GT$4wrap17hb2749d204e3ba1c0E', symObjAddr: 0x138, symBinAddr: 0xDAC0, symSize: 0x1C }
  - { offset: 0x17DC0, size: 0x8, addend: 0x0, symName: '__ZN4pyo35impl_4wrap30IntoPyObjectConverter$LT$T$GT$4wrap17hb5a11da28d4b198eE', symObjAddr: 0x154, symBinAddr: 0xDADC, symSize: 0x1C }
  - { offset: 0x17E06, size: 0x8, addend: 0x0, symName: '__ZN4pyo35impl_4wrap30IntoPyObjectConverter$LT$T$GT$4wrap17hd0a848fd13b38093E', symObjAddr: 0x170, symBinAddr: 0xDAF8, symSize: 0x24 }
  - { offset: 0x17E4C, size: 0x8, addend: 0x0, symName: '__ZN4pyo35impl_4wrap30IntoPyObjectConverter$LT$T$GT$4wrap17hfd8dd9ee703b63f5E', symObjAddr: 0x194, symBinAddr: 0xDB1C, symSize: 0x28 }
  - { offset: 0x18061, size: 0x8, addend: 0x0, symName: '__ZN4pyo35impl_4wrap62IntoPyObjectConverter$LT$core..result..Result$LT$T$C$E$GT$$GT$12map_into_ptr17h019378b686ca3b5bE', symObjAddr: 0x1BC, symBinAddr: 0xDB44, symSize: 0x44 }
  - { offset: 0x180C9, size: 0x8, addend: 0x0, symName: '__ZN4pyo35impl_4wrap62IntoPyObjectConverter$LT$core..result..Result$LT$T$C$E$GT$$GT$12map_into_ptr17h06b119391d963e5dE', symObjAddr: 0x200, symBinAddr: 0xDB88, symSize: 0x44 }
  - { offset: 0x18131, size: 0x8, addend: 0x0, symName: '__ZN4pyo35impl_4wrap62IntoPyObjectConverter$LT$core..result..Result$LT$T$C$E$GT$$GT$12map_into_ptr17h07efd9ee07903035E', symObjAddr: 0x244, symBinAddr: 0xDBCC, symSize: 0x44 }
  - { offset: 0x18199, size: 0x8, addend: 0x0, symName: '__ZN4pyo35impl_4wrap62IntoPyObjectConverter$LT$core..result..Result$LT$T$C$E$GT$$GT$12map_into_ptr17h0875dfcb5ea8d025E', symObjAddr: 0x288, symBinAddr: 0xDC10, symSize: 0x44 }
  - { offset: 0x18201, size: 0x8, addend: 0x0, symName: '__ZN4pyo35impl_4wrap62IntoPyObjectConverter$LT$core..result..Result$LT$T$C$E$GT$$GT$12map_into_ptr17h0908f43462c18224E', symObjAddr: 0x2CC, symBinAddr: 0xDC54, symSize: 0x44 }
  - { offset: 0x18276, size: 0x8, addend: 0x0, symName: '__ZN4pyo35impl_4wrap62IntoPyObjectConverter$LT$core..result..Result$LT$T$C$E$GT$$GT$12map_into_ptr17h0ec95deb0b428edfE', symObjAddr: 0x310, symBinAddr: 0xDC98, symSize: 0x44 }
  - { offset: 0x18312, size: 0x8, addend: 0x0, symName: '__ZN4pyo35impl_4wrap62IntoPyObjectConverter$LT$core..result..Result$LT$T$C$E$GT$$GT$12map_into_ptr17h131bb18a91ec0875E', symObjAddr: 0x354, symBinAddr: 0xDCDC, symSize: 0x44 }
  - { offset: 0x1837A, size: 0x8, addend: 0x0, symName: '__ZN4pyo35impl_4wrap62IntoPyObjectConverter$LT$core..result..Result$LT$T$C$E$GT$$GT$12map_into_ptr17h32dcbf11bc6b1245E', symObjAddr: 0x398, symBinAddr: 0xDD20, symSize: 0x44 }
  - { offset: 0x183E2, size: 0x8, addend: 0x0, symName: '__ZN4pyo35impl_4wrap62IntoPyObjectConverter$LT$core..result..Result$LT$T$C$E$GT$$GT$12map_into_ptr17h51113048df4d9471E', symObjAddr: 0x3DC, symBinAddr: 0xDD64, symSize: 0x44 }
  - { offset: 0x1844A, size: 0x8, addend: 0x0, symName: '__ZN4pyo35impl_4wrap62IntoPyObjectConverter$LT$core..result..Result$LT$T$C$E$GT$$GT$12map_into_ptr17h539536cd790d9addE', symObjAddr: 0x420, symBinAddr: 0xDDA8, symSize: 0x44 }
  - { offset: 0x18507, size: 0x8, addend: 0x0, symName: '__ZN4pyo35impl_4wrap62IntoPyObjectConverter$LT$core..result..Result$LT$T$C$E$GT$$GT$12map_into_ptr17h601a2772c50d892cE', symObjAddr: 0x464, symBinAddr: 0xDDEC, symSize: 0x44 }
  - { offset: 0x1858D, size: 0x8, addend: 0x0, symName: '__ZN4pyo35impl_4wrap62IntoPyObjectConverter$LT$core..result..Result$LT$T$C$E$GT$$GT$12map_into_ptr17h609abbfabf9e02ccE', symObjAddr: 0x4A8, symBinAddr: 0xDE30, symSize: 0x44 }
  - { offset: 0x185F5, size: 0x8, addend: 0x0, symName: '__ZN4pyo35impl_4wrap62IntoPyObjectConverter$LT$core..result..Result$LT$T$C$E$GT$$GT$12map_into_ptr17h76c06cd5c98ab5bbE', symObjAddr: 0x4EC, symBinAddr: 0xDE74, symSize: 0x44 }
  - { offset: 0x1865D, size: 0x8, addend: 0x0, symName: '__ZN4pyo35impl_4wrap62IntoPyObjectConverter$LT$core..result..Result$LT$T$C$E$GT$$GT$12map_into_ptr17h8aa07583c50e3190E', symObjAddr: 0x530, symBinAddr: 0xDEB8, symSize: 0x44 }
  - { offset: 0x186C5, size: 0x8, addend: 0x0, symName: '__ZN4pyo35impl_4wrap62IntoPyObjectConverter$LT$core..result..Result$LT$T$C$E$GT$$GT$12map_into_ptr17h8eb3af9667a6c6aeE', symObjAddr: 0x574, symBinAddr: 0xDEFC, symSize: 0x44 }
  - { offset: 0x1872D, size: 0x8, addend: 0x0, symName: '__ZN4pyo35impl_4wrap62IntoPyObjectConverter$LT$core..result..Result$LT$T$C$E$GT$$GT$12map_into_ptr17h8fb679933b195514E', symObjAddr: 0x5B8, symBinAddr: 0xDF40, symSize: 0x44 }
  - { offset: 0x18795, size: 0x8, addend: 0x0, symName: '__ZN4pyo35impl_4wrap62IntoPyObjectConverter$LT$core..result..Result$LT$T$C$E$GT$$GT$12map_into_ptr17h989fb75abc456a3cE', symObjAddr: 0x5FC, symBinAddr: 0xDF84, symSize: 0x44 }
  - { offset: 0x187FD, size: 0x8, addend: 0x0, symName: '__ZN4pyo35impl_4wrap62IntoPyObjectConverter$LT$core..result..Result$LT$T$C$E$GT$$GT$12map_into_ptr17ha648857f1cf0ea1fE', symObjAddr: 0x640, symBinAddr: 0xDFC8, symSize: 0x44 }
  - { offset: 0x18865, size: 0x8, addend: 0x0, symName: '__ZN4pyo35impl_4wrap62IntoPyObjectConverter$LT$core..result..Result$LT$T$C$E$GT$$GT$12map_into_ptr17had1f8febdc8afd93E', symObjAddr: 0x684, symBinAddr: 0xE00C, symSize: 0x44 }
  - { offset: 0x188CD, size: 0x8, addend: 0x0, symName: '__ZN4pyo35impl_4wrap62IntoPyObjectConverter$LT$core..result..Result$LT$T$C$E$GT$$GT$12map_into_ptr17hb8467dd9c38d9ad7E', symObjAddr: 0x6C8, symBinAddr: 0xE050, symSize: 0x44 }
  - { offset: 0x18935, size: 0x8, addend: 0x0, symName: '__ZN4pyo35impl_4wrap62IntoPyObjectConverter$LT$core..result..Result$LT$T$C$E$GT$$GT$12map_into_ptr17he2d37ab70d13b9a2E', symObjAddr: 0x70C, symBinAddr: 0xE094, symSize: 0x44 }
  - { offset: 0x1899D, size: 0x8, addend: 0x0, symName: '__ZN4pyo35impl_4wrap62IntoPyObjectConverter$LT$core..result..Result$LT$T$C$E$GT$$GT$12map_into_ptr17he59e69a00b28489dE', symObjAddr: 0x750, symBinAddr: 0xE0D8, symSize: 0x44 }
  - { offset: 0x18A05, size: 0x8, addend: 0x0, symName: '__ZN4pyo35impl_4wrap62IntoPyObjectConverter$LT$core..result..Result$LT$T$C$E$GT$$GT$12map_into_ptr17he693fae4da366ddeE', symObjAddr: 0x794, symBinAddr: 0xE11C, symSize: 0x44 }
  - { offset: 0x18A60, size: 0x8, addend: 0x0, symName: '__ZN4pyo35impl_4wrap62IntoPyObjectConverter$LT$core..result..Result$LT$T$C$E$GT$$GT$4wrap17h08205204503c5443E', symObjAddr: 0xBA4, symBinAddr: 0xE52C, symSize: 0x34 }
  - { offset: 0x18AA3, size: 0x8, addend: 0x0, symName: '__ZN4pyo35impl_4wrap62IntoPyObjectConverter$LT$core..result..Result$LT$T$C$E$GT$$GT$4wrap17h3820dce82bba00eeE', symObjAddr: 0xBD8, symBinAddr: 0xE560, symSize: 0x34 }
  - { offset: 0x18AE6, size: 0x8, addend: 0x0, symName: '__ZN4pyo35impl_4wrap62IntoPyObjectConverter$LT$core..result..Result$LT$T$C$E$GT$$GT$4wrap17h5b4ee110a253d7ecE', symObjAddr: 0xC0C, symBinAddr: 0xE594, symSize: 0x34 }
  - { offset: 0x18B29, size: 0x8, addend: 0x0, symName: '__ZN4pyo35impl_4wrap62IntoPyObjectConverter$LT$core..result..Result$LT$T$C$E$GT$$GT$4wrap17h72b4cdb8ee20305bE', symObjAddr: 0xC40, symBinAddr: 0xE5C8, symSize: 0x34 }
  - { offset: 0x18B6C, size: 0x8, addend: 0x0, symName: '__ZN4pyo35impl_4wrap62IntoPyObjectConverter$LT$core..result..Result$LT$T$C$E$GT$$GT$4wrap17h7ac5292013f17c05E', symObjAddr: 0xC74, symBinAddr: 0xE5FC, symSize: 0x34 }
  - { offset: 0x18BAF, size: 0x8, addend: 0x0, symName: '__ZN4pyo35impl_4wrap62IntoPyObjectConverter$LT$core..result..Result$LT$T$C$E$GT$$GT$4wrap17h98bb5211da9599edE', symObjAddr: 0xCA8, symBinAddr: 0xE630, symSize: 0x34 }
  - { offset: 0x18BF2, size: 0x8, addend: 0x0, symName: '__ZN4pyo35impl_4wrap62IntoPyObjectConverter$LT$core..result..Result$LT$T$C$E$GT$$GT$4wrap17hafaf3aec080ea75aE', symObjAddr: 0xCDC, symBinAddr: 0xE664, symSize: 0x34 }
  - { offset: 0x18C35, size: 0x8, addend: 0x0, symName: '__ZN4pyo35impl_4wrap62IntoPyObjectConverter$LT$core..result..Result$LT$T$C$E$GT$$GT$4wrap17hd5b90566d1311aa0E', symObjAddr: 0xD10, symBinAddr: 0xE698, symSize: 0x34 }
  - { offset: 0x18C78, size: 0x8, addend: 0x0, symName: '__ZN4pyo35impl_4wrap62IntoPyObjectConverter$LT$core..result..Result$LT$T$C$E$GT$$GT$4wrap17he16f8fe3eca5b9c7E', symObjAddr: 0xD44, symBinAddr: 0xE6CC, symSize: 0x34 }
  - { offset: 0x18CBB, size: 0x8, addend: 0x0, symName: '__ZN4pyo35impl_4wrap62IntoPyObjectConverter$LT$core..result..Result$LT$T$C$E$GT$$GT$4wrap17hecf8d08d835c5317E', symObjAddr: 0xD78, symBinAddr: 0xE700, symSize: 0x34 }
  - { offset: 0x18CFE, size: 0x8, addend: 0x0, symName: '__ZN4pyo35impl_4wrap62IntoPyObjectConverter$LT$core..result..Result$LT$T$C$E$GT$$GT$4wrap17hfaf579c9261102daE', symObjAddr: 0xDAC, symBinAddr: 0xE734, symSize: 0x34 }
  - { offset: 0x18D41, size: 0x8, addend: 0x0, symName: '__ZN4pyo35impl_4wrap62IntoPyObjectConverter$LT$core..result..Result$LT$T$C$E$GT$$GT$4wrap17hfc770168e8b22d21E', symObjAddr: 0xDE0, symBinAddr: 0xE768, symSize: 0x34 }
  - { offset: 0x19352, size: 0x8, addend: 0x0, symName: __ZN4core9ub_checks17is_nonoverlapping7runtime17h0d9c16f56d89b70cE, symObjAddr: 0x0, symBinAddr: 0xEFB4, symSize: 0xE4 }
  - { offset: 0x194CD, size: 0x8, addend: 0x0, symName: __ZN4core9ub_checks17is_nonoverlapping7runtime17h0d9c16f56d89b70cE, symObjAddr: 0x0, symBinAddr: 0xEFB4, symSize: 0xE4 }
  - { offset: 0x196DA, size: 0x8, addend: 0x0, symName: '__ZN87_$LT$$BP$mut$u20$pyo3_ffi..object..PyObject$u20$as$u20$pyo3..ffi_ptr_ext..FfiPtrExt$GT$12assume_owned17h7e7b23618032197aE', symObjAddr: 0x0, symBinAddr: 0xF098, symSize: 0x24 }
  - { offset: 0x1972D, size: 0x8, addend: 0x0, symName: __ZN8pyo3_ffi6object10Py_IS_TYPE17h3ff1f352f520a919E, symObjAddr: 0x90, symBinAddr: 0xF128, symSize: 0x38 }
  - { offset: 0x19767, size: 0x8, addend: 0x0, symName: __ZN8pyo3_ffi6object18PyObject_TypeCheck17h28db3d4ecb1d22afE, symObjAddr: 0xC8, symBinAddr: 0xF160, symSize: 0x70 }
  - { offset: 0x197A4, size: 0x8, addend: 0x0, symName: __ZN8pyo3_ffi6object7Py_None17hca92ddcef46ef5dbE, symObjAddr: 0x138, symBinAddr: 0xF1D0, symSize: 0xC }
  - { offset: 0x197C2, size: 0x8, addend: 0x0, symName: __ZN8pyo3_ffi6object7Py_TYPE17hafd6ed191a153789E, symObjAddr: 0x144, symBinAddr: 0xF1DC, symSize: 0x54 }
  - { offset: 0x1A986, size: 0x8, addend: 0x0, symName: '__ZN87_$LT$$BP$mut$u20$pyo3_ffi..object..PyObject$u20$as$u20$pyo3..ffi_ptr_ext..FfiPtrExt$GT$12assume_owned17h7e7b23618032197aE', symObjAddr: 0x0, symBinAddr: 0xF098, symSize: 0x24 }
  - { offset: 0x1A9CA, size: 0x8, addend: 0x0, symName: '__ZN87_$LT$$BP$mut$u20$pyo3_ffi..object..PyObject$u20$as$u20$pyo3..ffi_ptr_ext..FfiPtrExt$GT$15assume_borrowed17h1ea853e0574f7e68E', symObjAddr: 0x24, symBinAddr: 0xF0BC, symSize: 0x24 }
  - { offset: 0x1AA0E, size: 0x8, addend: 0x0, symName: '__ZN87_$LT$$BP$mut$u20$pyo3_ffi..object..PyObject$u20$as$u20$pyo3..ffi_ptr_ext..FfiPtrExt$GT$22assume_borrowed_or_opt17hd239c3fbe3d5a3c5E', symObjAddr: 0x48, symBinAddr: 0xF0E0, symSize: 0x24 }
  - { offset: 0x1AA52, size: 0x8, addend: 0x0, symName: '__ZN87_$LT$$BP$mut$u20$pyo3_ffi..object..PyObject$u20$as$u20$pyo3..ffi_ptr_ext..FfiPtrExt$GT$25assume_borrowed_unchecked17h74674f3f1ea45ca4E', symObjAddr: 0x6C, symBinAddr: 0xF104, symSize: 0x24 }
  - { offset: 0x1B09B, size: 0x8, addend: 0x0, symName: __ZN8pyo3_ffi7cpython10listobject15PyList_SET_ITEM17h457e99dc6db84ca8E, symObjAddr: 0x0, symBinAddr: 0xF230, symSize: 0xC8 }
  - { offset: 0x1B67D, size: 0x8, addend: 0x0, symName: __ZN8pyo3_ffi7cpython10listobject15PyList_SET_ITEM17h457e99dc6db84ca8E, symObjAddr: 0x0, symBinAddr: 0xF230, symSize: 0xC8 }
  - { offset: 0x1C655, size: 0x8, addend: 0x0, symName: __ZN4pyo35types10typeobject6PyType22from_borrowed_type_ptr17hd024267c62b4536dE, symObjAddr: 0x0, symBinAddr: 0xF2F8, symSize: 0x34 }
  - { offset: 0x1DD9A, size: 0x8, addend: 0x0, symName: __ZN4pyo35types10typeobject6PyType22from_borrowed_type_ptr17hd024267c62b4536dE, symObjAddr: 0x0, symBinAddr: 0xF2F8, symSize: 0x34 }
  - { offset: 0x1DDF2, size: 0x8, addend: 0x0, symName: __ZN3std4sync4once4Once15call_once_force17ha3eb02b7cad6b228E, symObjAddr: 0x0, symBinAddr: 0xF32C, symSize: 0x10C }
  - { offset: 0x1DE26, size: 0x8, addend: 0x0, symName: '__ZN3std4sync4once4Once15call_once_force28_$u7b$$u7b$closure$u7d$$u7d$17h0f2b9691d61864d3E', symObjAddr: 0x10C, symBinAddr: 0xF438, symSize: 0x90 }
  - { offset: 0x1E529, size: 0x8, addend: 0x0, symName: __ZN3std4sync4once4Once15call_once_force17ha3eb02b7cad6b228E, symObjAddr: 0x0, symBinAddr: 0xF32C, symSize: 0x10C }
  - { offset: 0x1E657, size: 0x8, addend: 0x0, symName: '__ZN4pyo35types10boolobject65_$LT$impl$u20$pyo3..conversion..IntoPyObject$u20$for$u20$bool$GT$13into_pyobject17h52c9a3e249c78a87E', symObjAddr: 0x0, symBinAddr: 0xF4C8, symSize: 0x28 }
  - { offset: 0x1F845, size: 0x8, addend: 0x0, symName: '__ZN4pyo35types10boolobject65_$LT$impl$u20$pyo3..conversion..IntoPyObject$u20$for$u20$bool$GT$13into_pyobject17h52c9a3e249c78a87E', symObjAddr: 0x0, symBinAddr: 0xF4C8, symSize: 0x28 }
  - { offset: 0x1FE77, size: 0x8, addend: 0x0, symName: __ZN4pyo35types10boolobject6PyBool3new17hc90565819e459170E, symObjAddr: 0x28, symBinAddr: 0xF4F0, symSize: 0x50 }
  - { offset: 0x1FECF, size: 0x8, addend: 0x0, symName: __ZN8pyo3_ffi7cpython11tupleobject16PyTuple_SET_ITEM17h4ed7fb1de42f4274E, symObjAddr: 0x0, symBinAddr: 0xF540, symSize: 0xA8 }
  - { offset: 0x204B1, size: 0x8, addend: 0x0, symName: __ZN8pyo3_ffi7cpython11tupleobject16PyTuple_SET_ITEM17h4ed7fb1de42f4274E, symObjAddr: 0x0, symBinAddr: 0xF540, symSize: 0xA8 }
  - { offset: 0x21489, size: 0x8, addend: 0x0, symName: '__ZN4pyo34sync20GILOnceCell$LT$T$GT$15get_or_try_init17h11ecd0f1bd3f7206E', symObjAddr: 0x0, symBinAddr: 0xF5E8, symSize: 0xB8 }
  - { offset: 0x23076, size: 0x8, addend: 0x0, symName: '__ZN4pyo34sync20GILOnceCell$LT$T$GT$3set28_$u7b$$u7b$closure$u7d$$u7d$17hcc8babdf46b8f884E', symObjAddr: 0x794, symBinAddr: 0xFD7C, symSize: 0xA8 }
  - { offset: 0x23B5B, size: 0x8, addend: 0x0, symName: '__ZN4pyo34sync20GILOnceCell$LT$T$GT$15get_or_try_init17h11ecd0f1bd3f7206E', symObjAddr: 0x0, symBinAddr: 0xF5E8, symSize: 0xB8 }
  - { offset: 0x23BD3, size: 0x8, addend: 0x0, symName: '__ZN4pyo34sync20GILOnceCell$LT$T$GT$15get_or_try_init17h1410df0200b4b22fE', symObjAddr: 0xB8, symBinAddr: 0xF6A0, symSize: 0xB8 }
  - { offset: 0x23C4B, size: 0x8, addend: 0x0, symName: '__ZN4pyo34sync20GILOnceCell$LT$T$GT$15get_or_try_init17h44ee03115542475eE', symObjAddr: 0x170, symBinAddr: 0xF758, symSize: 0xB8 }
  - { offset: 0x23CC3, size: 0x8, addend: 0x0, symName: '__ZN4pyo34sync20GILOnceCell$LT$T$GT$15get_or_try_init17h45771bb9e5208544E', symObjAddr: 0x228, symBinAddr: 0xF810, symSize: 0xB8 }
  - { offset: 0x23D3B, size: 0x8, addend: 0x0, symName: '__ZN4pyo34sync20GILOnceCell$LT$T$GT$15get_or_try_init17h7e9582f92615c4a9E', symObjAddr: 0x2E0, symBinAddr: 0xF8C8, symSize: 0xB8 }
  - { offset: 0x23DB3, size: 0x8, addend: 0x0, symName: '__ZN4pyo34sync20GILOnceCell$LT$T$GT$15get_or_try_init17h9ac71a1578d56c05E', symObjAddr: 0x398, symBinAddr: 0xF980, symSize: 0xB8 }
  - { offset: 0x23E2B, size: 0x8, addend: 0x0, symName: '__ZN4pyo34sync20GILOnceCell$LT$T$GT$15get_or_try_init17hd255875e1be28e99E', symObjAddr: 0x450, symBinAddr: 0xFA38, symSize: 0xB8 }
  - { offset: 0x23EA3, size: 0x8, addend: 0x0, symName: '__ZN4pyo34sync20GILOnceCell$LT$T$GT$15get_or_try_init17hd47984667f217c22E', symObjAddr: 0x508, symBinAddr: 0xFAF0, symSize: 0xB8 }
  - { offset: 0x23F1B, size: 0x8, addend: 0x0, symName: '__ZN4pyo34sync20GILOnceCell$LT$T$GT$15get_or_try_init17hea0645a19d731596E', symObjAddr: 0x5C0, symBinAddr: 0xFBA8, symSize: 0xB8 }
  - { offset: 0x23F93, size: 0x8, addend: 0x0, symName: '__ZN4pyo34sync20GILOnceCell$LT$T$GT$3get17h3c8e5d894ed79dc8E', symObjAddr: 0x678, symBinAddr: 0xFC60, symSize: 0x58 }
  - { offset: 0x23FD6, size: 0x8, addend: 0x0, symName: '__ZN4pyo34sync20GILOnceCell$LT$T$GT$3set17h5899b3576ada6a00E', symObjAddr: 0x6D0, symBinAddr: 0xFCB8, symSize: 0xC4 }
  - { offset: 0x24155, size: 0x8, addend: 0x0, symName: '__ZN4pyo34sync20GILOnceCell$LT$T$GT$4init17h021cc18ec563988dE', symObjAddr: 0x83C, symBinAddr: 0xACA8C, symSize: 0x180 }
  - { offset: 0x24226, size: 0x8, addend: 0x0, symName: '__ZN4pyo34sync20GILOnceCell$LT$T$GT$4init17h228c85c9c610d2d2E', symObjAddr: 0x9BC, symBinAddr: 0xACC0C, symSize: 0x180 }
  - { offset: 0x242F7, size: 0x8, addend: 0x0, symName: '__ZN4pyo34sync20GILOnceCell$LT$T$GT$4init17h694e881a6fd0d1c4E', symObjAddr: 0xB3C, symBinAddr: 0xACD8C, symSize: 0x180 }
  - { offset: 0x243C8, size: 0x8, addend: 0x0, symName: '__ZN4pyo34sync20GILOnceCell$LT$T$GT$4init17h76840fab0fa5596dE', symObjAddr: 0xCBC, symBinAddr: 0xACF0C, symSize: 0x180 }
  - { offset: 0x24499, size: 0x8, addend: 0x0, symName: '__ZN4pyo34sync20GILOnceCell$LT$T$GT$4init17ha9fe18561f317699E', symObjAddr: 0xE3C, symBinAddr: 0xAD08C, symSize: 0x180 }
  - { offset: 0x2456A, size: 0x8, addend: 0x0, symName: '__ZN4pyo34sync20GILOnceCell$LT$T$GT$4init17hc11fc71a104a246eE', symObjAddr: 0xFBC, symBinAddr: 0xAD20C, symSize: 0x180 }
  - { offset: 0x2463B, size: 0x8, addend: 0x0, symName: '__ZN4pyo34sync20GILOnceCell$LT$T$GT$4init17hd9ff687d18882b3bE', symObjAddr: 0x113C, symBinAddr: 0xAD38C, symSize: 0x180 }
  - { offset: 0x2470C, size: 0x8, addend: 0x0, symName: '__ZN4pyo34sync20GILOnceCell$LT$T$GT$4init17he7ed1bfdc47acd9fE', symObjAddr: 0x12BC, symBinAddr: 0xAD50C, symSize: 0x180 }
  - { offset: 0x247DD, size: 0x8, addend: 0x0, symName: '__ZN4pyo34sync20GILOnceCell$LT$T$GT$4init17hfa0c96ac8dba6a66E', symObjAddr: 0x143C, symBinAddr: 0xAD68C, symSize: 0x180 }
  - { offset: 0x248E0, size: 0x8, addend: 0x0, symName: '__ZN4core3ptr9const_ptr33_$LT$impl$u20$$BP$const$u20$T$GT$6offset18precondition_check17h13901ebc7c93f3a1E', symObjAddr: 0x0, symBinAddr: 0xFE24, symSize: 0xB8 }
  - { offset: 0x24995, size: 0x8, addend: 0x0, symName: '__ZN4core3ptr9const_ptr33_$LT$impl$u20$$BP$const$u20$T$GT$6offset18precondition_check17h13901ebc7c93f3a1E', symObjAddr: 0x0, symBinAddr: 0xFE24, symSize: 0xB8 }
  - { offset: 0x24BA7, size: 0x8, addend: 0x0, symName: '__ZN4core3ptr9const_ptr33_$LT$impl$u20$$BP$const$u20$T$GT$7sub_ptr18precondition_check17h3d61a64909e62ed6E', symObjAddr: 0xB8, symBinAddr: 0xFEDC, symSize: 0x40 }
  - { offset: 0x24E01, size: 0x8, addend: 0x0, symName: '__ZN100_$LT$pyo3..types..tuple..BorrowedTupleIterator$u20$as$u20$core..iter..traits..iterator..Iterator$GT$4next17h041eac98ab716542E', symObjAddr: 0x0, symBinAddr: 0xFF1C, symSize: 0x9C }
  - { offset: 0x25FEB, size: 0x8, addend: 0x0, symName: '__ZN100_$LT$pyo3..types..tuple..BorrowedTupleIterator$u20$as$u20$core..iter..traits..iterator..Iterator$GT$4next17h041eac98ab716542E', symObjAddr: 0x0, symBinAddr: 0xFF1C, symSize: 0x9C }
  - { offset: 0x266C1, size: 0x8, addend: 0x0, symName: '__ZN4pyo36pycell14PyRef$LT$T$GT$10try_borrow17h2587468c4c97ce0dE', symObjAddr: 0x0, symBinAddr: 0xFFB8, symSize: 0x4C }
  - { offset: 0x2857D, size: 0x8, addend: 0x0, symName: '__ZN50_$LT$T$u20$as$u20$core..convert..Into$LT$U$GT$$GT$4into17h4ddd00774484bbe6E', symObjAddr: 0x3F0, symBinAddr: 0x103A8, symSize: 0x1C }
  - { offset: 0x28ADA, size: 0x8, addend: 0x0, symName: '__ZN4pyo36pycell14PyRef$LT$T$GT$10try_borrow28_$u7b$$u7b$closure$u7d$$u7d$17h09591d6ee694523aE', symObjAddr: 0x2AC, symBinAddr: 0x10264, symSize: 0x24 }
  - { offset: 0x28B1E, size: 0x8, addend: 0x0, symName: '__ZN4pyo36pycell14PyRef$LT$T$GT$10try_borrow28_$u7b$$u7b$closure$u7d$$u7d$17h1adeda1e6218decdE', symObjAddr: 0x2D0, symBinAddr: 0x10288, symSize: 0x24 }
  - { offset: 0x28B62, size: 0x8, addend: 0x0, symName: '__ZN4pyo36pycell14PyRef$LT$T$GT$10try_borrow28_$u7b$$u7b$closure$u7d$$u7d$17h362e79c6fe8a6e85E', symObjAddr: 0x2F4, symBinAddr: 0x102AC, symSize: 0x24 }
  - { offset: 0x28BA6, size: 0x8, addend: 0x0, symName: '__ZN4pyo36pycell14PyRef$LT$T$GT$10try_borrow28_$u7b$$u7b$closure$u7d$$u7d$17h515d4f3a07d7ae51E', symObjAddr: 0x318, symBinAddr: 0x102D0, symSize: 0x24 }
  - { offset: 0x28BEA, size: 0x8, addend: 0x0, symName: '__ZN4pyo36pycell14PyRef$LT$T$GT$10try_borrow28_$u7b$$u7b$closure$u7d$$u7d$17h5193e8bc67c860ddE', symObjAddr: 0x33C, symBinAddr: 0x102F4, symSize: 0x24 }
  - { offset: 0x28C2E, size: 0x8, addend: 0x0, symName: '__ZN4pyo36pycell14PyRef$LT$T$GT$10try_borrow28_$u7b$$u7b$closure$u7d$$u7d$17h56fffcc169ed8591E', symObjAddr: 0x360, symBinAddr: 0x10318, symSize: 0x24 }
  - { offset: 0x28C72, size: 0x8, addend: 0x0, symName: '__ZN4pyo36pycell14PyRef$LT$T$GT$10try_borrow28_$u7b$$u7b$closure$u7d$$u7d$17hd129e0648f7cc907E', symObjAddr: 0x384, symBinAddr: 0x1033C, symSize: 0x24 }
  - { offset: 0x28CB6, size: 0x8, addend: 0x0, symName: '__ZN4pyo36pycell14PyRef$LT$T$GT$10try_borrow28_$u7b$$u7b$closure$u7d$$u7d$17he2d02ff944df511cE', symObjAddr: 0x3A8, symBinAddr: 0x10360, symSize: 0x24 }
  - { offset: 0x28CFA, size: 0x8, addend: 0x0, symName: '__ZN4pyo36pycell14PyRef$LT$T$GT$10try_borrow28_$u7b$$u7b$closure$u7d$$u7d$17he94efee3f798ad40E', symObjAddr: 0x3CC, symBinAddr: 0x10384, symSize: 0x24 }
  - { offset: 0x28D45, size: 0x8, addend: 0x0, symName: '__ZN72_$LT$pyo3..pycell..PyRef$LT$T$GT$$u20$as$u20$core..ops..deref..Deref$GT$5deref17h4fa101d3a5003084E', symObjAddr: 0x5E0, symBinAddr: 0x10598, symSize: 0x28 }
  - { offset: 0x28D7C, size: 0x8, addend: 0x0, symName: '__ZN72_$LT$pyo3..pycell..PyRef$LT$T$GT$$u20$as$u20$core..ops..deref..Deref$GT$5deref17h51e1ecb1f4b8b291E', symObjAddr: 0x608, symBinAddr: 0x105C0, symSize: 0x28 }
  - { offset: 0x28DB3, size: 0x8, addend: 0x0, symName: '__ZN72_$LT$pyo3..pycell..PyRef$LT$T$GT$$u20$as$u20$core..ops..deref..Deref$GT$5deref17h563471ce708276f7E', symObjAddr: 0x630, symBinAddr: 0x105E8, symSize: 0x28 }
  - { offset: 0x28DEA, size: 0x8, addend: 0x0, symName: '__ZN72_$LT$pyo3..pycell..PyRef$LT$T$GT$$u20$as$u20$core..ops..deref..Deref$GT$5deref17ha4e7e1c3f97e1352E', symObjAddr: 0x658, symBinAddr: 0x10610, symSize: 0x28 }
  - { offset: 0x28E21, size: 0x8, addend: 0x0, symName: '__ZN72_$LT$pyo3..pycell..PyRef$LT$T$GT$$u20$as$u20$core..ops..deref..Deref$GT$5deref17hbc9b407bb1a06c2fE', symObjAddr: 0x680, symBinAddr: 0x10638, symSize: 0x28 }
  - { offset: 0x28E58, size: 0x8, addend: 0x0, symName: '__ZN72_$LT$pyo3..pycell..PyRef$LT$T$GT$$u20$as$u20$core..ops..deref..Deref$GT$5deref17hc8907ee9e8744c53E', symObjAddr: 0x6A8, symBinAddr: 0x10660, symSize: 0x28 }
  - { offset: 0x28E8F, size: 0x8, addend: 0x0, symName: '__ZN72_$LT$pyo3..pycell..PyRef$LT$T$GT$$u20$as$u20$core..ops..deref..Deref$GT$5deref17hd6a5e9ea5efd83dcE', symObjAddr: 0x6D0, symBinAddr: 0x10688, symSize: 0x28 }
  - { offset: 0x28EC6, size: 0x8, addend: 0x0, symName: '__ZN72_$LT$pyo3..pycell..PyRef$LT$T$GT$$u20$as$u20$core..ops..deref..Deref$GT$5deref17hee7d5b64ca6302acE', symObjAddr: 0x6F8, symBinAddr: 0x106B0, symSize: 0x28 }
  - { offset: 0x28EFD, size: 0x8, addend: 0x0, symName: '__ZN72_$LT$pyo3..pycell..PyRef$LT$T$GT$$u20$as$u20$core..ops..deref..Deref$GT$5deref17hfb03fea0cc599946E', symObjAddr: 0x720, symBinAddr: 0x106D8, symSize: 0x28 }
  - { offset: 0x29920, size: 0x8, addend: 0x0, symName: '__ZN57_$LT$T$u20$as$u20$pyo3..conversion..FromPyObjectBound$GT$20from_py_object_bound17h068a99bbed52929fE', symObjAddr: 0x40C, symBinAddr: 0x103C4, symSize: 0x34 }
  - { offset: 0x29957, size: 0x8, addend: 0x0, symName: '__ZN57_$LT$T$u20$as$u20$pyo3..conversion..FromPyObjectBound$GT$20from_py_object_bound17h21349af1b6e85de8E', symObjAddr: 0x440, symBinAddr: 0x103F8, symSize: 0x34 }
  - { offset: 0x2998E, size: 0x8, addend: 0x0, symName: '__ZN57_$LT$T$u20$as$u20$pyo3..conversion..FromPyObjectBound$GT$20from_py_object_bound17h23841fea4645b981E', symObjAddr: 0x474, symBinAddr: 0x1042C, symSize: 0x34 }
  - { offset: 0x299C5, size: 0x8, addend: 0x0, symName: '__ZN57_$LT$T$u20$as$u20$pyo3..conversion..FromPyObjectBound$GT$20from_py_object_bound17h35e86cb0ca3d2aaeE', symObjAddr: 0x4A8, symBinAddr: 0x10460, symSize: 0x34 }
  - { offset: 0x299FC, size: 0x8, addend: 0x0, symName: '__ZN57_$LT$T$u20$as$u20$pyo3..conversion..FromPyObjectBound$GT$20from_py_object_bound17h3f85ff2429e748f0E', symObjAddr: 0x4DC, symBinAddr: 0x10494, symSize: 0x34 }
  - { offset: 0x29A33, size: 0x8, addend: 0x0, symName: '__ZN57_$LT$T$u20$as$u20$pyo3..conversion..FromPyObjectBound$GT$20from_py_object_bound17h7c5adb4944fbda90E', symObjAddr: 0x510, symBinAddr: 0x104C8, symSize: 0x34 }
  - { offset: 0x29A6A, size: 0x8, addend: 0x0, symName: '__ZN57_$LT$T$u20$as$u20$pyo3..conversion..FromPyObjectBound$GT$20from_py_object_bound17h8a793dbb6eb03abeE', symObjAddr: 0x544, symBinAddr: 0x104FC, symSize: 0x34 }
  - { offset: 0x29AA1, size: 0x8, addend: 0x0, symName: '__ZN57_$LT$T$u20$as$u20$pyo3..conversion..FromPyObjectBound$GT$20from_py_object_bound17hd7cfa5238e6ef963E', symObjAddr: 0x578, symBinAddr: 0x10530, symSize: 0x34 }
  - { offset: 0x29AD8, size: 0x8, addend: 0x0, symName: '__ZN57_$LT$T$u20$as$u20$pyo3..conversion..FromPyObjectBound$GT$20from_py_object_bound17hf8dde79d960f5bbfE', symObjAddr: 0x5AC, symBinAddr: 0x10564, symSize: 0x34 }
  - { offset: 0x29B15, size: 0x8, addend: 0x0, symName: '__ZN79_$LT$pyo3..pycell..PyRef$LT$T$GT$$u20$as$u20$pyo3..conversion..FromPyObject$GT$13extract_bound17h38d96771027fcf2bE', symObjAddr: 0x748, symBinAddr: 0x10700, symSize: 0x94 }
  - { offset: 0x29B6A, size: 0x8, addend: 0x0, symName: '__ZN79_$LT$pyo3..pycell..PyRef$LT$T$GT$$u20$as$u20$pyo3..conversion..FromPyObject$GT$13extract_bound17h58a013a7d0002015E', symObjAddr: 0x7DC, symBinAddr: 0x10794, symSize: 0x94 }
  - { offset: 0x29BBF, size: 0x8, addend: 0x0, symName: '__ZN79_$LT$pyo3..pycell..PyRef$LT$T$GT$$u20$as$u20$pyo3..conversion..FromPyObject$GT$13extract_bound17h6319781cedb30267E', symObjAddr: 0x870, symBinAddr: 0x10828, symSize: 0x94 }
  - { offset: 0x29C14, size: 0x8, addend: 0x0, symName: '__ZN79_$LT$pyo3..pycell..PyRef$LT$T$GT$$u20$as$u20$pyo3..conversion..FromPyObject$GT$13extract_bound17h6f5c25f7d296a626E', symObjAddr: 0x904, symBinAddr: 0x108BC, symSize: 0x94 }
  - { offset: 0x29C69, size: 0x8, addend: 0x0, symName: '__ZN79_$LT$pyo3..pycell..PyRef$LT$T$GT$$u20$as$u20$pyo3..conversion..FromPyObject$GT$13extract_bound17h7efd7d3f9cba5a39E', symObjAddr: 0x998, symBinAddr: 0x10950, symSize: 0x94 }
  - { offset: 0x29CBE, size: 0x8, addend: 0x0, symName: '__ZN79_$LT$pyo3..pycell..PyRef$LT$T$GT$$u20$as$u20$pyo3..conversion..FromPyObject$GT$13extract_bound17hb1011e406b34afa0E', symObjAddr: 0xA2C, symBinAddr: 0x109E4, symSize: 0x94 }
  - { offset: 0x29D13, size: 0x8, addend: 0x0, symName: '__ZN79_$LT$pyo3..pycell..PyRef$LT$T$GT$$u20$as$u20$pyo3..conversion..FromPyObject$GT$13extract_bound17hb31767fe6d506ffbE', symObjAddr: 0xAC0, symBinAddr: 0x10A78, symSize: 0x94 }
  - { offset: 0x29D68, size: 0x8, addend: 0x0, symName: '__ZN79_$LT$pyo3..pycell..PyRef$LT$T$GT$$u20$as$u20$pyo3..conversion..FromPyObject$GT$13extract_bound17hc98282b1a2f8b3fbE', symObjAddr: 0xB54, symBinAddr: 0x10B0C, symSize: 0x94 }
  - { offset: 0x29DBD, size: 0x8, addend: 0x0, symName: '__ZN79_$LT$pyo3..pycell..PyRef$LT$T$GT$$u20$as$u20$pyo3..conversion..FromPyObject$GT$13extract_bound17he71e1dd3be85b09eE', symObjAddr: 0xBE8, symBinAddr: 0x10BA0, symSize: 0x94 }
  - { offset: 0x2A564, size: 0x8, addend: 0x0, symName: '__ZN4pyo36pycell14PyRef$LT$T$GT$10try_borrow17h2587468c4c97ce0dE', symObjAddr: 0x0, symBinAddr: 0xFFB8, symSize: 0x4C }
  - { offset: 0x2A5C8, size: 0x8, addend: 0x0, symName: '__ZN4pyo36pycell14PyRef$LT$T$GT$10try_borrow17h66ff679aba8254ccE', symObjAddr: 0x4C, symBinAddr: 0x10004, symSize: 0x4C }
  - { offset: 0x2A61F, size: 0x8, addend: 0x0, symName: '__ZN4pyo36pycell14PyRef$LT$T$GT$10try_borrow17h8d53832d9f8f2bbaE', symObjAddr: 0x98, symBinAddr: 0x10050, symSize: 0x4C }
  - { offset: 0x2A676, size: 0x8, addend: 0x0, symName: '__ZN4pyo36pycell14PyRef$LT$T$GT$10try_borrow17ha125570e819197b7E', symObjAddr: 0xE4, symBinAddr: 0x1009C, symSize: 0x4C }
  - { offset: 0x2A6CD, size: 0x8, addend: 0x0, symName: '__ZN4pyo36pycell14PyRef$LT$T$GT$10try_borrow17hbe531d3b022c5517E', symObjAddr: 0x130, symBinAddr: 0x100E8, symSize: 0x4C }
  - { offset: 0x2A724, size: 0x8, addend: 0x0, symName: '__ZN4pyo36pycell14PyRef$LT$T$GT$10try_borrow17hcded0db9e50187eeE', symObjAddr: 0x17C, symBinAddr: 0x10134, symSize: 0x4C }
  - { offset: 0x2A77B, size: 0x8, addend: 0x0, symName: '__ZN4pyo36pycell14PyRef$LT$T$GT$10try_borrow17he2a1c646748f4a08E', symObjAddr: 0x1C8, symBinAddr: 0x10180, symSize: 0x4C }
  - { offset: 0x2A7D2, size: 0x8, addend: 0x0, symName: '__ZN4pyo36pycell14PyRef$LT$T$GT$10try_borrow17hf5c532dc86552fd1E', symObjAddr: 0x214, symBinAddr: 0x101CC, symSize: 0x4C }
  - { offset: 0x2A829, size: 0x8, addend: 0x0, symName: '__ZN4pyo36pycell14PyRef$LT$T$GT$10try_borrow17hfa8cbab46180a17aE', symObjAddr: 0x260, symBinAddr: 0x10218, symSize: 0x4C }
  - { offset: 0x2AD73, size: 0x8, addend: 0x0, symName: __ZN4core10intrinsics19copy_nonoverlapping18precondition_check17h845e7c89ba2912cbE, symObjAddr: 0x0, symBinAddr: 0x10C34, symSize: 0x1EC }
  - { offset: 0x2B27B, size: 0x8, addend: 0x0, symName: __ZN4core10intrinsics19copy_nonoverlapping18precondition_check17h845e7c89ba2912cbE, symObjAddr: 0x0, symBinAddr: 0x10C34, symSize: 0x1EC }
  - { offset: 0x2B682, size: 0x8, addend: 0x0, symName: '__ZN106_$LT$pyo3..impl_..extract_argument..NoVarargs$u20$as$u20$pyo3..impl_..extract_argument..VarargsHandler$GT$23handle_varargs_fastcall17h7a1ba56585cefc50E', symObjAddr: 0x0, symBinAddr: 0x10E20, symSize: 0xB4 }
  - { offset: 0x2CF59, size: 0x8, addend: 0x0, symName: '__ZN106_$LT$pyo3..impl_..extract_argument..NoVarargs$u20$as$u20$pyo3..impl_..extract_argument..VarargsHandler$GT$23handle_varargs_fastcall17h7a1ba56585cefc50E', symObjAddr: 0x0, symBinAddr: 0x10E20, symSize: 0xB4 }
  - { offset: 0x2CFCC, size: 0x8, addend: 0x0, symName: '__ZN114_$LT$pyo3..impl_..extract_argument..NoVarkeywords$u20$as$u20$pyo3..impl_..extract_argument..VarkeywordsHandler$GT$17handle_varkeyword17h7fb280bc9ff26129E', symObjAddr: 0xB4, symBinAddr: 0x10ED4, symSize: 0x6C }
  - { offset: 0x2D10B, size: 0x8, addend: 0x0, symName: __ZN4pyo35impl_16extract_argument24unwrap_required_argument17heac66df7c601de9fE, symObjAddr: 0x4E4, symBinAddr: 0x11304, symSize: 0x60 }
  - { offset: 0x2D40F, size: 0x8, addend: 0x0, symName: __ZN4pyo35impl_16extract_argument19FunctionDescription36find_keyword_parameter_in_positional17h21f79e68ed1c0702E, symObjAddr: 0x120, symBinAddr: 0x10F40, symSize: 0x5C }
  - { offset: 0x2D441, size: 0x8, addend: 0x0, symName: __ZN4pyo35impl_16extract_argument19FunctionDescription38find_keyword_parameter_in_keyword_only17h3cfcebc92ddfadbbE, symObjAddr: 0x17C, symBinAddr: 0x10F9C, symSize: 0x5C }
  - { offset: 0x2DB05, size: 0x8, addend: 0x0, symName: __ZN4pyo35impl_16extract_argument19FunctionDescription44ensure_no_missing_required_keyword_arguments17hf418e43019d8c25aE, symObjAddr: 0x1D8, symBinAddr: 0x10FF8, symSize: 0x160 }
  - { offset: 0x2DBDE, size: 0x8, addend: 0x0, symName: __ZN4pyo35impl_16extract_argument19FunctionDescription47ensure_no_missing_required_positional_arguments17hfe0b6fb0a5d9149eE, symObjAddr: 0x338, symBinAddr: 0x11158, symSize: 0x1AC }
  - { offset: 0x2DD9D, size: 0x8, addend: 0x0, symName: __ZN4pyo35impl_10trampoline11module_init17hdb844868916b26e3E, symObjAddr: 0x0, symBinAddr: 0x11364, symSize: 0x28 }
  - { offset: 0x2F29F, size: 0x8, addend: 0x0, symName: __ZN4pyo35impl_10trampoline11module_init17hdb844868916b26e3E, symObjAddr: 0x0, symBinAddr: 0x11364, symSize: 0x28 }
  - { offset: 0x2F2CB, size: 0x8, addend: 0x0, symName: __ZN4pyo35impl_10trampoline22fastcall_with_keywords17h49c384b91f70cb73E, symObjAddr: 0x28, symBinAddr: 0x1138C, symSize: 0x5C }
  - { offset: 0x2F32F, size: 0x8, addend: 0x0, symName: __ZN4pyo35impl_10trampoline6noargs17h53f622a02f8e81d7E, symObjAddr: 0x84, symBinAddr: 0x113E8, symSize: 0x64 }
  - { offset: 0x2F377, size: 0x8, addend: 0x0, symName: __ZN4pyo35impl_10trampoline7dealloc17hbd1be4391183e971E, symObjAddr: 0xE8, symBinAddr: 0x1144C, symSize: 0x3C }
  - { offset: 0x2FCFE, size: 0x8, addend: 0x0, symName: '__ZN4core3ptr9const_ptr33_$LT$impl$u20$$BP$const$u20$T$GT$7is_null17h1874cda1e2aea69bE', symObjAddr: 0x0, symBinAddr: 0x11488, symSize: 0x1C }
  - { offset: 0x3074A, size: 0x8, addend: 0x0, symName: '__ZN4core3ptr9const_ptr33_$LT$impl$u20$$BP$const$u20$T$GT$7is_null17h1874cda1e2aea69bE', symObjAddr: 0x0, symBinAddr: 0x11488, symSize: 0x1C }
  - { offset: 0x3098A, size: 0x8, addend: 0x0, symName: '__ZN4core5slice29_$LT$impl$u20$$u5b$T$u5d$$GT$15copy_from_slice17h56c497672f32a8a7E', symObjAddr: 0x1C, symBinAddr: 0x114A4, symSize: 0xA4 }
  - { offset: 0x30A55, size: 0x8, addend: 0x0, symName: '__ZN4core5slice29_$LT$impl$u20$$u5b$T$u5d$$GT$18split_at_unchecked17hb153aded2d8a2cafE', symObjAddr: 0xC0, symBinAddr: 0x11548, symSize: 0xDC }
  - { offset: 0x30BE8, size: 0x8, addend: 0x0, symName: '__ZN4core5slice29_$LT$impl$u20$$u5b$T$u5d$$GT$8split_at17hb8dbdfa82b92ad89E', symObjAddr: 0x19C, symBinAddr: 0x11624, symSize: 0xD0 }
  - { offset: 0x33507, size: 0x8, addend: 0x0, symName: '__ZN4pyo311conversions3std6option90_$LT$impl$u20$pyo3..conversion..IntoPyObject$u20$for$u20$core..option..Option$LT$T$GT$$GT$13into_pyobject17h22d981ac464f4c3eE', symObjAddr: 0xF00, symBinAddr: 0x12388, symSize: 0x2C }
  - { offset: 0x33554, size: 0x8, addend: 0x0, symName: '__ZN4pyo311conversions3std6option90_$LT$impl$u20$pyo3..conversion..IntoPyObject$u20$for$u20$core..option..Option$LT$T$GT$$GT$13into_pyobject17h4ae979e695e95827E', symObjAddr: 0xF2C, symBinAddr: 0x123B4, symSize: 0x2C }
  - { offset: 0x335A1, size: 0x8, addend: 0x0, symName: '__ZN4pyo311conversions3std6option90_$LT$impl$u20$pyo3..conversion..IntoPyObject$u20$for$u20$core..option..Option$LT$T$GT$$GT$13into_pyobject17h5ca0931162098d39E', symObjAddr: 0xF58, symBinAddr: 0x123E0, symSize: 0x2C }
  - { offset: 0x335EE, size: 0x8, addend: 0x0, symName: '__ZN4pyo311conversions3std6option90_$LT$impl$u20$pyo3..conversion..IntoPyObject$u20$for$u20$core..option..Option$LT$T$GT$$GT$13into_pyobject17h6fc1f77ee2356343E', symObjAddr: 0xF84, symBinAddr: 0x1240C, symSize: 0x2C }
  - { offset: 0x3375D, size: 0x8, addend: 0x0, symName: __ZN4pyo310conversion15IntoPyObjectExt17into_bound_py_any17h37cba1ec9af0ce39E, symObjAddr: 0xDC0, symBinAddr: 0x12248, symSize: 0x50 }
  - { offset: 0x337CC, size: 0x8, addend: 0x0, symName: __ZN4pyo310conversion15IntoPyObjectExt17into_bound_py_any17h8bbb4f199d5dd478E, symObjAddr: 0xE10, symBinAddr: 0x12298, symSize: 0x50 }
  - { offset: 0x3383B, size: 0x8, addend: 0x0, symName: __ZN4pyo310conversion15IntoPyObjectExt17into_bound_py_any17ha9b61340578a41c1E, symObjAddr: 0xE60, symBinAddr: 0x122E8, symSize: 0x50 }
  - { offset: 0x338AA, size: 0x8, addend: 0x0, symName: __ZN4pyo310conversion15IntoPyObjectExt17into_bound_py_any17hb38b2d323a4ac5f4E, symObjAddr: 0xEB0, symBinAddr: 0x12338, symSize: 0x50 }
  - { offset: 0x3409D, size: 0x8, addend: 0x0, symName: '__ZN4core6option15Option$LT$T$GT$11map_or_else17h16bbb70d66486184E', symObjAddr: 0x26C, symBinAddr: 0x116F4, symSize: 0xD8 }
  - { offset: 0x3411F, size: 0x8, addend: 0x0, symName: '__ZN4core6option15Option$LT$T$GT$11map_or_else17h2b333331208bae6bE', symObjAddr: 0x344, symBinAddr: 0x117CC, symSize: 0xD8 }
  - { offset: 0x34199, size: 0x8, addend: 0x0, symName: '__ZN4core6option15Option$LT$T$GT$11map_or_else17h55b1585fd88a1860E', symObjAddr: 0x41C, symBinAddr: 0x118A4, symSize: 0xD8 }
  - { offset: 0x3421A, size: 0x8, addend: 0x0, symName: '__ZN4core6option15Option$LT$T$GT$11map_or_else17hdeb6f68e551ba43dE', symObjAddr: 0x4F4, symBinAddr: 0x1197C, symSize: 0xD8 }
  - { offset: 0x34295, size: 0x8, addend: 0x0, symName: '__ZN4core6option15Option$LT$T$GT$3map17h140c4799b6eea482E', symObjAddr: 0x5CC, symBinAddr: 0x11A54, symSize: 0x5C }
  - { offset: 0x3430D, size: 0x8, addend: 0x0, symName: '__ZN4core6option15Option$LT$T$GT$3map17hf128edaa3a1a178fE', symObjAddr: 0x628, symBinAddr: 0x11AB0, symSize: 0x50 }
  - { offset: 0x34465, size: 0x8, addend: 0x0, symName: '__ZN4core6option15Option$LT$T$GT$4take17h26c479c43a18c5feE', symObjAddr: 0x678, symBinAddr: 0x11B00, symSize: 0x40 }
  - { offset: 0x3451E, size: 0x8, addend: 0x0, symName: '__ZN4core6option15Option$LT$T$GT$6expect17h6fcab800906a85f2E', symObjAddr: 0x6B8, symBinAddr: 0x11B40, symSize: 0x5C }
  - { offset: 0x34753, size: 0x8, addend: 0x0, symName: '__ZN4core6option15Option$LT$T$GT$6insert17h140934b8e4b4375dE', symObjAddr: 0x714, symBinAddr: 0x11B9C, symSize: 0xA4 }
  - { offset: 0x34855, size: 0x8, addend: 0x0, symName: '__ZN4core6option15Option$LT$T$GT$6insert17h4961de9c94d46767E', symObjAddr: 0x7B8, symBinAddr: 0x11C40, symSize: 0xA4 }
  - { offset: 0x34964, size: 0x8, addend: 0x0, symName: '__ZN4core6option15Option$LT$T$GT$6insert17h8d6539c7c6fc8d61E', symObjAddr: 0x85C, symBinAddr: 0x11CE4, symSize: 0xA4 }
  - { offset: 0x34A66, size: 0x8, addend: 0x0, symName: '__ZN4core6option15Option$LT$T$GT$6insert17h90842458f2a7ab8dE', symObjAddr: 0x900, symBinAddr: 0x11D88, symSize: 0xA4 }
  - { offset: 0x34B68, size: 0x8, addend: 0x0, symName: '__ZN4core6option15Option$LT$T$GT$6insert17h920ac35270dbe61bE', symObjAddr: 0x9A4, symBinAddr: 0x11E2C, symSize: 0xA4 }
  - { offset: 0x34C6A, size: 0x8, addend: 0x0, symName: '__ZN4core6option15Option$LT$T$GT$6insert17h97f5b85922ec6b94E', symObjAddr: 0xA48, symBinAddr: 0x11ED0, symSize: 0xA4 }
  - { offset: 0x34D6C, size: 0x8, addend: 0x0, symName: '__ZN4core6option15Option$LT$T$GT$6insert17hae035fade2425c98E', symObjAddr: 0xAEC, symBinAddr: 0x11F74, symSize: 0xA4 }
  - { offset: 0x34E6E, size: 0x8, addend: 0x0, symName: '__ZN4core6option15Option$LT$T$GT$6insert17hd07a3a4a2d168edcE', symObjAddr: 0xB90, symBinAddr: 0x12018, symSize: 0xA4 }
  - { offset: 0x34F70, size: 0x8, addend: 0x0, symName: '__ZN4core6option15Option$LT$T$GT$6insert17he05700e0b6c67a91E', symObjAddr: 0xC34, symBinAddr: 0x120BC, symSize: 0xA4 }
  - { offset: 0x3500F, size: 0x8, addend: 0x0, symName: '__ZN4core6option15Option$LT$T$GT$7is_some17h746cce411d7da145E', symObjAddr: 0xCD8, symBinAddr: 0x12160, symSize: 0x48 }
  - { offset: 0x35048, size: 0x8, addend: 0x0, symName: '__ZN4core6option15Option$LT$T$GT$7replace17hfc242aee66dc015fE', symObjAddr: 0xD20, symBinAddr: 0x121A8, symSize: 0x34 }
  - { offset: 0x35191, size: 0x8, addend: 0x0, symName: '__ZN4core6option15Option$LT$T$GT$8as_deref17h72d2f9b1433c21efE', symObjAddr: 0xD54, symBinAddr: 0x121DC, symSize: 0x6C }
  - { offset: 0x35421, size: 0x8, addend: 0x0, symName: __ZN4core4hint16assert_unchecked18precondition_check17had6468557cd0fc8bE, symObjAddr: 0x0, symBinAddr: 0x12438, symSize: 0x38 }
  - { offset: 0x3543D, size: 0x8, addend: 0x0, symName: __ZN4core4hint16assert_unchecked18precondition_check17had6468557cd0fc8bE, symObjAddr: 0x0, symBinAddr: 0x12438, symSize: 0x38 }
  - { offset: 0x3546B, size: 0x8, addend: 0x0, symName: __ZN4core4hint21unreachable_unchecked18precondition_check17h05c66e690c3ebe1eE, symObjAddr: 0x38, symBinAddr: 0x12470, symSize: 0x1C }
  - { offset: 0x354AC, size: 0x8, addend: 0x0, symName: '__ZN71_$LT$alloc..borrow..Cow$LT$B$GT$$u20$as$u20$core..ops..deref..Deref$GT$5deref17h8a14ec353ad8e5e1E', symObjAddr: 0x0, symBinAddr: 0x1248C, symSize: 0x78 }
  - { offset: 0x354C8, size: 0x8, addend: 0x0, symName: '__ZN71_$LT$alloc..borrow..Cow$LT$B$GT$$u20$as$u20$core..ops..deref..Deref$GT$5deref17h8a14ec353ad8e5e1E', symObjAddr: 0x0, symBinAddr: 0x1248C, symSize: 0x78 }
  - { offset: 0x35696, size: 0x8, addend: 0x0, symName: '__ZN11snid_native11snid_native11__pyo3_init28_$u7b$$u7b$closure$u7d$$u7d$17h3a76973e52306993E', symObjAddr: 0x0, symBinAddr: 0x12504, symSize: 0x30 }
  - { offset: 0x36A95, size: 0x8, addend: 0x0, symName: '__ZN11snid_native11snid_native11__pyo3_init28_$u7b$$u7b$closure$u7d$$u7d$17h3a76973e52306993E', symObjAddr: 0x0, symBinAddr: 0x12504, symSize: 0x30 }
  - { offset: 0x3737F, size: 0x8, addend: 0x0, symName: __ZN4pyo33err5PyErr16write_unraisable17hd2bb98ae5f8d6320E, symObjAddr: 0x0, symBinAddr: 0x12534, symSize: 0x3C }
  - { offset: 0x390B7, size: 0x8, addend: 0x0, symName: __ZN4pyo33err5PyErr16write_unraisable17hd2bb98ae5f8d6320E, symObjAddr: 0x0, symBinAddr: 0x12534, symSize: 0x3C }
  - { offset: 0x39156, size: 0x8, addend: 0x0, symName: __ZN4pyo33err5PyErr7restore17h87b23d32f6dedf15E, symObjAddr: 0x3C, symBinAddr: 0x12570, symSize: 0x38 }
  - { offset: 0x391B2, size: 0x8, addend: 0x0, symName: __ZN8pyo3_ffi10boolobject7Py_True17h310d6a33e9f50c92E, symObjAddr: 0x0, symBinAddr: 0x125A8, symSize: 0xC }
  - { offset: 0x3924D, size: 0x8, addend: 0x0, symName: __ZN8pyo3_ffi10boolobject7Py_True17h310d6a33e9f50c92E, symObjAddr: 0x0, symBinAddr: 0x125A8, symSize: 0xC }
  - { offset: 0x3926A, size: 0x8, addend: 0x0, symName: __ZN8pyo3_ffi10boolobject8Py_False17hbf1f506320a7b07dE, symObjAddr: 0xC, symBinAddr: 0x125B4, symSize: 0xC }
  - { offset: 0x3A6F8, size: 0x8, addend: 0x0, symName: '__ZN103_$LT$pyo3..instance..Bound$LT$pyo3..types..any..PyAny$GT$$u20$as$u20$pyo3..types..any..PyAnyMethods$GT$14is_instance_of17h31682e9bc58a37efE', symObjAddr: 0x0, symBinAddr: 0x125C0, symSize: 0x24 }
  - { offset: 0x3AF6F, size: 0x8, addend: 0x0, symName: '__ZN4core5array4iter94_$LT$impl$u20$core..iter..traits..collect..IntoIterator$u20$for$u20$$u5b$T$u3b$$u20$N$u5d$$GT$9into_iter17h612e5436aa39f181E', symObjAddr: 0x11EC, symBinAddr: 0x137AC, symSize: 0x68 }
  - { offset: 0x3AFD7, size: 0x8, addend: 0x0, symName: '__ZN4core5array4iter94_$LT$impl$u20$core..iter..traits..collect..IntoIterator$u20$for$u20$$u5b$T$u3b$$u20$N$u5d$$GT$9into_iter17h801421a03bb7f386E', symObjAddr: 0x1254, symBinAddr: 0x13814, symSize: 0x40 }
  - { offset: 0x3B09F, size: 0x8, addend: 0x0, symName: '__ZN4core5slice29_$LT$impl$u20$$u5b$T$u5d$$GT$4iter17he3933c0b61f0b26cE', symObjAddr: 0x1294, symBinAddr: 0x13854, symSize: 0x28 }
  - { offset: 0x3D943, size: 0x8, addend: 0x0, symName: '__ZN63_$LT$I$u20$as$u20$core..iter..traits..collect..IntoIterator$GT$9into_iter17haffe5660b9caab7cE', symObjAddr: 0x2CB0, symBinAddr: 0x15270, symSize: 0x14 }
  - { offset: 0x3D9AA, size: 0x8, addend: 0x0, symName: '__ZN103_$LT$pyo3..instance..Bound$LT$pyo3..types..any..PyAny$GT$$u20$as$u20$pyo3..types..any..PyAnyMethods$GT$14is_instance_of17h31682e9bc58a37efE', symObjAddr: 0x0, symBinAddr: 0x125C0, symSize: 0x24 }
  - { offset: 0x3D9E1, size: 0x8, addend: 0x0, symName: '__ZN103_$LT$pyo3..instance..Bound$LT$pyo3..types..any..PyAny$GT$$u20$as$u20$pyo3..types..any..PyAnyMethods$GT$18downcast_unchecked17h1d3f3dccd40fa540E', symObjAddr: 0x24, symBinAddr: 0x125E4, symSize: 0x2C }
  - { offset: 0x3DA18, size: 0x8, addend: 0x0, symName: '__ZN103_$LT$pyo3..instance..Bound$LT$pyo3..types..any..PyAny$GT$$u20$as$u20$pyo3..types..any..PyAnyMethods$GT$18downcast_unchecked17h3e078cda722f4b30E', symObjAddr: 0x50, symBinAddr: 0x12610, symSize: 0x2C }
  - { offset: 0x3DA4F, size: 0x8, addend: 0x0, symName: '__ZN103_$LT$pyo3..instance..Bound$LT$pyo3..types..any..PyAny$GT$$u20$as$u20$pyo3..types..any..PyAnyMethods$GT$18downcast_unchecked17h42c963ef70b78957E', symObjAddr: 0x7C, symBinAddr: 0x1263C, symSize: 0x2C }
  - { offset: 0x3DA86, size: 0x8, addend: 0x0, symName: '__ZN103_$LT$pyo3..instance..Bound$LT$pyo3..types..any..PyAny$GT$$u20$as$u20$pyo3..types..any..PyAnyMethods$GT$18downcast_unchecked17h4d01d2e6facb726aE', symObjAddr: 0xA8, symBinAddr: 0x12668, symSize: 0x2C }
  - { offset: 0x3DABD, size: 0x8, addend: 0x0, symName: '__ZN103_$LT$pyo3..instance..Bound$LT$pyo3..types..any..PyAny$GT$$u20$as$u20$pyo3..types..any..PyAnyMethods$GT$18downcast_unchecked17h5a7de8a8e0d0d07cE', symObjAddr: 0xD4, symBinAddr: 0x12694, symSize: 0x2C }
  - { offset: 0x3DAF4, size: 0x8, addend: 0x0, symName: '__ZN103_$LT$pyo3..instance..Bound$LT$pyo3..types..any..PyAny$GT$$u20$as$u20$pyo3..types..any..PyAnyMethods$GT$18downcast_unchecked17h8de57f025610029cE', symObjAddr: 0x100, symBinAddr: 0x126C0, symSize: 0x2C }
  - { offset: 0x3DB2B, size: 0x8, addend: 0x0, symName: '__ZN103_$LT$pyo3..instance..Bound$LT$pyo3..types..any..PyAny$GT$$u20$as$u20$pyo3..types..any..PyAnyMethods$GT$18downcast_unchecked17h9fdf8f74b6a07d05E', symObjAddr: 0x12C, symBinAddr: 0x126EC, symSize: 0x2C }
  - { offset: 0x3DB62, size: 0x8, addend: 0x0, symName: '__ZN103_$LT$pyo3..instance..Bound$LT$pyo3..types..any..PyAny$GT$$u20$as$u20$pyo3..types..any..PyAnyMethods$GT$18downcast_unchecked17hd603624e01023494E', symObjAddr: 0x158, symBinAddr: 0x12718, symSize: 0x2C }
  - { offset: 0x3DB99, size: 0x8, addend: 0x0, symName: '__ZN103_$LT$pyo3..instance..Bound$LT$pyo3..types..any..PyAny$GT$$u20$as$u20$pyo3..types..any..PyAnyMethods$GT$18downcast_unchecked17he0ad867087e51837E', symObjAddr: 0x184, symBinAddr: 0x12744, symSize: 0x2C }
  - { offset: 0x3DBD0, size: 0x8, addend: 0x0, symName: '__ZN103_$LT$pyo3..instance..Bound$LT$pyo3..types..any..PyAny$GT$$u20$as$u20$pyo3..types..any..PyAnyMethods$GT$23downcast_into_unchecked17h15c34616318f7fcbE', symObjAddr: 0x1B0, symBinAddr: 0x12770, symSize: 0x14 }
  - { offset: 0x3DC07, size: 0x8, addend: 0x0, symName: '__ZN103_$LT$pyo3..instance..Bound$LT$pyo3..types..any..PyAny$GT$$u20$as$u20$pyo3..types..any..PyAnyMethods$GT$23downcast_into_unchecked17h366bf2e587d4b8c5E', symObjAddr: 0x1C4, symBinAddr: 0x12784, symSize: 0x14 }
  - { offset: 0x3DC3E, size: 0x8, addend: 0x0, symName: '__ZN103_$LT$pyo3..instance..Bound$LT$pyo3..types..any..PyAny$GT$$u20$as$u20$pyo3..types..any..PyAnyMethods$GT$23downcast_into_unchecked17h4914c61ab4ab4f6dE', symObjAddr: 0x1D8, symBinAddr: 0x12798, symSize: 0x14 }
  - { offset: 0x3DC75, size: 0x8, addend: 0x0, symName: '__ZN103_$LT$pyo3..instance..Bound$LT$pyo3..types..any..PyAny$GT$$u20$as$u20$pyo3..types..any..PyAnyMethods$GT$23downcast_into_unchecked17h7d6744d7d02b0973E', symObjAddr: 0x1EC, symBinAddr: 0x127AC, symSize: 0x14 }
  - { offset: 0x3DCAC, size: 0x8, addend: 0x0, symName: '__ZN103_$LT$pyo3..instance..Bound$LT$pyo3..types..any..PyAny$GT$$u20$as$u20$pyo3..types..any..PyAnyMethods$GT$23downcast_into_unchecked17h9c23ab14aa1561c1E', symObjAddr: 0x200, symBinAddr: 0x127C0, symSize: 0x14 }
  - { offset: 0x3DCE3, size: 0x8, addend: 0x0, symName: '__ZN103_$LT$pyo3..instance..Bound$LT$pyo3..types..any..PyAny$GT$$u20$as$u20$pyo3..types..any..PyAnyMethods$GT$23downcast_into_unchecked17h9f8438a604f47dfbE', symObjAddr: 0x214, symBinAddr: 0x127D4, symSize: 0x14 }
  - { offset: 0x3DD1A, size: 0x8, addend: 0x0, symName: '__ZN103_$LT$pyo3..instance..Bound$LT$pyo3..types..any..PyAny$GT$$u20$as$u20$pyo3..types..any..PyAnyMethods$GT$23downcast_into_unchecked17ha57cd449dd102d18E', symObjAddr: 0x228, symBinAddr: 0x127E8, symSize: 0x14 }
  - { offset: 0x3DD51, size: 0x8, addend: 0x0, symName: '__ZN103_$LT$pyo3..instance..Bound$LT$pyo3..types..any..PyAny$GT$$u20$as$u20$pyo3..types..any..PyAnyMethods$GT$23downcast_into_unchecked17hcdb60cf2f90522baE', symObjAddr: 0x23C, symBinAddr: 0x127FC, symSize: 0x14 }
  - { offset: 0x3DD88, size: 0x8, addend: 0x0, symName: '__ZN103_$LT$pyo3..instance..Bound$LT$pyo3..types..any..PyAny$GT$$u20$as$u20$pyo3..types..any..PyAnyMethods$GT$23downcast_into_unchecked17he0de98906f95192fE', symObjAddr: 0x250, symBinAddr: 0x12810, symSize: 0x14 }
  - { offset: 0x3DDBF, size: 0x8, addend: 0x0, symName: '__ZN103_$LT$pyo3..instance..Bound$LT$pyo3..types..any..PyAny$GT$$u20$as$u20$pyo3..types..any..PyAnyMethods$GT$7extract17h020ebf441cb37e41E', symObjAddr: 0x264, symBinAddr: 0x12824, symSize: 0x30 }
  - { offset: 0x3DDF6, size: 0x8, addend: 0x0, symName: '__ZN103_$LT$pyo3..instance..Bound$LT$pyo3..types..any..PyAny$GT$$u20$as$u20$pyo3..types..any..PyAnyMethods$GT$7extract17h23431a96276f9cdaE', symObjAddr: 0x294, symBinAddr: 0x12854, symSize: 0x30 }
  - { offset: 0x3DE2D, size: 0x8, addend: 0x0, symName: '__ZN103_$LT$pyo3..instance..Bound$LT$pyo3..types..any..PyAny$GT$$u20$as$u20$pyo3..types..any..PyAnyMethods$GT$7extract17h4edafdd0f0cb2680E', symObjAddr: 0x2C4, symBinAddr: 0x12884, symSize: 0x30 }
  - { offset: 0x3DE64, size: 0x8, addend: 0x0, symName: '__ZN103_$LT$pyo3..instance..Bound$LT$pyo3..types..any..PyAny$GT$$u20$as$u20$pyo3..types..any..PyAnyMethods$GT$7extract17h5859f3306fe5572aE', symObjAddr: 0x2F4, symBinAddr: 0x128B4, symSize: 0x30 }
  - { offset: 0x3DE9B, size: 0x8, addend: 0x0, symName: '__ZN103_$LT$pyo3..instance..Bound$LT$pyo3..types..any..PyAny$GT$$u20$as$u20$pyo3..types..any..PyAnyMethods$GT$7extract17h85caa1a155ed5e7eE', symObjAddr: 0x324, symBinAddr: 0x128E4, symSize: 0x30 }
  - { offset: 0x3DED2, size: 0x8, addend: 0x0, symName: '__ZN103_$LT$pyo3..instance..Bound$LT$pyo3..types..any..PyAny$GT$$u20$as$u20$pyo3..types..any..PyAnyMethods$GT$7extract17h98b043bcdeaab125E', symObjAddr: 0x354, symBinAddr: 0x12914, symSize: 0x30 }
  - { offset: 0x3DF09, size: 0x8, addend: 0x0, symName: '__ZN103_$LT$pyo3..instance..Bound$LT$pyo3..types..any..PyAny$GT$$u20$as$u20$pyo3..types..any..PyAnyMethods$GT$7extract17h9fcca571243a401eE', symObjAddr: 0x384, symBinAddr: 0x12944, symSize: 0x30 }
  - { offset: 0x3DF40, size: 0x8, addend: 0x0, symName: '__ZN103_$LT$pyo3..instance..Bound$LT$pyo3..types..any..PyAny$GT$$u20$as$u20$pyo3..types..any..PyAnyMethods$GT$7extract17hd16d6f26cc7a0785E', symObjAddr: 0x3B4, symBinAddr: 0x12974, symSize: 0x30 }
  - { offset: 0x3DF77, size: 0x8, addend: 0x0, symName: '__ZN103_$LT$pyo3..instance..Bound$LT$pyo3..types..any..PyAny$GT$$u20$as$u20$pyo3..types..any..PyAnyMethods$GT$7extract17hda9f0249775131fdE', symObjAddr: 0x3E4, symBinAddr: 0x129A4, symSize: 0x30 }
  - { offset: 0x3DFAE, size: 0x8, addend: 0x0, symName: '__ZN103_$LT$pyo3..instance..Bound$LT$pyo3..types..any..PyAny$GT$$u20$as$u20$pyo3..types..any..PyAnyMethods$GT$7extract17hebcbb6301dda03b2E', symObjAddr: 0x414, symBinAddr: 0x129D4, symSize: 0x30 }
  - { offset: 0x3DFE5, size: 0x8, addend: 0x0, symName: '__ZN103_$LT$pyo3..instance..Bound$LT$pyo3..types..any..PyAny$GT$$u20$as$u20$pyo3..types..any..PyAnyMethods$GT$7extract17hecedb9ed56512f73E', symObjAddr: 0x444, symBinAddr: 0x12A04, symSize: 0x30 }
  - { offset: 0x3E01C, size: 0x8, addend: 0x0, symName: '__ZN103_$LT$pyo3..instance..Bound$LT$pyo3..types..any..PyAny$GT$$u20$as$u20$pyo3..types..any..PyAnyMethods$GT$7extract17hf1346d77a8b0f33cE', symObjAddr: 0x474, symBinAddr: 0x12A34, symSize: 0x30 }
  - { offset: 0x3E053, size: 0x8, addend: 0x0, symName: '__ZN103_$LT$pyo3..instance..Bound$LT$pyo3..types..any..PyAny$GT$$u20$as$u20$pyo3..types..any..PyAnyMethods$GT$8downcast17h1cb64c529768abecE', symObjAddr: 0x4A4, symBinAddr: 0x12A64, symSize: 0x84 }
  - { offset: 0x3E08A, size: 0x8, addend: 0x0, symName: '__ZN103_$LT$pyo3..instance..Bound$LT$pyo3..types..any..PyAny$GT$$u20$as$u20$pyo3..types..any..PyAnyMethods$GT$8downcast17h1dfd84d644e74d09E', symObjAddr: 0x528, symBinAddr: 0x12AE8, symSize: 0x84 }
  - { offset: 0x3E0C1, size: 0x8, addend: 0x0, symName: '__ZN103_$LT$pyo3..instance..Bound$LT$pyo3..types..any..PyAny$GT$$u20$as$u20$pyo3..types..any..PyAnyMethods$GT$8downcast17h33a0d15c23f8b396E', symObjAddr: 0x5AC, symBinAddr: 0x12B6C, symSize: 0x84 }
  - { offset: 0x3E0F8, size: 0x8, addend: 0x0, symName: '__ZN103_$LT$pyo3..instance..Bound$LT$pyo3..types..any..PyAny$GT$$u20$as$u20$pyo3..types..any..PyAnyMethods$GT$8downcast17h35b61b2a58eab845E', symObjAddr: 0x630, symBinAddr: 0x12BF0, symSize: 0x84 }
  - { offset: 0x3E12F, size: 0x8, addend: 0x0, symName: '__ZN103_$LT$pyo3..instance..Bound$LT$pyo3..types..any..PyAny$GT$$u20$as$u20$pyo3..types..any..PyAnyMethods$GT$8downcast17h5bde9aee8b0cdeafE', symObjAddr: 0x6B4, symBinAddr: 0x12C74, symSize: 0x84 }
  - { offset: 0x3E166, size: 0x8, addend: 0x0, symName: '__ZN103_$LT$pyo3..instance..Bound$LT$pyo3..types..any..PyAny$GT$$u20$as$u20$pyo3..types..any..PyAnyMethods$GT$8downcast17h70c81226de96cbd2E', symObjAddr: 0x738, symBinAddr: 0x12CF8, symSize: 0x84 }
  - { offset: 0x3E19D, size: 0x8, addend: 0x0, symName: '__ZN103_$LT$pyo3..instance..Bound$LT$pyo3..types..any..PyAny$GT$$u20$as$u20$pyo3..types..any..PyAnyMethods$GT$8downcast17h8ef4f957fc81a979E', symObjAddr: 0x7BC, symBinAddr: 0x12D7C, symSize: 0x84 }
  - { offset: 0x3E1D4, size: 0x8, addend: 0x0, symName: '__ZN103_$LT$pyo3..instance..Bound$LT$pyo3..types..any..PyAny$GT$$u20$as$u20$pyo3..types..any..PyAnyMethods$GT$8downcast17h97491845d2f7eb0fE', symObjAddr: 0x840, symBinAddr: 0x12E00, symSize: 0x84 }
  - { offset: 0x3E20B, size: 0x8, addend: 0x0, symName: '__ZN103_$LT$pyo3..instance..Bound$LT$pyo3..types..any..PyAny$GT$$u20$as$u20$pyo3..types..any..PyAnyMethods$GT$8downcast17hd500cbb47075d806E', symObjAddr: 0x8C4, symBinAddr: 0x12E84, symSize: 0x84 }
  - { offset: 0x3E263, size: 0x8, addend: 0x0, symName: '__ZN115_$LT$pyo3..instance..Bound$LT$pyo3..types..module..PyModule$GT$$u20$as$u20$pyo3..types..module..PyModuleMethods$GT$3add17he2040577ae3099dbE', symObjAddr: 0x948, symBinAddr: 0x12F08, symSize: 0x22C }
  - { offset: 0x3E32C, size: 0x8, addend: 0x0, symName: '__ZN115_$LT$pyo3..instance..Bound$LT$pyo3..types..module..PyModule$GT$$u20$as$u20$pyo3..types..module..PyModuleMethods$GT$9add_class17h245bbd4ba30cd1a0E', symObjAddr: 0xB74, symBinAddr: 0x13134, symSize: 0xB8 }
  - { offset: 0x3E39F, size: 0x8, addend: 0x0, symName: '__ZN115_$LT$pyo3..instance..Bound$LT$pyo3..types..module..PyModule$GT$$u20$as$u20$pyo3..types..module..PyModuleMethods$GT$9add_class17h28308d4eff71b26dE', symObjAddr: 0xC2C, symBinAddr: 0x131EC, symSize: 0xB8 }
  - { offset: 0x3E412, size: 0x8, addend: 0x0, symName: '__ZN115_$LT$pyo3..instance..Bound$LT$pyo3..types..module..PyModule$GT$$u20$as$u20$pyo3..types..module..PyModuleMethods$GT$9add_class17h2f1871fe068af44cE', symObjAddr: 0xCE4, symBinAddr: 0x132A4, symSize: 0xB8 }
  - { offset: 0x3E485, size: 0x8, addend: 0x0, symName: '__ZN115_$LT$pyo3..instance..Bound$LT$pyo3..types..module..PyModule$GT$$u20$as$u20$pyo3..types..module..PyModuleMethods$GT$9add_class17h40aaf4fdcd742896E', symObjAddr: 0xD9C, symBinAddr: 0x1335C, symSize: 0xB8 }
  - { offset: 0x3E4F8, size: 0x8, addend: 0x0, symName: '__ZN115_$LT$pyo3..instance..Bound$LT$pyo3..types..module..PyModule$GT$$u20$as$u20$pyo3..types..module..PyModuleMethods$GT$9add_class17h751a8ce71bf4b281E', symObjAddr: 0xE54, symBinAddr: 0x13414, symSize: 0xB8 }
  - { offset: 0x3E56B, size: 0x8, addend: 0x0, symName: '__ZN115_$LT$pyo3..instance..Bound$LT$pyo3..types..module..PyModule$GT$$u20$as$u20$pyo3..types..module..PyModuleMethods$GT$9add_class17h7a43810596a2a821E', symObjAddr: 0xF0C, symBinAddr: 0x134CC, symSize: 0xB8 }
  - { offset: 0x3E5DE, size: 0x8, addend: 0x0, symName: '__ZN115_$LT$pyo3..instance..Bound$LT$pyo3..types..module..PyModule$GT$$u20$as$u20$pyo3..types..module..PyModuleMethods$GT$9add_class17hcbcf85bb8e6f453cE', symObjAddr: 0xFC4, symBinAddr: 0x13584, symSize: 0xB8 }
  - { offset: 0x3E651, size: 0x8, addend: 0x0, symName: '__ZN115_$LT$pyo3..instance..Bound$LT$pyo3..types..module..PyModule$GT$$u20$as$u20$pyo3..types..module..PyModuleMethods$GT$9add_class17hebf670e509730250E', symObjAddr: 0x107C, symBinAddr: 0x1363C, symSize: 0xB8 }
  - { offset: 0x3E6C4, size: 0x8, addend: 0x0, symName: '__ZN115_$LT$pyo3..instance..Bound$LT$pyo3..types..module..PyModule$GT$$u20$as$u20$pyo3..types..module..PyModuleMethods$GT$9add_class17hfafea995d0697fd2E', symObjAddr: 0x1134, symBinAddr: 0x136F4, symSize: 0xB8 }
  - { offset: 0x3E7FB, size: 0x8, addend: 0x0, symName: __ZN4pyo310conversion15IntoPyObjectExt17into_bound_py_any17h516b98c15e9e0c9eE, symObjAddr: 0x12BC, symBinAddr: 0x1387C, symSize: 0x50 }
  - { offset: 0x3E86A, size: 0x8, addend: 0x0, symName: __ZN4pyo310conversion15IntoPyObjectExt22into_pyobject_or_pyerr17h15fe1fae59a265d4E, symObjAddr: 0x130C, symBinAddr: 0x138CC, symSize: 0x48 }
  - { offset: 0x3E8DF, size: 0x8, addend: 0x0, symName: '__ZN81_$LT$pyo3..instance..Bound$LT$T$GT$$u20$as$u20$pyo3..conversion..IntoPyObject$GT$13into_pyobject17h47f43c0fb132c49eE', symObjAddr: 0x2E98, symBinAddr: 0x15458, symSize: 0x1C }
  - { offset: 0x3E941, size: 0x8, addend: 0x0, symName: '__ZN4pyo35impl_9pymethods133_$LT$impl$u20$core..convert..From$LT$pyo3..impl_..pymethods..BoundRef$LT$T$GT$$GT$$u20$for$u20$$RF$pyo3..instance..Bound$LT$T$GT$$GT$4from17he495aaf9e889a756E', symObjAddr: 0x1354, symBinAddr: 0x13914, symSize: 0x14 }
  - { offset: 0x3FD70, size: 0x8, addend: 0x0, symName: '__ZN4pyo38instance39Borrowed$LT$pyo3..types..any..PyAny$GT$15from_ptr_or_opt28_$u7b$$u7b$closure$u7d$$u7d$17h6fbe85e3750978baE', symObjAddr: 0x2C40, symBinAddr: 0x15200, symSize: 0x20 }
  - { offset: 0x3FEA0, size: 0x8, addend: 0x0, symName: '__ZN69_$LT$pyo3..instance..Bound$LT$T$GT$$u20$as$u20$core..clone..Clone$GT$5clone17h229df2636634bc2aE', symObjAddr: 0x2CC4, symBinAddr: 0x15284, symSize: 0x34 }
  - { offset: 0x3FED7, size: 0x8, addend: 0x0, symName: '__ZN69_$LT$pyo3..instance..Bound$LT$T$GT$$u20$as$u20$core..clone..Clone$GT$5clone17h2c80056a7d709571E', symObjAddr: 0x2CF8, symBinAddr: 0x152B8, symSize: 0x34 }
  - { offset: 0x3FF0E, size: 0x8, addend: 0x0, symName: '__ZN69_$LT$pyo3..instance..Bound$LT$T$GT$$u20$as$u20$core..clone..Clone$GT$5clone17h53f076808d0563a2E', symObjAddr: 0x2D2C, symBinAddr: 0x152EC, symSize: 0x34 }
  - { offset: 0x3FF45, size: 0x8, addend: 0x0, symName: '__ZN69_$LT$pyo3..instance..Bound$LT$T$GT$$u20$as$u20$core..clone..Clone$GT$5clone17h615a0bb34854925cE', symObjAddr: 0x2D60, symBinAddr: 0x15320, symSize: 0x34 }
  - { offset: 0x3FF7C, size: 0x8, addend: 0x0, symName: '__ZN69_$LT$pyo3..instance..Bound$LT$T$GT$$u20$as$u20$core..clone..Clone$GT$5clone17h8b76b397e25121cdE', symObjAddr: 0x2D94, symBinAddr: 0x15354, symSize: 0x34 }
  - { offset: 0x3FFB3, size: 0x8, addend: 0x0, symName: '__ZN69_$LT$pyo3..instance..Bound$LT$T$GT$$u20$as$u20$core..clone..Clone$GT$5clone17h94b9a2a8c5a63174E', symObjAddr: 0x2DC8, symBinAddr: 0x15388, symSize: 0x34 }
  - { offset: 0x3FFEA, size: 0x8, addend: 0x0, symName: '__ZN69_$LT$pyo3..instance..Bound$LT$T$GT$$u20$as$u20$core..clone..Clone$GT$5clone17h9b1d6524bbb52bf2E', symObjAddr: 0x2DFC, symBinAddr: 0x153BC, symSize: 0x34 }
  - { offset: 0x40021, size: 0x8, addend: 0x0, symName: '__ZN69_$LT$pyo3..instance..Bound$LT$T$GT$$u20$as$u20$core..clone..Clone$GT$5clone17h9bb67371bccb6c2fE', symObjAddr: 0x2E30, symBinAddr: 0x153F0, symSize: 0x34 }
  - { offset: 0x40058, size: 0x8, addend: 0x0, symName: '__ZN69_$LT$pyo3..instance..Bound$LT$T$GT$$u20$as$u20$core..clone..Clone$GT$5clone17hd95a469d4f211f0aE', symObjAddr: 0x2E64, symBinAddr: 0x15424, symSize: 0x34 }
  - { offset: 0x40095, size: 0x8, addend: 0x0, symName: '__ZN87_$LT$pyo3..instance..Bound$LT$T$GT$$u20$as$u20$pyo3..instance..BoundObject$LT$T$GT$$GT$8into_any17h30d216348ce109beE', symObjAddr: 0x2EB4, symBinAddr: 0x15474, symSize: 0x24 }
  - { offset: 0x400CC, size: 0x8, addend: 0x0, symName: '__ZN87_$LT$pyo3..instance..Bound$LT$T$GT$$u20$as$u20$pyo3..instance..BoundObject$LT$T$GT$$GT$8into_any17h329d145b249e786bE', symObjAddr: 0x2ED8, symBinAddr: 0x15498, symSize: 0x24 }
  - { offset: 0x40103, size: 0x8, addend: 0x0, symName: '__ZN87_$LT$pyo3..instance..Bound$LT$T$GT$$u20$as$u20$pyo3..instance..BoundObject$LT$T$GT$$GT$8into_any17h646af4236c78352fE', symObjAddr: 0x2EFC, symBinAddr: 0x154BC, symSize: 0x24 }
  - { offset: 0x4013A, size: 0x8, addend: 0x0, symName: '__ZN87_$LT$pyo3..instance..Bound$LT$T$GT$$u20$as$u20$pyo3..instance..BoundObject$LT$T$GT$$GT$8into_any17h808d23a3095907fcE', symObjAddr: 0x2F20, symBinAddr: 0x154E0, symSize: 0x24 }
  - { offset: 0x40171, size: 0x8, addend: 0x0, symName: '__ZN87_$LT$pyo3..instance..Bound$LT$T$GT$$u20$as$u20$pyo3..instance..BoundObject$LT$T$GT$$GT$8into_any17h9166c4169cccc487E', symObjAddr: 0x2F44, symBinAddr: 0x15504, symSize: 0x24 }
  - { offset: 0x401A8, size: 0x8, addend: 0x0, symName: '__ZN87_$LT$pyo3..instance..Bound$LT$T$GT$$u20$as$u20$pyo3..instance..BoundObject$LT$T$GT$$GT$8into_any17ha797e7d56832b490E', symObjAddr: 0x2F68, symBinAddr: 0x15528, symSize: 0x24 }
  - { offset: 0x401DF, size: 0x8, addend: 0x0, symName: '__ZN87_$LT$pyo3..instance..Bound$LT$T$GT$$u20$as$u20$pyo3..instance..BoundObject$LT$T$GT$$GT$8into_any17hc35f41be75fc277cE', symObjAddr: 0x2F8C, symBinAddr: 0x1554C, symSize: 0x24 }
  - { offset: 0x40216, size: 0x8, addend: 0x0, symName: '__ZN87_$LT$pyo3..instance..Bound$LT$T$GT$$u20$as$u20$pyo3..instance..BoundObject$LT$T$GT$$GT$8into_any17hcfc85fc4052904f4E', symObjAddr: 0x2FB0, symBinAddr: 0x15570, symSize: 0x24 }
  - { offset: 0x4024D, size: 0x8, addend: 0x0, symName: '__ZN87_$LT$pyo3..instance..Bound$LT$T$GT$$u20$as$u20$pyo3..instance..BoundObject$LT$T$GT$$GT$8into_any17hd15766923fc2379eE', symObjAddr: 0x2FD4, symBinAddr: 0x15594, symSize: 0x24 }
  - { offset: 0x40284, size: 0x8, addend: 0x0, symName: '__ZN87_$LT$pyo3..instance..Bound$LT$T$GT$$u20$as$u20$pyo3..instance..BoundObject$LT$T$GT$$GT$8into_any17hf80fb5c72ae5e5f4E', symObjAddr: 0x2FF8, symBinAddr: 0x155B8, symSize: 0x24 }
  - { offset: 0x402C1, size: 0x8, addend: 0x0, symName: '__ZN90_$LT$pyo3..instance..Borrowed$LT$T$GT$$u20$as$u20$pyo3..instance..BoundObject$LT$T$GT$$GT$8into_any17hc0d92103db59557dE', symObjAddr: 0x301C, symBinAddr: 0x155DC, symSize: 0x24 }
  - { offset: 0x411C9, size: 0x8, addend: 0x0, symName: '__ZN4pyo38instance11Py$LT$T$GT$10into_bound17h04d8408d108e8ef0E', symObjAddr: 0x1368, symBinAddr: 0x13928, symSize: 0x1C }
  - { offset: 0x4120F, size: 0x8, addend: 0x0, symName: '__ZN4pyo38instance11Py$LT$T$GT$10into_bound17h11ecd359f7f77c06E', symObjAddr: 0x1384, symBinAddr: 0x13944, symSize: 0x1C }
  - { offset: 0x41262, size: 0x8, addend: 0x0, symName: '__ZN4pyo38instance11Py$LT$T$GT$10into_bound17h2551bba2213e9150E', symObjAddr: 0x13A0, symBinAddr: 0x13960, symSize: 0x1C }
  - { offset: 0x412A8, size: 0x8, addend: 0x0, symName: '__ZN4pyo38instance11Py$LT$T$GT$10into_bound17h3a717f7302dc87b4E', symObjAddr: 0x13BC, symBinAddr: 0x1397C, symSize: 0x1C }
  - { offset: 0x412EE, size: 0x8, addend: 0x0, symName: '__ZN4pyo38instance11Py$LT$T$GT$10into_bound17h46f8b4f1d59d1470E', symObjAddr: 0x13D8, symBinAddr: 0x13998, symSize: 0x1C }
  - { offset: 0x41334, size: 0x8, addend: 0x0, symName: '__ZN4pyo38instance11Py$LT$T$GT$10into_bound17h617cd6d5bebe4c47E', symObjAddr: 0x13F4, symBinAddr: 0x139B4, symSize: 0x1C }
  - { offset: 0x4137A, size: 0x8, addend: 0x0, symName: '__ZN4pyo38instance11Py$LT$T$GT$10into_bound17h96c8cf9c0971c750E', symObjAddr: 0x1410, symBinAddr: 0x139D0, symSize: 0x1C }
  - { offset: 0x413C0, size: 0x8, addend: 0x0, symName: '__ZN4pyo38instance11Py$LT$T$GT$10into_bound17hd526010501ad00a1E', symObjAddr: 0x142C, symBinAddr: 0x139EC, symSize: 0x1C }
  - { offset: 0x41406, size: 0x8, addend: 0x0, symName: '__ZN4pyo38instance11Py$LT$T$GT$10into_bound17hffb7c5d844a3a0b6E', symObjAddr: 0x1448, symBinAddr: 0x13A08, symSize: 0x1C }
  - { offset: 0x4144C, size: 0x8, addend: 0x0, symName: '__ZN4pyo38instance11Py$LT$T$GT$13from_non_null17h3b5600d7f4e4a509E', symObjAddr: 0x1464, symBinAddr: 0x13A24, symSize: 0x14 }
  - { offset: 0x41478, size: 0x8, addend: 0x0, symName: '__ZN4pyo38instance11Py$LT$T$GT$13from_non_null17h48c91fb2dd3ee72aE', symObjAddr: 0x1478, symBinAddr: 0x13A38, symSize: 0x14 }
  - { offset: 0x414A4, size: 0x8, addend: 0x0, symName: '__ZN4pyo38instance11Py$LT$T$GT$13from_non_null17h4aa91e21b5ceab40E', symObjAddr: 0x148C, symBinAddr: 0x13A4C, symSize: 0x14 }
  - { offset: 0x414D0, size: 0x8, addend: 0x0, symName: '__ZN4pyo38instance11Py$LT$T$GT$13from_non_null17h7eb8fafbf9eef060E', symObjAddr: 0x14A0, symBinAddr: 0x13A60, symSize: 0x14 }
  - { offset: 0x414FC, size: 0x8, addend: 0x0, symName: '__ZN4pyo38instance11Py$LT$T$GT$13from_non_null17hb8aa58c98f1ce02dE', symObjAddr: 0x14B4, symBinAddr: 0x13A74, symSize: 0x14 }
  - { offset: 0x41528, size: 0x8, addend: 0x0, symName: '__ZN4pyo38instance11Py$LT$T$GT$13from_non_null17hcc797500f47a9864E', symObjAddr: 0x14C8, symBinAddr: 0x13A88, symSize: 0x14 }
  - { offset: 0x41554, size: 0x8, addend: 0x0, symName: '__ZN4pyo38instance11Py$LT$T$GT$13from_non_null17hcedf49a50703dfeeE', symObjAddr: 0x14DC, symBinAddr: 0x13A9C, symSize: 0x14 }
  - { offset: 0x41580, size: 0x8, addend: 0x0, symName: '__ZN4pyo38instance11Py$LT$T$GT$13from_non_null17hebfdfbb19ccdfa83E', symObjAddr: 0x14F0, symBinAddr: 0x13AB0, symSize: 0x14 }
  - { offset: 0x415AC, size: 0x8, addend: 0x0, symName: '__ZN4pyo38instance11Py$LT$T$GT$13from_non_null17hf72bd9be195b5e52E', symObjAddr: 0x1504, symBinAddr: 0x13AC4, symSize: 0x14 }
  - { offset: 0x415F2, size: 0x8, addend: 0x0, symName: '__ZN4pyo38instance11Py$LT$T$GT$16get_class_object17h22bd3727072d3bb9E', symObjAddr: 0x1518, symBinAddr: 0x13AD8, symSize: 0x34 }
  - { offset: 0x41638, size: 0x8, addend: 0x0, symName: '__ZN4pyo38instance11Py$LT$T$GT$16get_class_object17h30a5c7458a2f43f9E', symObjAddr: 0x154C, symBinAddr: 0x13B0C, symSize: 0x34 }
  - { offset: 0x4167E, size: 0x8, addend: 0x0, symName: '__ZN4pyo38instance11Py$LT$T$GT$16get_class_object17h3126cf7d104b5c40E', symObjAddr: 0x1580, symBinAddr: 0x13B40, symSize: 0x34 }
  - { offset: 0x416C4, size: 0x8, addend: 0x0, symName: '__ZN4pyo38instance11Py$LT$T$GT$16get_class_object17h60507d094c99c5c8E', symObjAddr: 0x15B4, symBinAddr: 0x13B74, symSize: 0x34 }
  - { offset: 0x4170A, size: 0x8, addend: 0x0, symName: '__ZN4pyo38instance11Py$LT$T$GT$16get_class_object17h6e16c263fe5c6aebE', symObjAddr: 0x15E8, symBinAddr: 0x13BA8, symSize: 0x34 }
  - { offset: 0x41750, size: 0x8, addend: 0x0, symName: '__ZN4pyo38instance11Py$LT$T$GT$16get_class_object17h832a11ae9e825951E', symObjAddr: 0x161C, symBinAddr: 0x13BDC, symSize: 0x34 }
  - { offset: 0x41796, size: 0x8, addend: 0x0, symName: '__ZN4pyo38instance11Py$LT$T$GT$16get_class_object17h951cee9219974f6dE', symObjAddr: 0x1650, symBinAddr: 0x13C10, symSize: 0x34 }
  - { offset: 0x417DC, size: 0x8, addend: 0x0, symName: '__ZN4pyo38instance11Py$LT$T$GT$16get_class_object17hb6d29d5ce5a806caE', symObjAddr: 0x1684, symBinAddr: 0x13C44, symSize: 0x34 }
  - { offset: 0x41822, size: 0x8, addend: 0x0, symName: '__ZN4pyo38instance11Py$LT$T$GT$16get_class_object17hdbbc35305f7cfe90E', symObjAddr: 0x16B8, symBinAddr: 0x13C78, symSize: 0x34 }
  - { offset: 0x4184E, size: 0x8, addend: 0x0, symName: '__ZN4pyo38instance11Py$LT$T$GT$6as_ptr17h3cc337dc6c643646E', symObjAddr: 0x16EC, symBinAddr: 0x13CAC, symSize: 0x1C }
  - { offset: 0x4187A, size: 0x8, addend: 0x0, symName: '__ZN4pyo38instance11Py$LT$T$GT$6as_ptr17h42e4d8c762c4d62cE', symObjAddr: 0x1708, symBinAddr: 0x13CC8, symSize: 0x1C }
  - { offset: 0x418A6, size: 0x8, addend: 0x0, symName: '__ZN4pyo38instance11Py$LT$T$GT$6as_ptr17ha3e1452a78a14b18E', symObjAddr: 0x1724, symBinAddr: 0x13CE4, symSize: 0x1C }
  - { offset: 0x418D2, size: 0x8, addend: 0x0, symName: '__ZN4pyo38instance11Py$LT$T$GT$6as_ptr17ha5145418f0279b39E', symObjAddr: 0x1740, symBinAddr: 0x13D00, symSize: 0x1C }
  - { offset: 0x418FE, size: 0x8, addend: 0x0, symName: '__ZN4pyo38instance11Py$LT$T$GT$6as_ptr17hcb1b875b2cae5c8dE', symObjAddr: 0x175C, symBinAddr: 0x13D1C, symSize: 0x1C }
  - { offset: 0x4192A, size: 0x8, addend: 0x0, symName: '__ZN4pyo38instance11Py$LT$T$GT$6as_ptr17hcdc5bef6918bd635E', symObjAddr: 0x1778, symBinAddr: 0x13D38, symSize: 0x1C }
  - { offset: 0x41956, size: 0x8, addend: 0x0, symName: '__ZN4pyo38instance11Py$LT$T$GT$6as_ptr17hcf0ad8b9a381ef7cE', symObjAddr: 0x1794, symBinAddr: 0x13D54, symSize: 0x1C }
  - { offset: 0x41982, size: 0x8, addend: 0x0, symName: '__ZN4pyo38instance11Py$LT$T$GT$6as_ptr17hdad67ad8ce1bbd7cE', symObjAddr: 0x17B0, symBinAddr: 0x13D70, symSize: 0x1C }
  - { offset: 0x419AE, size: 0x8, addend: 0x0, symName: '__ZN4pyo38instance11Py$LT$T$GT$6as_ptr17hf3f340acd936e596E', symObjAddr: 0x17CC, symBinAddr: 0x13D8C, symSize: 0x1C }
  - { offset: 0x419DA, size: 0x8, addend: 0x0, symName: '__ZN4pyo38instance11Py$LT$T$GT$8into_any17h050414b3e8100bd8E', symObjAddr: 0x17E8, symBinAddr: 0x13DA8, symSize: 0x3C }
  - { offset: 0x41A06, size: 0x8, addend: 0x0, symName: '__ZN4pyo38instance11Py$LT$T$GT$8into_any17h1f1bfbf71bd269caE', symObjAddr: 0x1824, symBinAddr: 0x13DE4, symSize: 0x3C }
  - { offset: 0x41A32, size: 0x8, addend: 0x0, symName: '__ZN4pyo38instance11Py$LT$T$GT$8into_any17h23c6f1b99392619fE', symObjAddr: 0x1860, symBinAddr: 0x13E20, symSize: 0x3C }
  - { offset: 0x41A5E, size: 0x8, addend: 0x0, symName: '__ZN4pyo38instance11Py$LT$T$GT$8into_any17h5af9eb3c55457d1cE', symObjAddr: 0x189C, symBinAddr: 0x13E5C, symSize: 0x3C }
  - { offset: 0x41A8A, size: 0x8, addend: 0x0, symName: '__ZN4pyo38instance11Py$LT$T$GT$8into_any17h8f7a9ded467d9f99E', symObjAddr: 0x18D8, symBinAddr: 0x13E98, symSize: 0x3C }
  - { offset: 0x41AB6, size: 0x8, addend: 0x0, symName: '__ZN4pyo38instance11Py$LT$T$GT$8into_any17hb8a482188bdf36ecE', symObjAddr: 0x1914, symBinAddr: 0x13ED4, symSize: 0x3C }
  - { offset: 0x41AE2, size: 0x8, addend: 0x0, symName: '__ZN4pyo38instance11Py$LT$T$GT$8into_any17hc9b8eaf288108c0aE', symObjAddr: 0x1950, symBinAddr: 0x13F10, symSize: 0x3C }
  - { offset: 0x41B0E, size: 0x8, addend: 0x0, symName: '__ZN4pyo38instance11Py$LT$T$GT$8into_any17hcd7a6600e3beb511E', symObjAddr: 0x198C, symBinAddr: 0x13F4C, symSize: 0x3C }
  - { offset: 0x41B3A, size: 0x8, addend: 0x0, symName: '__ZN4pyo38instance11Py$LT$T$GT$8into_any17he2292a329b90e848E', symObjAddr: 0x19C8, symBinAddr: 0x13F88, symSize: 0x3C }
  - { offset: 0x41B66, size: 0x8, addend: 0x0, symName: '__ZN4pyo38instance11Py$LT$T$GT$8into_ptr17h44b5a1ecc8858d12E', symObjAddr: 0x1A04, symBinAddr: 0x13FC4, symSize: 0x30 }
  - { offset: 0x41B92, size: 0x8, addend: 0x0, symName: '__ZN4pyo38instance11Py$LT$T$GT$9clone_ref17h3428094574430354E', symObjAddr: 0x1A34, symBinAddr: 0x13FF4, symSize: 0xD0 }
  - { offset: 0x41C38, size: 0x8, addend: 0x0, symName: '__ZN4pyo38instance11Py$LT$T$GT$9clone_ref17h645a0e555007e28dE', symObjAddr: 0x1B04, symBinAddr: 0x140C4, symSize: 0xD0 }
  - { offset: 0x41CDE, size: 0x8, addend: 0x0, symName: '__ZN4pyo38instance11Py$LT$T$GT$9clone_ref17h6b77f709f18c5bf7E', symObjAddr: 0x1BD4, symBinAddr: 0x14194, symSize: 0xD0 }
  - { offset: 0x41D84, size: 0x8, addend: 0x0, symName: '__ZN4pyo38instance11Py$LT$T$GT$9clone_ref17h77be7e7e089e4c4fE', symObjAddr: 0x1CA4, symBinAddr: 0x14264, symSize: 0xD0 }
  - { offset: 0x41E2A, size: 0x8, addend: 0x0, symName: '__ZN4pyo38instance11Py$LT$T$GT$9clone_ref17h804e9f94a72d0246E', symObjAddr: 0x1D74, symBinAddr: 0x14334, symSize: 0xD0 }
  - { offset: 0x41ED0, size: 0x8, addend: 0x0, symName: '__ZN4pyo38instance11Py$LT$T$GT$9clone_ref17habb0eca73034862dE', symObjAddr: 0x1E44, symBinAddr: 0x14404, symSize: 0xD0 }
  - { offset: 0x41F76, size: 0x8, addend: 0x0, symName: '__ZN4pyo38instance11Py$LT$T$GT$9clone_ref17hb86bc14ec436477aE', symObjAddr: 0x1F14, symBinAddr: 0x144D4, symSize: 0xD0 }
  - { offset: 0x4201C, size: 0x8, addend: 0x0, symName: '__ZN4pyo38instance11Py$LT$T$GT$9clone_ref17hb947203af9ab2f63E', symObjAddr: 0x1FE4, symBinAddr: 0x145A4, symSize: 0xD0 }
  - { offset: 0x420C2, size: 0x8, addend: 0x0, symName: '__ZN4pyo38instance11Py$LT$T$GT$9clone_ref17hd04001f1843b2036E', symObjAddr: 0x20B4, symBinAddr: 0x14674, symSize: 0xD0 }
  - { offset: 0x4217C, size: 0x8, addend: 0x0, symName: '__ZN4pyo38instance14Bound$LT$T$GT$10try_borrow17h09fba9c749100519E', symObjAddr: 0x2184, symBinAddr: 0x14744, symSize: 0x24 }
  - { offset: 0x421B5, size: 0x8, addend: 0x0, symName: '__ZN4pyo38instance14Bound$LT$T$GT$10try_borrow17h12f13c30e1d94a5aE', symObjAddr: 0x21A8, symBinAddr: 0x14768, symSize: 0x24 }
  - { offset: 0x421EE, size: 0x8, addend: 0x0, symName: '__ZN4pyo38instance14Bound$LT$T$GT$10try_borrow17h28e565fbabb26035E', symObjAddr: 0x21CC, symBinAddr: 0x1478C, symSize: 0x24 }
  - { offset: 0x42227, size: 0x8, addend: 0x0, symName: '__ZN4pyo38instance14Bound$LT$T$GT$10try_borrow17h2ef9258808519343E', symObjAddr: 0x21F0, symBinAddr: 0x147B0, symSize: 0x24 }
  - { offset: 0x42260, size: 0x8, addend: 0x0, symName: '__ZN4pyo38instance14Bound$LT$T$GT$10try_borrow17h4a280d244be20118E', symObjAddr: 0x2214, symBinAddr: 0x147D4, symSize: 0x24 }
  - { offset: 0x42299, size: 0x8, addend: 0x0, symName: '__ZN4pyo38instance14Bound$LT$T$GT$10try_borrow17h7c04f8ba753aa6fbE', symObjAddr: 0x2238, symBinAddr: 0x147F8, symSize: 0x24 }
  - { offset: 0x422D2, size: 0x8, addend: 0x0, symName: '__ZN4pyo38instance14Bound$LT$T$GT$10try_borrow17h82161f0140d09b5eE', symObjAddr: 0x225C, symBinAddr: 0x1481C, symSize: 0x24 }
  - { offset: 0x4230B, size: 0x8, addend: 0x0, symName: '__ZN4pyo38instance14Bound$LT$T$GT$10try_borrow17hcbfc153b1e33c293E', symObjAddr: 0x2280, symBinAddr: 0x14840, symSize: 0x24 }
  - { offset: 0x42344, size: 0x8, addend: 0x0, symName: '__ZN4pyo38instance14Bound$LT$T$GT$10try_borrow17hdacfa2ec84da24b2E', symObjAddr: 0x22A4, symBinAddr: 0x14864, symSize: 0x24 }
  - { offset: 0x42370, size: 0x8, addend: 0x0, symName: '__ZN4pyo38instance14Bound$LT$T$GT$16get_class_object17h07d4d1740e1278a0E', symObjAddr: 0x22C8, symBinAddr: 0x14888, symSize: 0x2C }
  - { offset: 0x4239C, size: 0x8, addend: 0x0, symName: '__ZN4pyo38instance14Bound$LT$T$GT$16get_class_object17h105d3126d9ededa4E', symObjAddr: 0x22F4, symBinAddr: 0x148B4, symSize: 0x2C }
  - { offset: 0x423C8, size: 0x8, addend: 0x0, symName: '__ZN4pyo38instance14Bound$LT$T$GT$16get_class_object17h14a09ba094c0a356E', symObjAddr: 0x2320, symBinAddr: 0x148E0, symSize: 0x2C }
  - { offset: 0x423F4, size: 0x8, addend: 0x0, symName: '__ZN4pyo38instance14Bound$LT$T$GT$16get_class_object17h312a97f893663503E', symObjAddr: 0x234C, symBinAddr: 0x1490C, symSize: 0x2C }
  - { offset: 0x42420, size: 0x8, addend: 0x0, symName: '__ZN4pyo38instance14Bound$LT$T$GT$16get_class_object17h4a41b58f3bc7bf54E', symObjAddr: 0x2378, symBinAddr: 0x14938, symSize: 0x2C }
  - { offset: 0x4244C, size: 0x8, addend: 0x0, symName: '__ZN4pyo38instance14Bound$LT$T$GT$16get_class_object17h4dfa337b95a74e7eE', symObjAddr: 0x23A4, symBinAddr: 0x14964, symSize: 0x2C }
  - { offset: 0x42478, size: 0x8, addend: 0x0, symName: '__ZN4pyo38instance14Bound$LT$T$GT$16get_class_object17h8bf07f46735fe723E', symObjAddr: 0x23D0, symBinAddr: 0x14990, symSize: 0x2C }
  - { offset: 0x424A4, size: 0x8, addend: 0x0, symName: '__ZN4pyo38instance14Bound$LT$T$GT$16get_class_object17hbaa0d8ac935d10e0E', symObjAddr: 0x23FC, symBinAddr: 0x149BC, symSize: 0x2C }
  - { offset: 0x424D0, size: 0x8, addend: 0x0, symName: '__ZN4pyo38instance14Bound$LT$T$GT$16get_class_object17hfb0dc98ef87f49eaE', symObjAddr: 0x2428, symBinAddr: 0x149E8, symSize: 0x2C }
  - { offset: 0x426CB, size: 0x8, addend: 0x0, symName: '__ZN4pyo38instance14Bound$LT$T$GT$3new17h3f011294b7a70ec2E', symObjAddr: 0x2454, symBinAddr: 0x14A14, symSize: 0x3C }
  - { offset: 0x42718, size: 0x8, addend: 0x0, symName: '__ZN4pyo38instance14Bound$LT$T$GT$3new17h419c2f00536e3020E', symObjAddr: 0x2490, symBinAddr: 0x14A50, symSize: 0x3C }
  - { offset: 0x42765, size: 0x8, addend: 0x0, symName: '__ZN4pyo38instance14Bound$LT$T$GT$3new17h594d02f6eb97b365E', symObjAddr: 0x24CC, symBinAddr: 0x14A8C, symSize: 0x3C }
  - { offset: 0x427B2, size: 0x8, addend: 0x0, symName: '__ZN4pyo38instance14Bound$LT$T$GT$3new17h5c973522a64a2071E', symObjAddr: 0x2508, symBinAddr: 0x14AC8, symSize: 0x34 }
  - { offset: 0x427FE, size: 0x8, addend: 0x0, symName: '__ZN4pyo38instance14Bound$LT$T$GT$3new17h777cd6ba5fd91535E', symObjAddr: 0x253C, symBinAddr: 0x14AFC, symSize: 0x3C }
  - { offset: 0x4284B, size: 0x8, addend: 0x0, symName: '__ZN4pyo38instance14Bound$LT$T$GT$3new17hb2ef7f58afa5ba21E', symObjAddr: 0x2578, symBinAddr: 0x14B38, symSize: 0x3C }
  - { offset: 0x42898, size: 0x8, addend: 0x0, symName: '__ZN4pyo38instance14Bound$LT$T$GT$3new17hbd1b8423cefd05ddE', symObjAddr: 0x25B4, symBinAddr: 0x14B74, symSize: 0x3C }
  - { offset: 0x428E5, size: 0x8, addend: 0x0, symName: '__ZN4pyo38instance14Bound$LT$T$GT$3new17hc441fa3d42d90ff9E', symObjAddr: 0x25F0, symBinAddr: 0x14BB0, symSize: 0x3C }
  - { offset: 0x42932, size: 0x8, addend: 0x0, symName: '__ZN4pyo38instance14Bound$LT$T$GT$3new17hc46f5a411d51beeeE', symObjAddr: 0x262C, symBinAddr: 0x14BEC, symSize: 0x3C }
  - { offset: 0x4297F, size: 0x8, addend: 0x0, symName: '__ZN4pyo38instance14Bound$LT$T$GT$6as_ptr17h1d3b649f283bc289E', symObjAddr: 0x2668, symBinAddr: 0x14C28, symSize: 0x2C }
  - { offset: 0x429AB, size: 0x8, addend: 0x0, symName: '__ZN4pyo38instance14Bound$LT$T$GT$6as_ptr17h3515a5f2f318ae24E', symObjAddr: 0x2694, symBinAddr: 0x14C54, symSize: 0x2C }
  - { offset: 0x429D7, size: 0x8, addend: 0x0, symName: '__ZN4pyo38instance14Bound$LT$T$GT$6as_ptr17h3f32ad91ea9d0aeaE', symObjAddr: 0x26C0, symBinAddr: 0x14C80, symSize: 0x2C }
  - { offset: 0x42A03, size: 0x8, addend: 0x0, symName: '__ZN4pyo38instance14Bound$LT$T$GT$6as_ptr17h409634f7bca16bcaE', symObjAddr: 0x26EC, symBinAddr: 0x14CAC, symSize: 0x2C }
  - { offset: 0x42A2F, size: 0x8, addend: 0x0, symName: '__ZN4pyo38instance14Bound$LT$T$GT$6as_ptr17h48b0003be2cc9ff9E', symObjAddr: 0x2718, symBinAddr: 0x14CD8, symSize: 0x2C }
  - { offset: 0x42A5B, size: 0x8, addend: 0x0, symName: '__ZN4pyo38instance14Bound$LT$T$GT$6as_ptr17h6778738efa154741E', symObjAddr: 0x2744, symBinAddr: 0x14D04, symSize: 0x2C }
  - { offset: 0x42A87, size: 0x8, addend: 0x0, symName: '__ZN4pyo38instance14Bound$LT$T$GT$6as_ptr17hc3806f2a697d1442E', symObjAddr: 0x2770, symBinAddr: 0x14D30, symSize: 0x2C }
  - { offset: 0x42AB3, size: 0x8, addend: 0x0, symName: '__ZN4pyo38instance14Bound$LT$T$GT$6as_ptr17hc66b7c0467ab8571E', symObjAddr: 0x279C, symBinAddr: 0x14D5C, symSize: 0x2C }
  - { offset: 0x42ADF, size: 0x8, addend: 0x0, symName: '__ZN4pyo38instance14Bound$LT$T$GT$6as_ptr17hd1fdbe4d1c677411E', symObjAddr: 0x27C8, symBinAddr: 0x14D88, symSize: 0x2C }
  - { offset: 0x42B0B, size: 0x8, addend: 0x0, symName: '__ZN4pyo38instance14Bound$LT$T$GT$6unbind17h3866586ea8f9e5a7E', symObjAddr: 0x27F4, symBinAddr: 0x14DB4, symSize: 0x48 }
  - { offset: 0x42B55, size: 0x8, addend: 0x0, symName: '__ZN4pyo38instance14Bound$LT$T$GT$6unbind17h47c1342c42977855E', symObjAddr: 0x283C, symBinAddr: 0x14DFC, symSize: 0x48 }
  - { offset: 0x42B9F, size: 0x8, addend: 0x0, symName: '__ZN4pyo38instance14Bound$LT$T$GT$6unbind17h664829c3f8568971E', symObjAddr: 0x2884, symBinAddr: 0x14E44, symSize: 0x48 }
  - { offset: 0x42BE9, size: 0x8, addend: 0x0, symName: '__ZN4pyo38instance14Bound$LT$T$GT$6unbind17h78a7ca23fcaa9045E', symObjAddr: 0x28CC, symBinAddr: 0x14E8C, symSize: 0x48 }
  - { offset: 0x42C33, size: 0x8, addend: 0x0, symName: '__ZN4pyo38instance14Bound$LT$T$GT$6unbind17h871f373c6fe238f2E', symObjAddr: 0x2914, symBinAddr: 0x14ED4, symSize: 0x48 }
  - { offset: 0x42C7D, size: 0x8, addend: 0x0, symName: '__ZN4pyo38instance14Bound$LT$T$GT$6unbind17hbb6e08cbb66dd938E', symObjAddr: 0x295C, symBinAddr: 0x14F1C, symSize: 0x48 }
  - { offset: 0x42CC7, size: 0x8, addend: 0x0, symName: '__ZN4pyo38instance14Bound$LT$T$GT$6unbind17hc7a9a06ad76ead48E', symObjAddr: 0x29A4, symBinAddr: 0x14F64, symSize: 0x48 }
  - { offset: 0x42D11, size: 0x8, addend: 0x0, symName: '__ZN4pyo38instance14Bound$LT$T$GT$6unbind17hef38a34834b4a13cE', symObjAddr: 0x29EC, symBinAddr: 0x14FAC, symSize: 0x48 }
  - { offset: 0x42D5B, size: 0x8, addend: 0x0, symName: '__ZN4pyo38instance14Bound$LT$T$GT$6unbind17hfc9a20ce5122e72fE', symObjAddr: 0x2A34, symBinAddr: 0x14FF4, symSize: 0x48 }
  - { offset: 0x42DA5, size: 0x8, addend: 0x0, symName: '__ZN4pyo38instance14Bound$LT$T$GT$8into_any17h220eda68e86ea717E', symObjAddr: 0x2A7C, symBinAddr: 0x1503C, symSize: 0x30 }
  - { offset: 0x42DD1, size: 0x8, addend: 0x0, symName: '__ZN4pyo38instance14Bound$LT$T$GT$8into_any17h22676ff4baa4241cE', symObjAddr: 0x2AAC, symBinAddr: 0x1506C, symSize: 0x30 }
  - { offset: 0x42DFD, size: 0x8, addend: 0x0, symName: '__ZN4pyo38instance14Bound$LT$T$GT$8into_any17h456584439672696bE', symObjAddr: 0x2ADC, symBinAddr: 0x1509C, symSize: 0x30 }
  - { offset: 0x42E29, size: 0x8, addend: 0x0, symName: '__ZN4pyo38instance14Bound$LT$T$GT$8into_any17h5da8a9372a4badb4E', symObjAddr: 0x2B0C, symBinAddr: 0x150CC, symSize: 0x30 }
  - { offset: 0x42E55, size: 0x8, addend: 0x0, symName: '__ZN4pyo38instance14Bound$LT$T$GT$8into_any17h6d79c870d927ac70E', symObjAddr: 0x2B3C, symBinAddr: 0x150FC, symSize: 0x30 }
  - { offset: 0x42E81, size: 0x8, addend: 0x0, symName: '__ZN4pyo38instance14Bound$LT$T$GT$8into_any17hca47efb342bef02bE', symObjAddr: 0x2B6C, symBinAddr: 0x1512C, symSize: 0x30 }
  - { offset: 0x42EAD, size: 0x8, addend: 0x0, symName: '__ZN4pyo38instance14Bound$LT$T$GT$8into_any17hcfcbf17c78edd1e9E', symObjAddr: 0x2B9C, symBinAddr: 0x1515C, symSize: 0x30 }
  - { offset: 0x42ED9, size: 0x8, addend: 0x0, symName: '__ZN4pyo38instance14Bound$LT$T$GT$8into_any17hf1ef01e40d3c430aE', symObjAddr: 0x2BCC, symBinAddr: 0x1518C, symSize: 0x30 }
  - { offset: 0x42F05, size: 0x8, addend: 0x0, symName: '__ZN4pyo38instance14Bound$LT$T$GT$8into_any17hf6a1c36102f323acE', symObjAddr: 0x2BFC, symBinAddr: 0x151BC, symSize: 0x30 }
  - { offset: 0x42F4B, size: 0x8, addend: 0x0, symName: '__ZN4pyo38instance17Borrowed$LT$T$GT$6to_any17h82795d3b805b17b3E', symObjAddr: 0x2C2C, symBinAddr: 0x151EC, symSize: 0x14 }
  - { offset: 0x42F84, size: 0x8, addend: 0x0, symName: '__ZN4pyo38instance39Borrowed$LT$pyo3..types..any..PyAny$GT$18downcast_unchecked17h0af1a75fe0206612E', symObjAddr: 0x2C60, symBinAddr: 0x15220, symSize: 0x14 }
  - { offset: 0x42FB0, size: 0x8, addend: 0x0, symName: '__ZN4pyo38instance39Borrowed$LT$pyo3..types..any..PyAny$GT$18downcast_unchecked17h1e668a56e14d4573E', symObjAddr: 0x2C74, symBinAddr: 0x15234, symSize: 0x14 }
  - { offset: 0x42FE9, size: 0x8, addend: 0x0, symName: '__ZN4pyo38internal8get_slot78_$LT$impl$u20$pyo3..instance..Bound$LT$pyo3..types..typeobject..PyType$GT$$GT$8get_slot17h0c75fc45f94bb409E', symObjAddr: 0x2C88, symBinAddr: 0x15248, symSize: 0x28 }
  - { offset: 0x4328B, size: 0x8, addend: 0x0, symName: '__ZN119_$LT$pyo3..instance..Bound$LT$pyo3..types..typeobject..PyType$GT$$u20$as$u20$pyo3..types..typeobject..PyTypeMethods$GT$11as_type_ptr17h132a19d7bda73d63E', symObjAddr: 0x0, symBinAddr: 0x15600, symSize: 0x24 }
  - { offset: 0x44959, size: 0x8, addend: 0x0, symName: '__ZN119_$LT$pyo3..instance..Bound$LT$pyo3..types..typeobject..PyType$GT$$u20$as$u20$pyo3..types..typeobject..PyTypeMethods$GT$11as_type_ptr17h132a19d7bda73d63E', symObjAddr: 0x0, symBinAddr: 0x15600, symSize: 0x24 }
  - { offset: 0x449A6, size: 0x8, addend: 0x0, symName: '__ZN123_$LT$pyo3..instance..Bound$LT$pyo3..types..sequence..PySequence$GT$$u20$as$u20$pyo3..types..sequence..PySequenceMethods$GT$3len17h27cefd422af7d8b6E', symObjAddr: 0x24, symBinAddr: 0x15624, symSize: 0xBC }
  - { offset: 0x44A26, size: 0x8, addend: 0x0, symName: '__ZN4pyo35types8iterator131_$LT$impl$u20$core..iter..traits..iterator..Iterator$u20$for$u20$pyo3..instance..Bound$LT$pyo3..types..iterator..PyIterator$GT$$GT$4next17ha0276c504fe08982E', symObjAddr: 0xE0, symBinAddr: 0x156E0, symSize: 0x30 }
  - { offset: 0x452E4, size: 0x8, addend: 0x0, symName: '__ZN4pyo38instance36Bound$LT$pyo3..types..any..PyAny$GT$14from_owned_ptr17h176bb6368d2e7031E', symObjAddr: 0x110, symBinAddr: 0x15710, symSize: 0x2C }
  - { offset: 0x4532B, size: 0x8, addend: 0x0, symName: '__ZN4pyo38instance39Borrowed$LT$pyo3..types..any..PyAny$GT$15from_ptr_or_opt17h6be67d6f2381060eE', symObjAddr: 0x13C, symBinAddr: 0x1573C, symSize: 0x2C }
  - { offset: 0x45368, size: 0x8, addend: 0x0, symName: '__ZN4pyo38instance39Borrowed$LT$pyo3..types..any..PyAny$GT$18from_ptr_unchecked17haa2a678b6cbb1a0bE', symObjAddr: 0x168, symBinAddr: 0x15768, symSize: 0x24 }
  - { offset: 0x453A5, size: 0x8, addend: 0x0, symName: '__ZN4pyo38instance39Borrowed$LT$pyo3..types..any..PyAny$GT$8from_ptr17hddf33137967b6e01E', symObjAddr: 0x18C, symBinAddr: 0x1578C, symSize: 0x34 }
  - { offset: 0x455FD, size: 0x8, addend: 0x0, symName: '__ZN4pyo312pyclass_init27PyClassInitializer$LT$T$GT$19create_class_object17h17444137356f06b4E', symObjAddr: 0x0, symBinAddr: 0x157C0, symSize: 0x98 }
  - { offset: 0x48505, size: 0x8, addend: 0x0, symName: '__ZN96_$LT$pyo3..pyclass_init..PyClassInitializer$LT$T$GT$$u20$as$u20$core..convert..From$LT$T$GT$$GT$4from17h09f104d86f3bf948E', symObjAddr: 0x2088, symBinAddr: 0x17848, symSize: 0x1C }
  - { offset: 0x4853B, size: 0x8, addend: 0x0, symName: '__ZN96_$LT$pyo3..pyclass_init..PyClassInitializer$LT$T$GT$$u20$as$u20$core..convert..From$LT$T$GT$$GT$4from17h0d663926d30d9dc2E', symObjAddr: 0x20A4, symBinAddr: 0x17864, symSize: 0x1C }
  - { offset: 0x48571, size: 0x8, addend: 0x0, symName: '__ZN96_$LT$pyo3..pyclass_init..PyClassInitializer$LT$T$GT$$u20$as$u20$core..convert..From$LT$T$GT$$GT$4from17h462106f4ad48e923E', symObjAddr: 0x20C0, symBinAddr: 0x17880, symSize: 0x1C }
  - { offset: 0x485A7, size: 0x8, addend: 0x0, symName: '__ZN96_$LT$pyo3..pyclass_init..PyClassInitializer$LT$T$GT$$u20$as$u20$core..convert..From$LT$T$GT$$GT$4from17h78e278cafb53f328E', symObjAddr: 0x20DC, symBinAddr: 0x1789C, symSize: 0x1C }
  - { offset: 0x485DD, size: 0x8, addend: 0x0, symName: '__ZN96_$LT$pyo3..pyclass_init..PyClassInitializer$LT$T$GT$$u20$as$u20$core..convert..From$LT$T$GT$$GT$4from17h8b6a1ceace491789E', symObjAddr: 0x20F8, symBinAddr: 0x178B8, symSize: 0x1C }
  - { offset: 0x48613, size: 0x8, addend: 0x0, symName: '__ZN96_$LT$pyo3..pyclass_init..PyClassInitializer$LT$T$GT$$u20$as$u20$core..convert..From$LT$T$GT$$GT$4from17h92db1d94e080d82cE', symObjAddr: 0x2114, symBinAddr: 0x178D4, symSize: 0x1C }
  - { offset: 0x48649, size: 0x8, addend: 0x0, symName: '__ZN96_$LT$pyo3..pyclass_init..PyClassInitializer$LT$T$GT$$u20$as$u20$core..convert..From$LT$T$GT$$GT$4from17h98832f9545ad5f13E', symObjAddr: 0x2130, symBinAddr: 0x178F0, symSize: 0x1C }
  - { offset: 0x4867F, size: 0x8, addend: 0x0, symName: '__ZN96_$LT$pyo3..pyclass_init..PyClassInitializer$LT$T$GT$$u20$as$u20$core..convert..From$LT$T$GT$$GT$4from17ha9bc909a29327057E', symObjAddr: 0x214C, symBinAddr: 0x1790C, symSize: 0x28 }
  - { offset: 0x486B4, size: 0x8, addend: 0x0, symName: '__ZN96_$LT$pyo3..pyclass_init..PyClassInitializer$LT$T$GT$$u20$as$u20$core..convert..From$LT$T$GT$$GT$4from17hdccd3a4302de094bE', symObjAddr: 0x2174, symBinAddr: 0x17934, symSize: 0x1C }
  - { offset: 0x497E3, size: 0x8, addend: 0x0, symName: '__ZN4pyo312pyclass_init27PyClassInitializer$LT$T$GT$19create_class_object17h17444137356f06b4E', symObjAddr: 0x0, symBinAddr: 0x157C0, symSize: 0x98 }
  - { offset: 0x49834, size: 0x8, addend: 0x0, symName: '__ZN4pyo312pyclass_init27PyClassInitializer$LT$T$GT$19create_class_object17h700990b1a58ad4b6E', symObjAddr: 0x98, symBinAddr: 0x15858, symSize: 0x94 }
  - { offset: 0x49878, size: 0x8, addend: 0x0, symName: '__ZN4pyo312pyclass_init27PyClassInitializer$LT$T$GT$19create_class_object17hbdad707bef9db43dE', symObjAddr: 0x12C, symBinAddr: 0x158EC, symSize: 0x98 }
  - { offset: 0x498BC, size: 0x8, addend: 0x0, symName: '__ZN4pyo312pyclass_init27PyClassInitializer$LT$T$GT$19create_class_object17hbf9419b1356eb118E', symObjAddr: 0x1C4, symBinAddr: 0x15984, symSize: 0x9C }
  - { offset: 0x498FF, size: 0x8, addend: 0x0, symName: '__ZN4pyo312pyclass_init27PyClassInitializer$LT$T$GT$19create_class_object17hc3b8ef2a868bc629E', symObjAddr: 0x260, symBinAddr: 0x15A20, symSize: 0x98 }
  - { offset: 0x49943, size: 0x8, addend: 0x0, symName: '__ZN4pyo312pyclass_init27PyClassInitializer$LT$T$GT$19create_class_object17hd0d732fcb9f8df12E', symObjAddr: 0x2F8, symBinAddr: 0x15AB8, symSize: 0x94 }
  - { offset: 0x49987, size: 0x8, addend: 0x0, symName: '__ZN4pyo312pyclass_init27PyClassInitializer$LT$T$GT$19create_class_object17hdc0398c52c128895E', symObjAddr: 0x38C, symBinAddr: 0x15B4C, symSize: 0x98 }
  - { offset: 0x499CB, size: 0x8, addend: 0x0, symName: '__ZN4pyo312pyclass_init27PyClassInitializer$LT$T$GT$19create_class_object17hf05817be0ea71185E', symObjAddr: 0x424, symBinAddr: 0x15BE4, symSize: 0x98 }
  - { offset: 0x49A0F, size: 0x8, addend: 0x0, symName: '__ZN4pyo312pyclass_init27PyClassInitializer$LT$T$GT$19create_class_object17hf89753c7b33cd54fE', symObjAddr: 0x4BC, symBinAddr: 0x15C7C, symSize: 0x98 }
  - { offset: 0x49ACD, size: 0x8, addend: 0x0, symName: '__ZN4pyo312pyclass_init27PyClassInitializer$LT$T$GT$27create_class_object_of_type17h2ceab609d8b2864dE', symObjAddr: 0x554, symBinAddr: 0x15D14, symSize: 0x258 }
  - { offset: 0x49CD0, size: 0x8, addend: 0x0, symName: '__ZN4pyo312pyclass_init27PyClassInitializer$LT$T$GT$27create_class_object_of_type17h2e6b80eee1a2204bE', symObjAddr: 0x7AC, symBinAddr: 0x15F6C, symSize: 0x220 }
  - { offset: 0x49ED3, size: 0x8, addend: 0x0, symName: '__ZN4pyo312pyclass_init27PyClassInitializer$LT$T$GT$27create_class_object_of_type17h3285de01d060ff14E', symObjAddr: 0x9CC, symBinAddr: 0x1618C, symSize: 0x258 }
  - { offset: 0x4A0D6, size: 0x8, addend: 0x0, symName: '__ZN4pyo312pyclass_init27PyClassInitializer$LT$T$GT$27create_class_object_of_type17h383d7bc1a666caa0E', symObjAddr: 0xC24, symBinAddr: 0x163E4, symSize: 0x258 }
  - { offset: 0x4A2D9, size: 0x8, addend: 0x0, symName: '__ZN4pyo312pyclass_init27PyClassInitializer$LT$T$GT$27create_class_object_of_type17h68ae90c6f4407965E', symObjAddr: 0xE7C, symBinAddr: 0x1663C, symSize: 0x220 }
  - { offset: 0x4A4DC, size: 0x8, addend: 0x0, symName: '__ZN4pyo312pyclass_init27PyClassInitializer$LT$T$GT$27create_class_object_of_type17h7bac8d349956a15eE', symObjAddr: 0x109C, symBinAddr: 0x1685C, symSize: 0x258 }
  - { offset: 0x4A6DF, size: 0x8, addend: 0x0, symName: '__ZN4pyo312pyclass_init27PyClassInitializer$LT$T$GT$27create_class_object_of_type17ha3b53b46ad74455fE', symObjAddr: 0x12F4, symBinAddr: 0x16AB4, symSize: 0x20C }
  - { offset: 0x4A8B6, size: 0x8, addend: 0x0, symName: '__ZN4pyo312pyclass_init27PyClassInitializer$LT$T$GT$27create_class_object_of_type17hbdc2d0f715e6a45aE', symObjAddr: 0x1500, symBinAddr: 0x16CC0, symSize: 0x288 }
  - { offset: 0x4AAB9, size: 0x8, addend: 0x0, symName: '__ZN4pyo312pyclass_init27PyClassInitializer$LT$T$GT$27create_class_object_of_type17hcefd1b78be51972aE', symObjAddr: 0x1788, symBinAddr: 0x16F48, symSize: 0x258 }
  - { offset: 0x4AC76, size: 0x8, addend: 0x0, symName: '__ZN4pyo312pyclass_init27PyClassInitializer$LT$T$GT$3new17h014098bd245f0e83E', symObjAddr: 0x19E0, symBinAddr: 0x171A0, symSize: 0x98 }
  - { offset: 0x4ACAF, size: 0x8, addend: 0x0, symName: '__ZN4pyo312pyclass_init27PyClassInitializer$LT$T$GT$3new17h038a907911279df9E', symObjAddr: 0x1A78, symBinAddr: 0x17238, symSize: 0xC0 }
  - { offset: 0x4ACE9, size: 0x8, addend: 0x0, symName: '__ZN4pyo312pyclass_init27PyClassInitializer$LT$T$GT$3new17h0e727642a2e13499E', symObjAddr: 0x1B38, symBinAddr: 0x172F8, symSize: 0xC0 }
  - { offset: 0x4AD23, size: 0x8, addend: 0x0, symName: '__ZN4pyo312pyclass_init27PyClassInitializer$LT$T$GT$3new17h190d24d078ebbe0eE', symObjAddr: 0x1BF8, symBinAddr: 0x173B8, symSize: 0xB4 }
  - { offset: 0x4AD5D, size: 0x8, addend: 0x0, symName: '__ZN4pyo312pyclass_init27PyClassInitializer$LT$T$GT$3new17h3e85df433e63f756E', symObjAddr: 0x1CAC, symBinAddr: 0x1746C, symSize: 0xB4 }
  - { offset: 0x4AD97, size: 0x8, addend: 0x0, symName: '__ZN4pyo312pyclass_init27PyClassInitializer$LT$T$GT$3new17h8021ffbd64039d3fE', symObjAddr: 0x1D60, symBinAddr: 0x17520, symSize: 0xC0 }
  - { offset: 0x4ADD1, size: 0x8, addend: 0x0, symName: '__ZN4pyo312pyclass_init27PyClassInitializer$LT$T$GT$3new17h87cc64ab8ccc6d26E', symObjAddr: 0x1E20, symBinAddr: 0x175E0, symSize: 0xC0 }
  - { offset: 0x4AE0B, size: 0x8, addend: 0x0, symName: '__ZN4pyo312pyclass_init27PyClassInitializer$LT$T$GT$3new17h92318c664d50225fE', symObjAddr: 0x1EE0, symBinAddr: 0x176A0, symSize: 0xE8 }
  - { offset: 0x4AE46, size: 0x8, addend: 0x0, symName: '__ZN4pyo312pyclass_init27PyClassInitializer$LT$T$GT$3new17hb5596ae6941a1557E', symObjAddr: 0x1FC8, symBinAddr: 0x17788, symSize: 0xC0 }
  - { offset: 0x4AE9E, size: 0x8, addend: 0x0, symName: __ZN4pyo35impl_10trampoline10trampoline17h34c2e8f4d6289dbcE, symObjAddr: 0x0, symBinAddr: 0x17950, symSize: 0x14C }
  - { offset: 0x4C39D, size: 0x8, addend: 0x0, symName: __ZN4pyo35impl_10trampoline10trampoline17h34c2e8f4d6289dbcE, symObjAddr: 0x0, symBinAddr: 0x17950, symSize: 0x14C }
  - { offset: 0x4C43D, size: 0x8, addend: 0x0, symName: __ZN4pyo35impl_10trampoline10trampoline17h425578545711c1c0E, symObjAddr: 0x14C, symBinAddr: 0x17A9C, symSize: 0x160 }
  - { offset: 0x4C4DF, size: 0x8, addend: 0x0, symName: __ZN4pyo35impl_10trampoline10trampoline17hbe9fc5167d3d039dE, symObjAddr: 0x2AC, symBinAddr: 0x17BFC, symSize: 0x158 }
  - { offset: 0x4C585, size: 0x8, addend: 0x0, symName: '__ZN4pyo35impl_10trampoline10trampoline28_$u7b$$u7b$closure$u7d$$u7d$17h58ff2c715321a66eE', symObjAddr: 0x404, symBinAddr: 0x17D54, symSize: 0x24 }
  - { offset: 0x4C5D2, size: 0x8, addend: 0x0, symName: '__ZN4pyo35impl_10trampoline10trampoline28_$u7b$$u7b$closure$u7d$$u7d$17h863a34050bf004ebE', symObjAddr: 0x428, symBinAddr: 0x17D78, symSize: 0x40 }
  - { offset: 0x4C620, size: 0x8, addend: 0x0, symName: '__ZN4pyo35impl_10trampoline10trampoline28_$u7b$$u7b$closure$u7d$$u7d$17hb45393eb67b86cc5E', symObjAddr: 0x468, symBinAddr: 0x17DB8, symSize: 0x2C }
  - { offset: 0x4C673, size: 0x8, addend: 0x0, symName: '__ZN4pyo35impl_10trampoline11module_init28_$u7b$$u7b$closure$u7d$$u7d$17h9b84fc7eaa765d9fE', symObjAddr: 0x494, symBinAddr: 0x17DE4, symSize: 0x40 }
  - { offset: 0x4C6BE, size: 0x8, addend: 0x0, symName: '__ZN4pyo35impl_10trampoline11module_init28_$u7b$$u7b$closure$u7d$$u7d$28_$u7b$$u7b$closure$u7d$$u7d$17hddc67499552a8c5cE', symObjAddr: 0x4D4, symBinAddr: 0x17E24, symSize: 0x24 }
  - { offset: 0x4C710, size: 0x8, addend: 0x0, symName: __ZN4pyo35impl_10trampoline21trampoline_unraisable17h2f4309fca14152a3E, symObjAddr: 0x4F8, symBinAddr: 0x17E48, symSize: 0x25C }
  - { offset: 0x4C7A9, size: 0x8, addend: 0x0, symName: '__ZN4pyo35impl_10trampoline21trampoline_unraisable28_$u7b$$u7b$closure$u7d$$u7d$17h9c2d01cb769c62ebE', symObjAddr: 0x754, symBinAddr: 0x180A4, symSize: 0x5C }
  - { offset: 0x4C7E8, size: 0x8, addend: 0x0, symName: '__ZN4pyo35impl_10trampoline21trampoline_unraisable28_$u7b$$u7b$closure$u7d$$u7d$17hcbab360c0540f74aE', symObjAddr: 0x7B0, symBinAddr: 0x18100, symSize: 0x2C }
  - { offset: 0x4C839, size: 0x8, addend: 0x0, symName: '__ZN4pyo35impl_10trampoline22fastcall_with_keywords28_$u7b$$u7b$closure$u7d$$u7d$17heb4e8462a08b6a09E', symObjAddr: 0x7DC, symBinAddr: 0x1812C, symSize: 0x48 }
  - { offset: 0x4C904, size: 0x8, addend: 0x0, symName: '__ZN4pyo35impl_10trampoline6noargs28_$u7b$$u7b$closure$u7d$$u7d$17hf2d9ea61264dfe13E', symObjAddr: 0x824, symBinAddr: 0x18174, symSize: 0x34 }
  - { offset: 0x4C980, size: 0x8, addend: 0x0, symName: '__ZN4pyo35impl_10trampoline7dealloc28_$u7b$$u7b$closure$u7d$$u7d$17hda0e1acd652c628bE', symObjAddr: 0x858, symBinAddr: 0x181A8, symSize: 0x40 }
  - { offset: 0x4D3C2, size: 0x8, addend: 0x0, symName: '__ZN100_$LT$pyo3..pycell..impl_..MutableClass$u20$as$u20$pyo3..pycell..impl_..GetBorrowChecker$LT$T$GT$$GT$14borrow_checker17h23439ce9a3734cb6E', symObjAddr: 0x0, symBinAddr: 0x181E8, symSize: 0x14 }
  - { offset: 0x4E876, size: 0x8, addend: 0x0, symName: '__ZN100_$LT$pyo3..pycell..impl_..MutableClass$u20$as$u20$pyo3..pycell..impl_..GetBorrowChecker$LT$T$GT$$GT$14borrow_checker17h23439ce9a3734cb6E', symObjAddr: 0x0, symBinAddr: 0x181E8, symSize: 0x14 }
  - { offset: 0x4E8AB, size: 0x8, addend: 0x0, symName: '__ZN100_$LT$pyo3..pycell..impl_..MutableClass$u20$as$u20$pyo3..pycell..impl_..GetBorrowChecker$LT$T$GT$$GT$14borrow_checker17h328db5f94636f317E', symObjAddr: 0x14, symBinAddr: 0x181FC, symSize: 0x14 }
  - { offset: 0x4E8E0, size: 0x8, addend: 0x0, symName: '__ZN100_$LT$pyo3..pycell..impl_..MutableClass$u20$as$u20$pyo3..pycell..impl_..GetBorrowChecker$LT$T$GT$$GT$14borrow_checker17h646105d00f0cfcbaE', symObjAddr: 0x28, symBinAddr: 0x18210, symSize: 0x14 }
  - { offset: 0x4E915, size: 0x8, addend: 0x0, symName: '__ZN100_$LT$pyo3..pycell..impl_..MutableClass$u20$as$u20$pyo3..pycell..impl_..GetBorrowChecker$LT$T$GT$$GT$14borrow_checker17h7c364a86bfdddcefE', symObjAddr: 0x3C, symBinAddr: 0x18224, symSize: 0x14 }
  - { offset: 0x4E94A, size: 0x8, addend: 0x0, symName: '__ZN100_$LT$pyo3..pycell..impl_..MutableClass$u20$as$u20$pyo3..pycell..impl_..GetBorrowChecker$LT$T$GT$$GT$14borrow_checker17h7ff00ccdd828a739E', symObjAddr: 0x50, symBinAddr: 0x18238, symSize: 0x14 }
  - { offset: 0x4E97F, size: 0x8, addend: 0x0, symName: '__ZN100_$LT$pyo3..pycell..impl_..MutableClass$u20$as$u20$pyo3..pycell..impl_..GetBorrowChecker$LT$T$GT$$GT$14borrow_checker17h9c046b1ed19a8e5fE', symObjAddr: 0x64, symBinAddr: 0x1824C, symSize: 0x14 }
  - { offset: 0x4E9B4, size: 0x8, addend: 0x0, symName: '__ZN100_$LT$pyo3..pycell..impl_..MutableClass$u20$as$u20$pyo3..pycell..impl_..GetBorrowChecker$LT$T$GT$$GT$14borrow_checker17hacfe5af849e85e49E', symObjAddr: 0x78, symBinAddr: 0x18260, symSize: 0x14 }
  - { offset: 0x4E9E9, size: 0x8, addend: 0x0, symName: '__ZN100_$LT$pyo3..pycell..impl_..MutableClass$u20$as$u20$pyo3..pycell..impl_..GetBorrowChecker$LT$T$GT$$GT$14borrow_checker17hc6b425088bdefba5E', symObjAddr: 0x8C, symBinAddr: 0x18274, symSize: 0x14 }
  - { offset: 0x4EA1E, size: 0x8, addend: 0x0, symName: '__ZN100_$LT$pyo3..pycell..impl_..MutableClass$u20$as$u20$pyo3..pycell..impl_..GetBorrowChecker$LT$T$GT$$GT$14borrow_checker17hd1e729c24d4bab91E', symObjAddr: 0xA0, symBinAddr: 0x18288, symSize: 0x14 }
  - { offset: 0x4EA59, size: 0x8, addend: 0x0, symName: '__ZN113_$LT$pyo3..pycell..impl_..PyClassObject$LT$T$GT$$u20$as$u20$pyo3..pycell..impl_..PyClassObjectLayout$LT$T$GT$$GT$10tp_dealloc17h4a2fc367c05009bfE', symObjAddr: 0xB4, symBinAddr: 0x1829C, symSize: 0x6C }
  - { offset: 0x4EABC, size: 0x8, addend: 0x0, symName: '__ZN113_$LT$pyo3..pycell..impl_..PyClassObject$LT$T$GT$$u20$as$u20$pyo3..pycell..impl_..PyClassObjectLayout$LT$T$GT$$GT$10tp_dealloc17h6b0609f74cbda4c8E', symObjAddr: 0x120, symBinAddr: 0x18308, symSize: 0x6C }
  - { offset: 0x4EB1F, size: 0x8, addend: 0x0, symName: '__ZN113_$LT$pyo3..pycell..impl_..PyClassObject$LT$T$GT$$u20$as$u20$pyo3..pycell..impl_..PyClassObjectLayout$LT$T$GT$$GT$10tp_dealloc17h75a75598caf387efE', symObjAddr: 0x18C, symBinAddr: 0x18374, symSize: 0x6C }
  - { offset: 0x4EB82, size: 0x8, addend: 0x0, symName: '__ZN113_$LT$pyo3..pycell..impl_..PyClassObject$LT$T$GT$$u20$as$u20$pyo3..pycell..impl_..PyClassObjectLayout$LT$T$GT$$GT$10tp_dealloc17h9144344f5722193cE', symObjAddr: 0x1F8, symBinAddr: 0x183E0, symSize: 0x6C }
  - { offset: 0x4EBE5, size: 0x8, addend: 0x0, symName: '__ZN113_$LT$pyo3..pycell..impl_..PyClassObject$LT$T$GT$$u20$as$u20$pyo3..pycell..impl_..PyClassObjectLayout$LT$T$GT$$GT$10tp_dealloc17hc873b1fbfb4c8325E', symObjAddr: 0x264, symBinAddr: 0x1844C, symSize: 0x6C }
  - { offset: 0x4EC48, size: 0x8, addend: 0x0, symName: '__ZN113_$LT$pyo3..pycell..impl_..PyClassObject$LT$T$GT$$u20$as$u20$pyo3..pycell..impl_..PyClassObjectLayout$LT$T$GT$$GT$10tp_dealloc17hc8dac6a1e5f2725cE', symObjAddr: 0x2D0, symBinAddr: 0x184B8, symSize: 0x6C }
  - { offset: 0x4ECAB, size: 0x8, addend: 0x0, symName: '__ZN113_$LT$pyo3..pycell..impl_..PyClassObject$LT$T$GT$$u20$as$u20$pyo3..pycell..impl_..PyClassObjectLayout$LT$T$GT$$GT$10tp_dealloc17hd7b8f50e55a0f6f4E', symObjAddr: 0x33C, symBinAddr: 0x18524, symSize: 0x6C }
  - { offset: 0x4ED0E, size: 0x8, addend: 0x0, symName: '__ZN113_$LT$pyo3..pycell..impl_..PyClassObject$LT$T$GT$$u20$as$u20$pyo3..pycell..impl_..PyClassObjectLayout$LT$T$GT$$GT$10tp_dealloc17hdaf89e3439fbab7aE', symObjAddr: 0x3A8, symBinAddr: 0x18590, symSize: 0x6C }
  - { offset: 0x4ED71, size: 0x8, addend: 0x0, symName: '__ZN113_$LT$pyo3..pycell..impl_..PyClassObject$LT$T$GT$$u20$as$u20$pyo3..pycell..impl_..PyClassObjectLayout$LT$T$GT$$GT$10tp_dealloc17hfc163bd10408b0f9E', symObjAddr: 0x414, symBinAddr: 0x185FC, symSize: 0x6C }
  - { offset: 0x4EDD4, size: 0x8, addend: 0x0, symName: '__ZN113_$LT$pyo3..pycell..impl_..PyClassObject$LT$T$GT$$u20$as$u20$pyo3..pycell..impl_..PyClassObjectLayout$LT$T$GT$$GT$17ensure_threadsafe17h05c408a84385b538E', symObjAddr: 0x480, symBinAddr: 0x18668, symSize: 0x30 }
  - { offset: 0x4EE07, size: 0x8, addend: 0x0, symName: '__ZN113_$LT$pyo3..pycell..impl_..PyClassObject$LT$T$GT$$u20$as$u20$pyo3..pycell..impl_..PyClassObjectLayout$LT$T$GT$$GT$17ensure_threadsafe17h2b6b056c166d14ccE', symObjAddr: 0x4B0, symBinAddr: 0x18698, symSize: 0x30 }
  - { offset: 0x4EE3A, size: 0x8, addend: 0x0, symName: '__ZN113_$LT$pyo3..pycell..impl_..PyClassObject$LT$T$GT$$u20$as$u20$pyo3..pycell..impl_..PyClassObjectLayout$LT$T$GT$$GT$17ensure_threadsafe17h2c4f6ac9a1325f68E', symObjAddr: 0x4E0, symBinAddr: 0x186C8, symSize: 0x30 }
  - { offset: 0x4EE6D, size: 0x8, addend: 0x0, symName: '__ZN113_$LT$pyo3..pycell..impl_..PyClassObject$LT$T$GT$$u20$as$u20$pyo3..pycell..impl_..PyClassObjectLayout$LT$T$GT$$GT$17ensure_threadsafe17h492525685b5f51e5E', symObjAddr: 0x510, symBinAddr: 0x186F8, symSize: 0x30 }
  - { offset: 0x4EEA0, size: 0x8, addend: 0x0, symName: '__ZN113_$LT$pyo3..pycell..impl_..PyClassObject$LT$T$GT$$u20$as$u20$pyo3..pycell..impl_..PyClassObjectLayout$LT$T$GT$$GT$17ensure_threadsafe17h544b678d1119f547E', symObjAddr: 0x540, symBinAddr: 0x18728, symSize: 0x30 }
  - { offset: 0x4EED3, size: 0x8, addend: 0x0, symName: '__ZN113_$LT$pyo3..pycell..impl_..PyClassObject$LT$T$GT$$u20$as$u20$pyo3..pycell..impl_..PyClassObjectLayout$LT$T$GT$$GT$17ensure_threadsafe17h552ebc577da763a8E', symObjAddr: 0x570, symBinAddr: 0x18758, symSize: 0x30 }
  - { offset: 0x4EF06, size: 0x8, addend: 0x0, symName: '__ZN113_$LT$pyo3..pycell..impl_..PyClassObject$LT$T$GT$$u20$as$u20$pyo3..pycell..impl_..PyClassObjectLayout$LT$T$GT$$GT$17ensure_threadsafe17h77634ca578906c6fE', symObjAddr: 0x5A0, symBinAddr: 0x18788, symSize: 0x30 }
  - { offset: 0x4EF39, size: 0x8, addend: 0x0, symName: '__ZN113_$LT$pyo3..pycell..impl_..PyClassObject$LT$T$GT$$u20$as$u20$pyo3..pycell..impl_..PyClassObjectLayout$LT$T$GT$$GT$17ensure_threadsafe17hc2c163f25784f723E', symObjAddr: 0x5D0, symBinAddr: 0x187B8, symSize: 0x30 }
  - { offset: 0x4EF6C, size: 0x8, addend: 0x0, symName: '__ZN113_$LT$pyo3..pycell..impl_..PyClassObject$LT$T$GT$$u20$as$u20$pyo3..pycell..impl_..PyClassObjectLayout$LT$T$GT$$GT$17ensure_threadsafe17hf1488cd783efb206E', symObjAddr: 0x600, symBinAddr: 0x187E8, symSize: 0x30 }
  - { offset: 0x4EFA5, size: 0x8, addend: 0x0, symName: '__ZN117_$LT$pyo3..pycell..impl_..PyClassObjectBase$LT$U$GT$$u20$as$u20$pyo3..pycell..impl_..PyClassObjectLayout$LT$T$GT$$GT$10tp_dealloc17h586672c60ab977f7E', symObjAddr: 0x630, symBinAddr: 0x18818, symSize: 0x234 }
  - { offset: 0x4F0A7, size: 0x8, addend: 0x0, symName: '__ZN117_$LT$pyo3..pycell..impl_..PyClassObjectBase$LT$U$GT$$u20$as$u20$pyo3..pycell..impl_..PyClassObjectLayout$LT$T$GT$$GT$17ensure_threadsafe17h9acaca17a95281ccE', symObjAddr: 0x864, symBinAddr: 0x18A4C, symSize: 0x10 }
  - { offset: 0x4FFCA, size: 0x8, addend: 0x0, symName: '__ZN4pyo36pycell5impl_22PyClassObject$LT$T$GT$14borrow_checker17h3f42df5750439ad5E', symObjAddr: 0x874, symBinAddr: 0x18A5C, symSize: 0x24 }
  - { offset: 0x50010, size: 0x8, addend: 0x0, symName: '__ZN4pyo36pycell5impl_22PyClassObject$LT$T$GT$14borrow_checker17h6b3e0d07ede35391E', symObjAddr: 0x898, symBinAddr: 0x18A80, symSize: 0x24 }
  - { offset: 0x50049, size: 0x8, addend: 0x0, symName: '__ZN4pyo36pycell5impl_22PyClassObject$LT$T$GT$14borrow_checker17h738c43b0cfa5a28fE', symObjAddr: 0x8BC, symBinAddr: 0x18AA4, symSize: 0x24 }
  - { offset: 0x50082, size: 0x8, addend: 0x0, symName: '__ZN4pyo36pycell5impl_22PyClassObject$LT$T$GT$14borrow_checker17h7d2cdc68e17e3a65E', symObjAddr: 0x8E0, symBinAddr: 0x18AC8, symSize: 0x24 }
  - { offset: 0x500BB, size: 0x8, addend: 0x0, symName: '__ZN4pyo36pycell5impl_22PyClassObject$LT$T$GT$14borrow_checker17h9492e8fa6c0d4966E', symObjAddr: 0x904, symBinAddr: 0x18AEC, symSize: 0x24 }
  - { offset: 0x500F4, size: 0x8, addend: 0x0, symName: '__ZN4pyo36pycell5impl_22PyClassObject$LT$T$GT$14borrow_checker17hb18dee3827dfe80bE', symObjAddr: 0x928, symBinAddr: 0x18B10, symSize: 0x24 }
  - { offset: 0x5012D, size: 0x8, addend: 0x0, symName: '__ZN4pyo36pycell5impl_22PyClassObject$LT$T$GT$14borrow_checker17hb1c263a896cdb010E', symObjAddr: 0x94C, symBinAddr: 0x18B34, symSize: 0x24 }
  - { offset: 0x50166, size: 0x8, addend: 0x0, symName: '__ZN4pyo36pycell5impl_22PyClassObject$LT$T$GT$14borrow_checker17hb40f594e440571b4E', symObjAddr: 0x970, symBinAddr: 0x18B58, symSize: 0x24 }
  - { offset: 0x5019F, size: 0x8, addend: 0x0, symName: '__ZN4pyo36pycell5impl_22PyClassObject$LT$T$GT$14borrow_checker17hcdea3d4557e80003E', symObjAddr: 0x994, symBinAddr: 0x18B7C, symSize: 0x24 }
  - { offset: 0x501D8, size: 0x8, addend: 0x0, symName: '__ZN4pyo36pycell5impl_22PyClassObject$LT$T$GT$7get_ptr17h04f0ea23440955d7E', symObjAddr: 0x9B8, symBinAddr: 0x18BA0, symSize: 0x24 }
  - { offset: 0x50211, size: 0x8, addend: 0x0, symName: '__ZN4pyo36pycell5impl_22PyClassObject$LT$T$GT$7get_ptr17h07215b765c59e1ebE', symObjAddr: 0x9DC, symBinAddr: 0x18BC4, symSize: 0x24 }
  - { offset: 0x5024A, size: 0x8, addend: 0x0, symName: '__ZN4pyo36pycell5impl_22PyClassObject$LT$T$GT$7get_ptr17h2f32fbd7acc735e3E', symObjAddr: 0xA00, symBinAddr: 0x18BE8, symSize: 0x24 }
  - { offset: 0x50283, size: 0x8, addend: 0x0, symName: '__ZN4pyo36pycell5impl_22PyClassObject$LT$T$GT$7get_ptr17h7d6792a485b7ecf3E', symObjAddr: 0xA24, symBinAddr: 0x18C0C, symSize: 0x24 }
  - { offset: 0x502BC, size: 0x8, addend: 0x0, symName: '__ZN4pyo36pycell5impl_22PyClassObject$LT$T$GT$7get_ptr17hb427be4ba17036d3E', symObjAddr: 0xA48, symBinAddr: 0x18C30, symSize: 0x24 }
  - { offset: 0x502F5, size: 0x8, addend: 0x0, symName: '__ZN4pyo36pycell5impl_22PyClassObject$LT$T$GT$7get_ptr17hce28514b78ed592fE', symObjAddr: 0xA6C, symBinAddr: 0x18C54, symSize: 0x24 }
  - { offset: 0x5032E, size: 0x8, addend: 0x0, symName: '__ZN4pyo36pycell5impl_22PyClassObject$LT$T$GT$7get_ptr17hd8cffa67e2ebee07E', symObjAddr: 0xA90, symBinAddr: 0x18C78, symSize: 0x24 }
  - { offset: 0x50367, size: 0x8, addend: 0x0, symName: '__ZN4pyo36pycell5impl_22PyClassObject$LT$T$GT$7get_ptr17he0686b397b46ac64E', symObjAddr: 0xAB4, symBinAddr: 0x18C9C, symSize: 0x24 }
  - { offset: 0x503A0, size: 0x8, addend: 0x0, symName: '__ZN4pyo36pycell5impl_22PyClassObject$LT$T$GT$7get_ptr17hf75455bbb9fb0520E', symObjAddr: 0xAD8, symBinAddr: 0x18CC0, symSize: 0x24 }
  - { offset: 0x504B1, size: 0x8, addend: 0x0, symName: '__ZN11snid_native158_$LT$impl$u20$pyo3..impl_..pyclass..PyMethods$LT$snid_native..PySnid$GT$$u20$for$u20$pyo3..impl_..pyclass..PyClassImplCollector$LT$snid_native..PySnid$GT$$GT$10py_methods17h0d0090fba7fdaa3eE', symObjAddr: 0x0, symBinAddr: 0x18CE4, symSize: 0x14 }
  - { offset: 0x51A89, size: 0x8, addend: 0x0, symName: '__ZN11snid_native158_$LT$impl$u20$pyo3..impl_..pyclass..PyMethods$LT$snid_native..PySnid$GT$$u20$for$u20$pyo3..impl_..pyclass..PyClassImplCollector$LT$snid_native..PySnid$GT$$GT$10py_methods17h0d0090fba7fdaa3eE', symObjAddr: 0x0, symBinAddr: 0x18CE4, symSize: 0x14 }
  - { offset: 0x51AC5, size: 0x8, addend: 0x0, symName: '__ZN11snid_native158_$LT$impl$u20$pyo3..impl_..pyclass..PyMethods$LT$snid_native..PySgid$GT$$u20$for$u20$pyo3..impl_..pyclass..PyClassImplCollector$LT$snid_native..PySgid$GT$$GT$10py_methods17h1fb155758815c887E', symObjAddr: 0x14, symBinAddr: 0x18CF8, symSize: 0x14 }
  - { offset: 0x51B01, size: 0x8, addend: 0x0, symName: '__ZN11snid_native156_$LT$impl$u20$pyo3..impl_..pyclass..PyMethods$LT$snid_native..PyNid$GT$$u20$for$u20$pyo3..impl_..pyclass..PyClassImplCollector$LT$snid_native..PyNid$GT$$GT$10py_methods17h7d1b8ffc030edf33E', symObjAddr: 0x28, symBinAddr: 0x18D0C, symSize: 0x14 }
  - { offset: 0x51B3D, size: 0x8, addend: 0x0, symName: '__ZN11snid_native156_$LT$impl$u20$pyo3..impl_..pyclass..PyMethods$LT$snid_native..PyWid$GT$$u20$for$u20$pyo3..impl_..pyclass..PyClassImplCollector$LT$snid_native..PyWid$GT$$GT$10py_methods17h7c998bd3df7fc4eaE', symObjAddr: 0x3C, symBinAddr: 0x18D20, symSize: 0x14 }
  - { offset: 0x51B79, size: 0x8, addend: 0x0, symName: '__ZN11snid_native156_$LT$impl$u20$pyo3..impl_..pyclass..PyMethods$LT$snid_native..PyXid$GT$$u20$for$u20$pyo3..impl_..pyclass..PyClassImplCollector$LT$snid_native..PyXid$GT$$GT$10py_methods17h0bb3c1b7b5cafc26E', symObjAddr: 0x50, symBinAddr: 0x18D34, symSize: 0x14 }
  - { offset: 0x51BB5, size: 0x8, addend: 0x0, symName: '__ZN11snid_native156_$LT$impl$u20$pyo3..impl_..pyclass..PyMethods$LT$snid_native..PyKid$GT$$u20$for$u20$pyo3..impl_..pyclass..PyClassImplCollector$LT$snid_native..PyKid$GT$$GT$10py_methods17h81d69fc9c85e7850E', symObjAddr: 0x64, symBinAddr: 0x18D48, symSize: 0x14 }
  - { offset: 0x51BF1, size: 0x8, addend: 0x0, symName: '__ZN11snid_native156_$LT$impl$u20$pyo3..impl_..pyclass..PyMethods$LT$snid_native..PyLid$GT$$u20$for$u20$pyo3..impl_..pyclass..PyClassImplCollector$LT$snid_native..PyLid$GT$$GT$10py_methods17h202a7a2553bdc330E', symObjAddr: 0x78, symBinAddr: 0x18D5C, symSize: 0x14 }
  - { offset: 0x51C30, size: 0x8, addend: 0x0, symName: '__ZN11snid_native156_$LT$impl$u20$pyo3..impl_..pyclass..PyMethods$LT$snid_native..PyEid$GT$$u20$for$u20$pyo3..impl_..pyclass..PyClassImplCollector$LT$snid_native..PyEid$GT$$GT$10py_methods17h893369aa48105f42E', symObjAddr: 0x8C, symBinAddr: 0x18D70, symSize: 0x14 }
  - { offset: 0x51C6F, size: 0x8, addend: 0x0, symName: '__ZN11snid_native156_$LT$impl$u20$pyo3..impl_..pyclass..PyMethods$LT$snid_native..PyBid$GT$$u20$for$u20$pyo3..impl_..pyclass..PyClassImplCollector$LT$snid_native..PyBid$GT$$GT$10py_methods17hbe53ee53a9d84ddcE', symObjAddr: 0xA0, symBinAddr: 0x18D84, symSize: 0x14 }
  - { offset: 0x52B75, size: 0x8, addend: 0x0, symName: '__ZN153_$LT$core..result..Result$LT$T$C$F$GT$$u20$as$u20$core..ops..try_trait..FromResidual$LT$core..result..Result$LT$core..convert..Infallible$C$E$GT$$GT$$GT$13from_residual17h2d3e82f543f162c7E', symObjAddr: 0x0, symBinAddr: 0x18D98, symSize: 0x6C }
  - { offset: 0x5427C, size: 0x8, addend: 0x0, symName: '__ZN153_$LT$core..result..Result$LT$T$C$F$GT$$u20$as$u20$core..ops..try_trait..FromResidual$LT$core..result..Result$LT$core..convert..Infallible$C$E$GT$$GT$$GT$13from_residual17h2d3e82f543f162c7E', symObjAddr: 0x0, symBinAddr: 0x18D98, symSize: 0x6C }
  - { offset: 0x54302, size: 0x8, addend: 0x0, symName: '__ZN153_$LT$core..result..Result$LT$T$C$F$GT$$u20$as$u20$core..ops..try_trait..FromResidual$LT$core..result..Result$LT$core..convert..Infallible$C$E$GT$$GT$$GT$13from_residual17h2e778a3d1caf7cd4E', symObjAddr: 0x6C, symBinAddr: 0x18E04, symSize: 0x6C }
  - { offset: 0x54388, size: 0x8, addend: 0x0, symName: '__ZN153_$LT$core..result..Result$LT$T$C$F$GT$$u20$as$u20$core..ops..try_trait..FromResidual$LT$core..result..Result$LT$core..convert..Infallible$C$E$GT$$GT$$GT$13from_residual17h364daa533a8d793eE', symObjAddr: 0xD8, symBinAddr: 0x18E70, symSize: 0x64 }
  - { offset: 0x543F0, size: 0x8, addend: 0x0, symName: '__ZN153_$LT$core..result..Result$LT$T$C$F$GT$$u20$as$u20$core..ops..try_trait..FromResidual$LT$core..result..Result$LT$core..convert..Infallible$C$E$GT$$GT$$GT$13from_residual17h36de6061ac030501E', symObjAddr: 0x13C, symBinAddr: 0x18ED4, symSize: 0x6C }
  - { offset: 0x54476, size: 0x8, addend: 0x0, symName: '__ZN153_$LT$core..result..Result$LT$T$C$F$GT$$u20$as$u20$core..ops..try_trait..FromResidual$LT$core..result..Result$LT$core..convert..Infallible$C$E$GT$$GT$$GT$13from_residual17h38d531375e69b78eE', symObjAddr: 0x1A8, symBinAddr: 0x18F40, symSize: 0x6C }
  - { offset: 0x544FC, size: 0x8, addend: 0x0, symName: '__ZN153_$LT$core..result..Result$LT$T$C$F$GT$$u20$as$u20$core..ops..try_trait..FromResidual$LT$core..result..Result$LT$core..convert..Infallible$C$E$GT$$GT$$GT$13from_residual17h3ad9f02d050562fdE', symObjAddr: 0x214, symBinAddr: 0x18FAC, symSize: 0x64 }
  - { offset: 0x54564, size: 0x8, addend: 0x0, symName: '__ZN153_$LT$core..result..Result$LT$T$C$F$GT$$u20$as$u20$core..ops..try_trait..FromResidual$LT$core..result..Result$LT$core..convert..Infallible$C$E$GT$$GT$$GT$13from_residual17h3c595a7b2e7d35aeE', symObjAddr: 0x278, symBinAddr: 0x19010, symSize: 0x6C }
  - { offset: 0x545EA, size: 0x8, addend: 0x0, symName: '__ZN153_$LT$core..result..Result$LT$T$C$F$GT$$u20$as$u20$core..ops..try_trait..FromResidual$LT$core..result..Result$LT$core..convert..Infallible$C$E$GT$$GT$$GT$13from_residual17h3d60ba06a7273309E', symObjAddr: 0x2E4, symBinAddr: 0x1907C, symSize: 0x64 }
  - { offset: 0x54652, size: 0x8, addend: 0x0, symName: '__ZN153_$LT$core..result..Result$LT$T$C$F$GT$$u20$as$u20$core..ops..try_trait..FromResidual$LT$core..result..Result$LT$core..convert..Infallible$C$E$GT$$GT$$GT$13from_residual17h4113547e2b22e489E', symObjAddr: 0x348, symBinAddr: 0x190E0, symSize: 0x6C }
  - { offset: 0x546D8, size: 0x8, addend: 0x0, symName: '__ZN153_$LT$core..result..Result$LT$T$C$F$GT$$u20$as$u20$core..ops..try_trait..FromResidual$LT$core..result..Result$LT$core..convert..Infallible$C$E$GT$$GT$$GT$13from_residual17h494e051b8c44fd25E', symObjAddr: 0x3B4, symBinAddr: 0x1914C, symSize: 0x6C }
  - { offset: 0x5475E, size: 0x8, addend: 0x0, symName: '__ZN153_$LT$core..result..Result$LT$T$C$F$GT$$u20$as$u20$core..ops..try_trait..FromResidual$LT$core..result..Result$LT$core..convert..Infallible$C$E$GT$$GT$$GT$13from_residual17h535d5dd58cea5252E', symObjAddr: 0x420, symBinAddr: 0x191B8, symSize: 0x6C }
  - { offset: 0x547E4, size: 0x8, addend: 0x0, symName: '__ZN153_$LT$core..result..Result$LT$T$C$F$GT$$u20$as$u20$core..ops..try_trait..FromResidual$LT$core..result..Result$LT$core..convert..Infallible$C$E$GT$$GT$$GT$13from_residual17h55029ddf021f14bfE', symObjAddr: 0x48C, symBinAddr: 0x19224, symSize: 0x6C }
  - { offset: 0x5486A, size: 0x8, addend: 0x0, symName: '__ZN153_$LT$core..result..Result$LT$T$C$F$GT$$u20$as$u20$core..ops..try_trait..FromResidual$LT$core..result..Result$LT$core..convert..Infallible$C$E$GT$$GT$$GT$13from_residual17h5b4ec833fda68107E', symObjAddr: 0x4F8, symBinAddr: 0x19290, symSize: 0x64 }
  - { offset: 0x548D2, size: 0x8, addend: 0x0, symName: '__ZN153_$LT$core..result..Result$LT$T$C$F$GT$$u20$as$u20$core..ops..try_trait..FromResidual$LT$core..result..Result$LT$core..convert..Infallible$C$E$GT$$GT$$GT$13from_residual17h683b9de09983e65dE', symObjAddr: 0x55C, symBinAddr: 0x192F4, symSize: 0x6C }
  - { offset: 0x54958, size: 0x8, addend: 0x0, symName: '__ZN153_$LT$core..result..Result$LT$T$C$F$GT$$u20$as$u20$core..ops..try_trait..FromResidual$LT$core..result..Result$LT$core..convert..Infallible$C$E$GT$$GT$$GT$13from_residual17h69951ae6d4cb165fE', symObjAddr: 0x5C8, symBinAddr: 0x19360, symSize: 0x6C }
  - { offset: 0x549DE, size: 0x8, addend: 0x0, symName: '__ZN153_$LT$core..result..Result$LT$T$C$F$GT$$u20$as$u20$core..ops..try_trait..FromResidual$LT$core..result..Result$LT$core..convert..Infallible$C$E$GT$$GT$$GT$13from_residual17h8050913defd8804fE', symObjAddr: 0x634, symBinAddr: 0x193CC, symSize: 0x6C }
  - { offset: 0x54A64, size: 0x8, addend: 0x0, symName: '__ZN153_$LT$core..result..Result$LT$T$C$F$GT$$u20$as$u20$core..ops..try_trait..FromResidual$LT$core..result..Result$LT$core..convert..Infallible$C$E$GT$$GT$$GT$13from_residual17h8068e8d9cf721a30E', symObjAddr: 0x6A0, symBinAddr: 0x19438, symSize: 0x6C }
  - { offset: 0x54AEA, size: 0x8, addend: 0x0, symName: '__ZN153_$LT$core..result..Result$LT$T$C$F$GT$$u20$as$u20$core..ops..try_trait..FromResidual$LT$core..result..Result$LT$core..convert..Infallible$C$E$GT$$GT$$GT$13from_residual17h862e3372d208cc82E', symObjAddr: 0x70C, symBinAddr: 0x194A4, symSize: 0x6C }
  - { offset: 0x54B70, size: 0x8, addend: 0x0, symName: '__ZN153_$LT$core..result..Result$LT$T$C$F$GT$$u20$as$u20$core..ops..try_trait..FromResidual$LT$core..result..Result$LT$core..convert..Infallible$C$E$GT$$GT$$GT$13from_residual17h89d373cd69e47fdeE', symObjAddr: 0x778, symBinAddr: 0x19510, symSize: 0x64 }
  - { offset: 0x54BD8, size: 0x8, addend: 0x0, symName: '__ZN153_$LT$core..result..Result$LT$T$C$F$GT$$u20$as$u20$core..ops..try_trait..FromResidual$LT$core..result..Result$LT$core..convert..Infallible$C$E$GT$$GT$$GT$13from_residual17h89f0d41f4fc4c41bE', symObjAddr: 0x7DC, symBinAddr: 0x19574, symSize: 0x6C }
  - { offset: 0x54C5E, size: 0x8, addend: 0x0, symName: '__ZN153_$LT$core..result..Result$LT$T$C$F$GT$$u20$as$u20$core..ops..try_trait..FromResidual$LT$core..result..Result$LT$core..convert..Infallible$C$E$GT$$GT$$GT$13from_residual17h8ce2ad4697256bf4E', symObjAddr: 0x848, symBinAddr: 0x195E0, symSize: 0x6C }
  - { offset: 0x54CE4, size: 0x8, addend: 0x0, symName: '__ZN153_$LT$core..result..Result$LT$T$C$F$GT$$u20$as$u20$core..ops..try_trait..FromResidual$LT$core..result..Result$LT$core..convert..Infallible$C$E$GT$$GT$$GT$13from_residual17h915c9701738d688eE', symObjAddr: 0x8B4, symBinAddr: 0x1964C, symSize: 0x6C }
  - { offset: 0x54D6A, size: 0x8, addend: 0x0, symName: '__ZN153_$LT$core..result..Result$LT$T$C$F$GT$$u20$as$u20$core..ops..try_trait..FromResidual$LT$core..result..Result$LT$core..convert..Infallible$C$E$GT$$GT$$GT$13from_residual17h996a7c28382521e8E', symObjAddr: 0x920, symBinAddr: 0x196B8, symSize: 0x6C }
  - { offset: 0x54DF0, size: 0x8, addend: 0x0, symName: '__ZN153_$LT$core..result..Result$LT$T$C$F$GT$$u20$as$u20$core..ops..try_trait..FromResidual$LT$core..result..Result$LT$core..convert..Infallible$C$E$GT$$GT$$GT$13from_residual17h9c89f02265690b8fE', symObjAddr: 0x98C, symBinAddr: 0x19724, symSize: 0x64 }
  - { offset: 0x54E58, size: 0x8, addend: 0x0, symName: '__ZN153_$LT$core..result..Result$LT$T$C$F$GT$$u20$as$u20$core..ops..try_trait..FromResidual$LT$core..result..Result$LT$core..convert..Infallible$C$E$GT$$GT$$GT$13from_residual17h9ca10eed461c18ecE', symObjAddr: 0x9F0, symBinAddr: 0x19788, symSize: 0x6C }
  - { offset: 0x54EDE, size: 0x8, addend: 0x0, symName: '__ZN153_$LT$core..result..Result$LT$T$C$F$GT$$u20$as$u20$core..ops..try_trait..FromResidual$LT$core..result..Result$LT$core..convert..Infallible$C$E$GT$$GT$$GT$13from_residual17ha7d1c0b4f2e05e93E', symObjAddr: 0xA5C, symBinAddr: 0x197F4, symSize: 0x6C }
  - { offset: 0x54F64, size: 0x8, addend: 0x0, symName: '__ZN153_$LT$core..result..Result$LT$T$C$F$GT$$u20$as$u20$core..ops..try_trait..FromResidual$LT$core..result..Result$LT$core..convert..Infallible$C$E$GT$$GT$$GT$13from_residual17hacbd8940c9bd4637E', symObjAddr: 0xAC8, symBinAddr: 0x19860, symSize: 0x6C }
  - { offset: 0x54FEA, size: 0x8, addend: 0x0, symName: '__ZN153_$LT$core..result..Result$LT$T$C$F$GT$$u20$as$u20$core..ops..try_trait..FromResidual$LT$core..result..Result$LT$core..convert..Infallible$C$E$GT$$GT$$GT$13from_residual17hb4c0be510a7476fcE', symObjAddr: 0xB34, symBinAddr: 0x198CC, symSize: 0x6C }
  - { offset: 0x55070, size: 0x8, addend: 0x0, symName: '__ZN153_$LT$core..result..Result$LT$T$C$F$GT$$u20$as$u20$core..ops..try_trait..FromResidual$LT$core..result..Result$LT$core..convert..Infallible$C$E$GT$$GT$$GT$13from_residual17hc3b57a57ca00ab8cE', symObjAddr: 0xBA0, symBinAddr: 0x19938, symSize: 0x64 }
  - { offset: 0x550D8, size: 0x8, addend: 0x0, symName: '__ZN153_$LT$core..result..Result$LT$T$C$F$GT$$u20$as$u20$core..ops..try_trait..FromResidual$LT$core..result..Result$LT$core..convert..Infallible$C$E$GT$$GT$$GT$13from_residual17hd4f274e278355632E', symObjAddr: 0xC04, symBinAddr: 0x1999C, symSize: 0x6C }
  - { offset: 0x5515E, size: 0x8, addend: 0x0, symName: '__ZN153_$LT$core..result..Result$LT$T$C$F$GT$$u20$as$u20$core..ops..try_trait..FromResidual$LT$core..result..Result$LT$core..convert..Infallible$C$E$GT$$GT$$GT$13from_residual17he99ffd3997a0be36E', symObjAddr: 0xC70, symBinAddr: 0x19A08, symSize: 0x6C }
  - { offset: 0x551E4, size: 0x8, addend: 0x0, symName: '__ZN153_$LT$core..result..Result$LT$T$C$F$GT$$u20$as$u20$core..ops..try_trait..FromResidual$LT$core..result..Result$LT$core..convert..Infallible$C$E$GT$$GT$$GT$13from_residual17hecf310a396af60adE', symObjAddr: 0xCDC, symBinAddr: 0x19A74, symSize: 0x64 }
  - { offset: 0x5524C, size: 0x8, addend: 0x0, symName: '__ZN153_$LT$core..result..Result$LT$T$C$F$GT$$u20$as$u20$core..ops..try_trait..FromResidual$LT$core..result..Result$LT$core..convert..Infallible$C$E$GT$$GT$$GT$13from_residual17hf0390fbb69ca7080E', symObjAddr: 0xD40, symBinAddr: 0x19AD8, symSize: 0x6C }
  - { offset: 0x552D2, size: 0x8, addend: 0x0, symName: '__ZN153_$LT$core..result..Result$LT$T$C$F$GT$$u20$as$u20$core..ops..try_trait..FromResidual$LT$core..result..Result$LT$core..convert..Infallible$C$E$GT$$GT$$GT$13from_residual17hf54208b8369becadE', symObjAddr: 0xDAC, symBinAddr: 0x19B44, symSize: 0x64 }
  - { offset: 0x5533A, size: 0x8, addend: 0x0, symName: '__ZN153_$LT$core..result..Result$LT$T$C$F$GT$$u20$as$u20$core..ops..try_trait..FromResidual$LT$core..result..Result$LT$core..convert..Infallible$C$E$GT$$GT$$GT$13from_residual17hf881d77d1ccb755fE', symObjAddr: 0xE10, symBinAddr: 0x19BA8, symSize: 0x6C }
  - { offset: 0x553C0, size: 0x8, addend: 0x0, symName: '__ZN153_$LT$core..result..Result$LT$T$C$F$GT$$u20$as$u20$core..ops..try_trait..FromResidual$LT$core..result..Result$LT$core..convert..Infallible$C$E$GT$$GT$$GT$13from_residual17hf9863bc763fd7169E', symObjAddr: 0xE7C, symBinAddr: 0x19C14, symSize: 0x6C }
  - { offset: 0x591FC, size: 0x8, addend: 0x0, symName: '__ZN79_$LT$core..result..Result$LT$T$C$E$GT$$u20$as$u20$core..ops..try_trait..Try$GT$11from_output17h511cea97182177e4E', symObjAddr: 0x404C, symBinAddr: 0x1CDE4, symSize: 0x18 }
  - { offset: 0x5923C, size: 0x8, addend: 0x0, symName: '__ZN79_$LT$core..result..Result$LT$T$C$E$GT$$u20$as$u20$core..ops..try_trait..Try$GT$6branch17h00562e2b409ca219E', symObjAddr: 0x4064, symBinAddr: 0x1CDFC, symSize: 0xB4 }
  - { offset: 0x592B9, size: 0x8, addend: 0x0, symName: '__ZN79_$LT$core..result..Result$LT$T$C$E$GT$$u20$as$u20$core..ops..try_trait..Try$GT$6branch17h005bc97f91fac49dE', symObjAddr: 0x4118, symBinAddr: 0x1CEB0, symSize: 0xA0 }
  - { offset: 0x59336, size: 0x8, addend: 0x0, symName: '__ZN79_$LT$core..result..Result$LT$T$C$E$GT$$u20$as$u20$core..ops..try_trait..Try$GT$6branch17h01c578b956143295E', symObjAddr: 0x41B8, symBinAddr: 0x1CF50, symSize: 0xA0 }
  - { offset: 0x593B3, size: 0x8, addend: 0x0, symName: '__ZN79_$LT$core..result..Result$LT$T$C$E$GT$$u20$as$u20$core..ops..try_trait..Try$GT$6branch17h0b68a8f18040760eE', symObjAddr: 0x4258, symBinAddr: 0x1CFF0, symSize: 0x88 }
  - { offset: 0x59431, size: 0x8, addend: 0x0, symName: '__ZN79_$LT$core..result..Result$LT$T$C$E$GT$$u20$as$u20$core..ops..try_trait..Try$GT$6branch17h1612b19894978160E', symObjAddr: 0x42E0, symBinAddr: 0x1D078, symSize: 0xB4 }
  - { offset: 0x594AF, size: 0x8, addend: 0x0, symName: '__ZN79_$LT$core..result..Result$LT$T$C$E$GT$$u20$as$u20$core..ops..try_trait..Try$GT$6branch17h2518c45842055a8bE', symObjAddr: 0x4394, symBinAddr: 0x1D12C, symSize: 0xB4 }
  - { offset: 0x5952D, size: 0x8, addend: 0x0, symName: '__ZN79_$LT$core..result..Result$LT$T$C$E$GT$$u20$as$u20$core..ops..try_trait..Try$GT$6branch17h253e7201030637f4E', symObjAddr: 0x4448, symBinAddr: 0x1D1E0, symSize: 0xAC }
  - { offset: 0x595AA, size: 0x8, addend: 0x0, symName: '__ZN79_$LT$core..result..Result$LT$T$C$E$GT$$u20$as$u20$core..ops..try_trait..Try$GT$6branch17h344a97336c596334E', symObjAddr: 0x44F4, symBinAddr: 0x1D28C, symSize: 0xA0 }
  - { offset: 0x59627, size: 0x8, addend: 0x0, symName: '__ZN79_$LT$core..result..Result$LT$T$C$E$GT$$u20$as$u20$core..ops..try_trait..Try$GT$6branch17h3e3bb9eb87913035E', symObjAddr: 0x4594, symBinAddr: 0x1D32C, symSize: 0xA0 }
  - { offset: 0x596A4, size: 0x8, addend: 0x0, symName: '__ZN79_$LT$core..result..Result$LT$T$C$E$GT$$u20$as$u20$core..ops..try_trait..Try$GT$6branch17h4beeeba4ba32e6feE', symObjAddr: 0x4634, symBinAddr: 0x1D3CC, symSize: 0x88 }
  - { offset: 0x59722, size: 0x8, addend: 0x0, symName: '__ZN79_$LT$core..result..Result$LT$T$C$E$GT$$u20$as$u20$core..ops..try_trait..Try$GT$6branch17h4db0591f85eff463E', symObjAddr: 0x46BC, symBinAddr: 0x1D454, symSize: 0xC8 }
  - { offset: 0x597A1, size: 0x8, addend: 0x0, symName: '__ZN79_$LT$core..result..Result$LT$T$C$E$GT$$u20$as$u20$core..ops..try_trait..Try$GT$6branch17h55755fa9c066dccaE', symObjAddr: 0x4784, symBinAddr: 0x1D51C, symSize: 0x88 }
  - { offset: 0x5981F, size: 0x8, addend: 0x0, symName: '__ZN79_$LT$core..result..Result$LT$T$C$E$GT$$u20$as$u20$core..ops..try_trait..Try$GT$6branch17h5716e801b90861dfE', symObjAddr: 0x480C, symBinAddr: 0x1D5A4, symSize: 0xA0 }
  - { offset: 0x5989C, size: 0x8, addend: 0x0, symName: '__ZN79_$LT$core..result..Result$LT$T$C$E$GT$$u20$as$u20$core..ops..try_trait..Try$GT$6branch17h5fbd4474481e14e3E', symObjAddr: 0x48AC, symBinAddr: 0x1D644, symSize: 0xA0 }
  - { offset: 0x59919, size: 0x8, addend: 0x0, symName: '__ZN79_$LT$core..result..Result$LT$T$C$E$GT$$u20$as$u20$core..ops..try_trait..Try$GT$6branch17h611afd65616b2907E', symObjAddr: 0x494C, symBinAddr: 0x1D6E4, symSize: 0x88 }
  - { offset: 0x59997, size: 0x8, addend: 0x0, symName: '__ZN79_$LT$core..result..Result$LT$T$C$E$GT$$u20$as$u20$core..ops..try_trait..Try$GT$6branch17h63123b6f87dde866E', symObjAddr: 0x49D4, symBinAddr: 0x1D76C, symSize: 0xA0 }
  - { offset: 0x59A14, size: 0x8, addend: 0x0, symName: '__ZN79_$LT$core..result..Result$LT$T$C$E$GT$$u20$as$u20$core..ops..try_trait..Try$GT$6branch17h6bc5974936938484E', symObjAddr: 0x4A74, symBinAddr: 0x1D80C, symSize: 0xA0 }
  - { offset: 0x59A91, size: 0x8, addend: 0x0, symName: '__ZN79_$LT$core..result..Result$LT$T$C$E$GT$$u20$as$u20$core..ops..try_trait..Try$GT$6branch17h75d4c31d759d4193E', symObjAddr: 0x4B14, symBinAddr: 0x1D8AC, symSize: 0xA0 }
  - { offset: 0x59B0E, size: 0x8, addend: 0x0, symName: '__ZN79_$LT$core..result..Result$LT$T$C$E$GT$$u20$as$u20$core..ops..try_trait..Try$GT$6branch17h773c4201a5b90fbdE', symObjAddr: 0x4BB4, symBinAddr: 0x1D94C, symSize: 0xA0 }
  - { offset: 0x59B8B, size: 0x8, addend: 0x0, symName: '__ZN79_$LT$core..result..Result$LT$T$C$E$GT$$u20$as$u20$core..ops..try_trait..Try$GT$6branch17h8262c943b9c37158E', symObjAddr: 0x4C54, symBinAddr: 0x1D9EC, symSize: 0x90 }
  - { offset: 0x59C07, size: 0x8, addend: 0x0, symName: '__ZN79_$LT$core..result..Result$LT$T$C$E$GT$$u20$as$u20$core..ops..try_trait..Try$GT$6branch17h859f70dbf4b3ac37E', symObjAddr: 0x4CE4, symBinAddr: 0x1DA7C, symSize: 0x88 }
  - { offset: 0x59C85, size: 0x8, addend: 0x0, symName: '__ZN79_$LT$core..result..Result$LT$T$C$E$GT$$u20$as$u20$core..ops..try_trait..Try$GT$6branch17h893944d69fb212c8E', symObjAddr: 0x4D6C, symBinAddr: 0x1DB04, symSize: 0xA0 }
  - { offset: 0x59D02, size: 0x8, addend: 0x0, symName: '__ZN79_$LT$core..result..Result$LT$T$C$E$GT$$u20$as$u20$core..ops..try_trait..Try$GT$6branch17h8b3bd366065213a7E', symObjAddr: 0x4E0C, symBinAddr: 0x1DBA4, symSize: 0xA0 }
  - { offset: 0x59D7F, size: 0x8, addend: 0x0, symName: '__ZN79_$LT$core..result..Result$LT$T$C$E$GT$$u20$as$u20$core..ops..try_trait..Try$GT$6branch17h918947317b4b91e5E', symObjAddr: 0x4EAC, symBinAddr: 0x1DC44, symSize: 0xC4 }
  - { offset: 0x59DFD, size: 0x8, addend: 0x0, symName: '__ZN79_$LT$core..result..Result$LT$T$C$E$GT$$u20$as$u20$core..ops..try_trait..Try$GT$6branch17ha0c03d8ff7184df5E', symObjAddr: 0x4F70, symBinAddr: 0x1DD08, symSize: 0xA0 }
  - { offset: 0x59E7A, size: 0x8, addend: 0x0, symName: '__ZN79_$LT$core..result..Result$LT$T$C$E$GT$$u20$as$u20$core..ops..try_trait..Try$GT$6branch17ha2ad151f4950b20dE', symObjAddr: 0x5010, symBinAddr: 0x1DDA8, symSize: 0x88 }
  - { offset: 0x59EF8, size: 0x8, addend: 0x0, symName: '__ZN79_$LT$core..result..Result$LT$T$C$E$GT$$u20$as$u20$core..ops..try_trait..Try$GT$6branch17hab0f5793a41bb1bcE', symObjAddr: 0x5098, symBinAddr: 0x1DE30, symSize: 0xA0 }
  - { offset: 0x59F75, size: 0x8, addend: 0x0, symName: '__ZN79_$LT$core..result..Result$LT$T$C$E$GT$$u20$as$u20$core..ops..try_trait..Try$GT$6branch17hb45cdfffc79b85efE', symObjAddr: 0x5138, symBinAddr: 0x1DED0, symSize: 0xA0 }
  - { offset: 0x59FF2, size: 0x8, addend: 0x0, symName: '__ZN79_$LT$core..result..Result$LT$T$C$E$GT$$u20$as$u20$core..ops..try_trait..Try$GT$6branch17hb61e37df1cbaea61E', symObjAddr: 0x51D8, symBinAddr: 0x1DF70, symSize: 0x88 }
  - { offset: 0x5A070, size: 0x8, addend: 0x0, symName: '__ZN79_$LT$core..result..Result$LT$T$C$E$GT$$u20$as$u20$core..ops..try_trait..Try$GT$6branch17hbdb778beb8635f9cE', symObjAddr: 0x5260, symBinAddr: 0x1DFF8, symSize: 0x88 }
  - { offset: 0x5A0EE, size: 0x8, addend: 0x0, symName: '__ZN79_$LT$core..result..Result$LT$T$C$E$GT$$u20$as$u20$core..ops..try_trait..Try$GT$6branch17hc3fed9e4df4aaeb6E', symObjAddr: 0x52E8, symBinAddr: 0x1E080, symSize: 0x88 }
  - { offset: 0x5A16C, size: 0x8, addend: 0x0, symName: '__ZN79_$LT$core..result..Result$LT$T$C$E$GT$$u20$as$u20$core..ops..try_trait..Try$GT$6branch17hc402494c39d71363E', symObjAddr: 0x5370, symBinAddr: 0x1E108, symSize: 0xA0 }
  - { offset: 0x5A1E9, size: 0x8, addend: 0x0, symName: '__ZN79_$LT$core..result..Result$LT$T$C$E$GT$$u20$as$u20$core..ops..try_trait..Try$GT$6branch17hc7b0b06a68fa13d9E', symObjAddr: 0x5410, symBinAddr: 0x1E1A8, symSize: 0xA0 }
  - { offset: 0x5A266, size: 0x8, addend: 0x0, symName: '__ZN79_$LT$core..result..Result$LT$T$C$E$GT$$u20$as$u20$core..ops..try_trait..Try$GT$6branch17hd6318c326e01b493E', symObjAddr: 0x54B0, symBinAddr: 0x1E248, symSize: 0xA0 }
  - { offset: 0x5A2E3, size: 0x8, addend: 0x0, symName: '__ZN79_$LT$core..result..Result$LT$T$C$E$GT$$u20$as$u20$core..ops..try_trait..Try$GT$6branch17heb1b046ce762bd92E', symObjAddr: 0x5550, symBinAddr: 0x1E2E8, symSize: 0xA0 }
  - { offset: 0x5A360, size: 0x8, addend: 0x0, symName: '__ZN79_$LT$core..result..Result$LT$T$C$E$GT$$u20$as$u20$core..ops..try_trait..Try$GT$6branch17hef9f056dec94c19bE', symObjAddr: 0x55F0, symBinAddr: 0x1E388, symSize: 0xC4 }
  - { offset: 0x5A3DE, size: 0x8, addend: 0x0, symName: '__ZN79_$LT$core..result..Result$LT$T$C$E$GT$$u20$as$u20$core..ops..try_trait..Try$GT$6branch17hfdfde679a4b4ce26E', symObjAddr: 0x56B4, symBinAddr: 0x1E44C, symSize: 0xB4 }
  - { offset: 0x5A45B, size: 0x8, addend: 0x0, symName: '__ZN79_$LT$core..result..Result$LT$T$C$E$GT$$u20$as$u20$core..ops..try_trait..Try$GT$6branch17hffce0e2bd21db390E', symObjAddr: 0x5768, symBinAddr: 0x1E500, symSize: 0xA0 }
  - { offset: 0x5DFE7, size: 0x8, addend: 0x0, symName: '__ZN4core6result19Result$LT$T$C$E$GT$14unwrap_or_else17h147f77ef0d3718aaE', symObjAddr: 0xEE8, symBinAddr: 0x19C80, symSize: 0x90 }
  - { offset: 0x5E071, size: 0x8, addend: 0x0, symName: '__ZN4core6result19Result$LT$T$C$E$GT$14unwrap_or_else17h33e75bfdf51a0375E', symObjAddr: 0xF78, symBinAddr: 0x19D10, symSize: 0x90 }
  - { offset: 0x5E0FB, size: 0x8, addend: 0x0, symName: '__ZN4core6result19Result$LT$T$C$E$GT$14unwrap_or_else17h5451f1a7067cb47cE', symObjAddr: 0x1008, symBinAddr: 0x19DA0, symSize: 0x90 }
  - { offset: 0x5E185, size: 0x8, addend: 0x0, symName: '__ZN4core6result19Result$LT$T$C$E$GT$14unwrap_or_else17h744e343df5b24886E', symObjAddr: 0x1098, symBinAddr: 0x19E30, symSize: 0x90 }
  - { offset: 0x5E20F, size: 0x8, addend: 0x0, symName: '__ZN4core6result19Result$LT$T$C$E$GT$14unwrap_or_else17h785ce8ec57f20c48E', symObjAddr: 0x1128, symBinAddr: 0x19EC0, symSize: 0x90 }
  - { offset: 0x5E299, size: 0x8, addend: 0x0, symName: '__ZN4core6result19Result$LT$T$C$E$GT$14unwrap_or_else17h812682717e4dcdf0E', symObjAddr: 0x11B8, symBinAddr: 0x19F50, symSize: 0x90 }
  - { offset: 0x5E323, size: 0x8, addend: 0x0, symName: '__ZN4core6result19Result$LT$T$C$E$GT$14unwrap_or_else17ha3b61d2418685e63E', symObjAddr: 0x1248, symBinAddr: 0x19FE0, symSize: 0x90 }
  - { offset: 0x5E3DB, size: 0x8, addend: 0x0, symName: '__ZN4core6result19Result$LT$T$C$E$GT$14unwrap_or_else17hc16e69c1475477dbE', symObjAddr: 0x12D8, symBinAddr: 0x1A070, symSize: 0x88 }
  - { offset: 0x5E465, size: 0x8, addend: 0x0, symName: '__ZN4core6result19Result$LT$T$C$E$GT$14unwrap_or_else17hec1f07e1f1805fd4E', symObjAddr: 0x1360, symBinAddr: 0x1A0F8, symSize: 0x90 }
  - { offset: 0x5E4EF, size: 0x8, addend: 0x0, symName: '__ZN4core6result19Result$LT$T$C$E$GT$14unwrap_or_else17hf469a87f2c415732E', symObjAddr: 0x13F0, symBinAddr: 0x1A188, symSize: 0x90 }
  - { offset: 0x5E8A8, size: 0x8, addend: 0x0, symName: '__ZN4core6result19Result$LT$T$C$E$GT$3map17h307734f96b9c2865E', symObjAddr: 0x1480, symBinAddr: 0x1A218, symSize: 0x4C }
  - { offset: 0x5E950, size: 0x8, addend: 0x0, symName: '__ZN4core6result19Result$LT$T$C$E$GT$3map17h42160d87755782b6E', symObjAddr: 0x14CC, symBinAddr: 0x1A264, symSize: 0x38 }
  - { offset: 0x5E9DC, size: 0x8, addend: 0x0, symName: '__ZN4core6result19Result$LT$T$C$E$GT$3map17h5f8aee5dc8f77bd5E', symObjAddr: 0x1504, symBinAddr: 0x1A29C, symSize: 0x90 }
  - { offset: 0x5EA7C, size: 0x8, addend: 0x0, symName: '__ZN4core6result19Result$LT$T$C$E$GT$3map17h647685bca801f9a0E', symObjAddr: 0x1594, symBinAddr: 0x1A32C, symSize: 0x4C }
  - { offset: 0x5EB24, size: 0x8, addend: 0x0, symName: '__ZN4core6result19Result$LT$T$C$E$GT$3map17h6dcbc78c7eb2828aE', symObjAddr: 0x15E0, symBinAddr: 0x1A378, symSize: 0x90 }
  - { offset: 0x5EBC4, size: 0x8, addend: 0x0, symName: '__ZN4core6result19Result$LT$T$C$E$GT$3map17h7c77241d1462ad5dE', symObjAddr: 0x1670, symBinAddr: 0x1A408, symSize: 0x4C }
  - { offset: 0x5EF19, size: 0x8, addend: 0x0, symName: '__ZN4core6result19Result$LT$T$C$E$GT$3map17h82a3875ea48fe245E', symObjAddr: 0x16BC, symBinAddr: 0x1A454, symSize: 0x94 }
  - { offset: 0x5EFB9, size: 0x8, addend: 0x0, symName: '__ZN4core6result19Result$LT$T$C$E$GT$3map17h863d03b715897a54E', symObjAddr: 0x1750, symBinAddr: 0x1A4E8, symSize: 0x4C }
  - { offset: 0x5F056, size: 0x8, addend: 0x0, symName: '__ZN4core6result19Result$LT$T$C$E$GT$3map17h8b051ee79f446dd0E', symObjAddr: 0x179C, symBinAddr: 0x1A534, symSize: 0x4C }
  - { offset: 0x5F0F3, size: 0x8, addend: 0x0, symName: '__ZN4core6result19Result$LT$T$C$E$GT$3map17h952c6195401ff30dE', symObjAddr: 0x17E8, symBinAddr: 0x1A580, symSize: 0x4C }
  - { offset: 0x5F190, size: 0x8, addend: 0x0, symName: '__ZN4core6result19Result$LT$T$C$E$GT$3map17h9aebd7ac2f7c84efE', symObjAddr: 0x1834, symBinAddr: 0x1A5CC, symSize: 0x4C }
  - { offset: 0x5F220, size: 0x8, addend: 0x0, symName: '__ZN4core6result19Result$LT$T$C$E$GT$3map17had16928e8546fe8eE', symObjAddr: 0x1880, symBinAddr: 0x1A618, symSize: 0x90 }
  - { offset: 0x5F2C0, size: 0x8, addend: 0x0, symName: '__ZN4core6result19Result$LT$T$C$E$GT$3map17hbea21bfeb7385397E', symObjAddr: 0x1910, symBinAddr: 0x1A6A8, symSize: 0x4C }
  - { offset: 0x5F35D, size: 0x8, addend: 0x0, symName: '__ZN4core6result19Result$LT$T$C$E$GT$3map17hd35c6ee148517b87E', symObjAddr: 0x195C, symBinAddr: 0x1A6F4, symSize: 0x4C }
  - { offset: 0x5F405, size: 0x8, addend: 0x0, symName: '__ZN4core6result19Result$LT$T$C$E$GT$3map17hef2ed9d382d4a189E', symObjAddr: 0x19A8, symBinAddr: 0x1A740, symSize: 0x38 }
  - { offset: 0x5F4B2, size: 0x8, addend: 0x0, symName: '__ZN4core6result19Result$LT$T$C$E$GT$6is_err17h6ac63a6bfe566da4E', symObjAddr: 0x19E0, symBinAddr: 0x1A778, symSize: 0x40 }
  - { offset: 0x5F51D, size: 0x8, addend: 0x0, symName: '__ZN4core6result19Result$LT$T$C$E$GT$7map_err17h0490a3a4c2ef1b1cE', symObjAddr: 0x1A20, symBinAddr: 0x1A7B8, symSize: 0x84 }
  - { offset: 0x5F988, size: 0x8, addend: 0x0, symName: '__ZN4core6result19Result$LT$T$C$E$GT$7map_err17h071fe4c3bf8843f5E', symObjAddr: 0x1AA4, symBinAddr: 0x1A83C, symSize: 0xA8 }
  - { offset: 0x5FA33, size: 0x8, addend: 0x0, symName: '__ZN4core6result19Result$LT$T$C$E$GT$7map_err17h0d1521313c9617cbE', symObjAddr: 0x1B4C, symBinAddr: 0x1A8E4, symSize: 0xDC }
  - { offset: 0x5FADB, size: 0x8, addend: 0x0, symName: '__ZN4core6result19Result$LT$T$C$E$GT$7map_err17h0d2d8e9efdf438cdE', symObjAddr: 0x1C28, symBinAddr: 0x1A9C0, symSize: 0xBC }
  - { offset: 0x5FB6F, size: 0x8, addend: 0x0, symName: '__ZN4core6result19Result$LT$T$C$E$GT$7map_err17h0d685544997246e7E', symObjAddr: 0x1CE4, symBinAddr: 0x1AA7C, symSize: 0x84 }
  - { offset: 0x5FC00, size: 0x8, addend: 0x0, symName: '__ZN4core6result19Result$LT$T$C$E$GT$7map_err17h140afba37847d62eE', symObjAddr: 0x1D68, symBinAddr: 0x1AB00, symSize: 0x84 }
  - { offset: 0x5FCA9, size: 0x8, addend: 0x0, symName: '__ZN4core6result19Result$LT$T$C$E$GT$7map_err17h218aa0c1154aff92E', symObjAddr: 0x1DEC, symBinAddr: 0x1AB84, symSize: 0x38 }
  - { offset: 0x5FD1E, size: 0x8, addend: 0x0, symName: '__ZN4core6result19Result$LT$T$C$E$GT$7map_err17h2c2649448e652411E', symObjAddr: 0x1E24, symBinAddr: 0x1ABBC, symSize: 0x30 }
  - { offset: 0x5FD94, size: 0x8, addend: 0x0, symName: '__ZN4core6result19Result$LT$T$C$E$GT$7map_err17h2f613171fc00d031E', symObjAddr: 0x1E54, symBinAddr: 0x1ABEC, symSize: 0x84 }
  - { offset: 0x5FE25, size: 0x8, addend: 0x0, symName: '__ZN4core6result19Result$LT$T$C$E$GT$7map_err17h333819c38e1224bbE', symObjAddr: 0x1ED8, symBinAddr: 0x1AC70, symSize: 0x84 }
  - { offset: 0x5FEB6, size: 0x8, addend: 0x0, symName: '__ZN4core6result19Result$LT$T$C$E$GT$7map_err17h36c5eb56cca12f10E', symObjAddr: 0x1F5C, symBinAddr: 0x1ACF4, symSize: 0xCC }
  - { offset: 0x5FF49, size: 0x8, addend: 0x0, symName: '__ZN4core6result19Result$LT$T$C$E$GT$7map_err17h391d1888ad6fabadE', symObjAddr: 0x2028, symBinAddr: 0x1ADC0, symSize: 0x30 }
  - { offset: 0x5FFBE, size: 0x8, addend: 0x0, symName: '__ZN4core6result19Result$LT$T$C$E$GT$7map_err17h3f7e568613e6a558E', symObjAddr: 0x2058, symBinAddr: 0x1ADF0, symSize: 0xCC }
  - { offset: 0x60051, size: 0x8, addend: 0x0, symName: '__ZN4core6result19Result$LT$T$C$E$GT$7map_err17h4125883075171023E', symObjAddr: 0x2124, symBinAddr: 0x1AEBC, symSize: 0x3C }
  - { offset: 0x600C6, size: 0x8, addend: 0x0, symName: '__ZN4core6result19Result$LT$T$C$E$GT$7map_err17h43979cccfc5dd470E', symObjAddr: 0x2160, symBinAddr: 0x1AEF8, symSize: 0x40 }
  - { offset: 0x6013C, size: 0x8, addend: 0x0, symName: '__ZN4core6result19Result$LT$T$C$E$GT$7map_err17h4a46df8ed1c267f0E', symObjAddr: 0x21A0, symBinAddr: 0x1AF38, symSize: 0xB8 }
  - { offset: 0x601D0, size: 0x8, addend: 0x0, symName: '__ZN4core6result19Result$LT$T$C$E$GT$7map_err17h4e73a96e20f8db15E', symObjAddr: 0x2258, symBinAddr: 0x1AFF0, symSize: 0x84 }
  - { offset: 0x6027F, size: 0x8, addend: 0x0, symName: '__ZN4core6result19Result$LT$T$C$E$GT$7map_err17h5418c2b2c2e16157E', symObjAddr: 0x22DC, symBinAddr: 0x1B074, symSize: 0xC4 }
  - { offset: 0x60312, size: 0x8, addend: 0x0, symName: '__ZN4core6result19Result$LT$T$C$E$GT$7map_err17h575dee8e52dd686dE', symObjAddr: 0x23A0, symBinAddr: 0x1B138, symSize: 0x48 }
  - { offset: 0x60388, size: 0x8, addend: 0x0, symName: '__ZN4core6result19Result$LT$T$C$E$GT$7map_err17h60248c25b26fee14E', symObjAddr: 0x23E8, symBinAddr: 0x1B180, symSize: 0xCC }
  - { offset: 0x60439, size: 0x8, addend: 0x0, symName: '__ZN4core6result19Result$LT$T$C$E$GT$7map_err17h65a18b1febb285edE', symObjAddr: 0x24B4, symBinAddr: 0x1B24C, symSize: 0xC4 }
  - { offset: 0x60501, size: 0x8, addend: 0x0, symName: '__ZN4core6result19Result$LT$T$C$E$GT$7map_err17h66617339dc825f58E', symObjAddr: 0x2578, symBinAddr: 0x1B310, symSize: 0xDC }
  - { offset: 0x60596, size: 0x8, addend: 0x0, symName: '__ZN4core6result19Result$LT$T$C$E$GT$7map_err17h6a51842e7072acbbE', symObjAddr: 0x2654, symBinAddr: 0x1B3EC, symSize: 0x84 }
  - { offset: 0x60627, size: 0x8, addend: 0x0, symName: '__ZN4core6result19Result$LT$T$C$E$GT$7map_err17h7679b18c8f7a4442E', symObjAddr: 0x26D8, symBinAddr: 0x1B470, symSize: 0xCC }
  - { offset: 0x606BB, size: 0x8, addend: 0x0, symName: '__ZN4core6result19Result$LT$T$C$E$GT$7map_err17h777c42da341fe9f7E', symObjAddr: 0x27A4, symBinAddr: 0x1B53C, symSize: 0x30 }
  - { offset: 0x60731, size: 0x8, addend: 0x0, symName: '__ZN4core6result19Result$LT$T$C$E$GT$7map_err17h77b4bf0a16adae18E', symObjAddr: 0x27D4, symBinAddr: 0x1B56C, symSize: 0xCC }
  - { offset: 0x607F8, size: 0x8, addend: 0x0, symName: '__ZN4core6result19Result$LT$T$C$E$GT$7map_err17h86812af9dde32abdE', symObjAddr: 0x28A0, symBinAddr: 0x1B638, symSize: 0x48 }
  - { offset: 0x6086E, size: 0x8, addend: 0x0, symName: '__ZN4core6result19Result$LT$T$C$E$GT$7map_err17h89d84e90d1f273cdE', symObjAddr: 0x28E8, symBinAddr: 0x1B680, symSize: 0x38 }
  - { offset: 0x608E3, size: 0x8, addend: 0x0, symName: '__ZN4core6result19Result$LT$T$C$E$GT$7map_err17h8b416dd8637cfd8cE', symObjAddr: 0x2920, symBinAddr: 0x1B6B8, symSize: 0xBC }
  - { offset: 0x60976, size: 0x8, addend: 0x0, symName: '__ZN4core6result19Result$LT$T$C$E$GT$7map_err17h910919f82e48a379E', symObjAddr: 0x29DC, symBinAddr: 0x1B774, symSize: 0xCC }
  - { offset: 0x60A09, size: 0x8, addend: 0x0, symName: '__ZN4core6result19Result$LT$T$C$E$GT$7map_err17ha21e6a30ba9c4b05E', symObjAddr: 0x2AA8, symBinAddr: 0x1B840, symSize: 0x40 }
  - { offset: 0x60A7F, size: 0x8, addend: 0x0, symName: '__ZN4core6result19Result$LT$T$C$E$GT$7map_err17ha5467b1da0e11161E', symObjAddr: 0x2AE8, symBinAddr: 0x1B880, symSize: 0x48 }
  - { offset: 0x60AF5, size: 0x8, addend: 0x0, symName: '__ZN4core6result19Result$LT$T$C$E$GT$7map_err17hac9d5874210650a1E', symObjAddr: 0x2B30, symBinAddr: 0x1B8C8, symSize: 0xC4 }
  - { offset: 0x60B89, size: 0x8, addend: 0x0, symName: '__ZN4core6result19Result$LT$T$C$E$GT$7map_err17hb614dd7fa195503fE', symObjAddr: 0x2BF4, symBinAddr: 0x1B98C, symSize: 0x84 }
  - { offset: 0x60C1A, size: 0x8, addend: 0x0, symName: '__ZN4core6result19Result$LT$T$C$E$GT$7map_err17hb673d1b92a1a2000E', symObjAddr: 0x2C78, symBinAddr: 0x1BA10, symSize: 0x30 }
  - { offset: 0x60C90, size: 0x8, addend: 0x0, symName: '__ZN4core6result19Result$LT$T$C$E$GT$7map_err17hbfec4ff7cfdcc635E', symObjAddr: 0x2CA8, symBinAddr: 0x1BA40, symSize: 0x30 }
  - { offset: 0x60D24, size: 0x8, addend: 0x0, symName: '__ZN4core6result19Result$LT$T$C$E$GT$7map_err17hca292b7e2b607589E', symObjAddr: 0x2CD8, symBinAddr: 0x1BA70, symSize: 0xDC }
  - { offset: 0x60DB9, size: 0x8, addend: 0x0, symName: '__ZN4core6result19Result$LT$T$C$E$GT$7map_err17hdab2263e3c409389E', symObjAddr: 0x2DB4, symBinAddr: 0x1BB4C, symSize: 0x84 }
  - { offset: 0x60E4A, size: 0x8, addend: 0x0, symName: '__ZN4core6result19Result$LT$T$C$E$GT$7map_err17he06ac154f6691751E', symObjAddr: 0x2E38, symBinAddr: 0x1BBD0, symSize: 0x48 }
  - { offset: 0x60F15, size: 0x8, addend: 0x0, symName: '__ZN4core6result19Result$LT$T$C$E$GT$7map_err17hf04e722726775f6cE', symObjAddr: 0x2E80, symBinAddr: 0x1BC18, symSize: 0xD8 }
  - { offset: 0x60FAA, size: 0x8, addend: 0x0, symName: '__ZN4core6result19Result$LT$T$C$E$GT$7map_err17hf38b360baa5b6603E', symObjAddr: 0x2F58, symBinAddr: 0x1BCF0, symSize: 0xA8 }
  - { offset: 0x6103D, size: 0x8, addend: 0x0, symName: '__ZN4core6result19Result$LT$T$C$E$GT$7map_err17hf93ea824b5491d01E', symObjAddr: 0x3000, symBinAddr: 0x1BD98, symSize: 0xA0 }
  - { offset: 0x610D0, size: 0x8, addend: 0x0, symName: '__ZN4core6result19Result$LT$T$C$E$GT$8and_then17h036dea00d55b75c0E', symObjAddr: 0x30A0, symBinAddr: 0x1BE38, symSize: 0xA0 }
  - { offset: 0x61162, size: 0x8, addend: 0x0, symName: '__ZN4core6result19Result$LT$T$C$E$GT$8and_then17h12a2c1b3e1a8dd8bE', symObjAddr: 0x3140, symBinAddr: 0x1BED8, symSize: 0xB0 }
  - { offset: 0x611F5, size: 0x8, addend: 0x0, symName: '__ZN4core6result19Result$LT$T$C$E$GT$8and_then17h15afa56e1b580527E', symObjAddr: 0x31F0, symBinAddr: 0x1BF88, symSize: 0xA0 }
  - { offset: 0x61287, size: 0x8, addend: 0x0, symName: '__ZN4core6result19Result$LT$T$C$E$GT$8and_then17h3cf1adda1cc8eec0E', symObjAddr: 0x3290, symBinAddr: 0x1C028, symSize: 0xB0 }
  - { offset: 0x61319, size: 0x8, addend: 0x0, symName: '__ZN4core6result19Result$LT$T$C$E$GT$8and_then17h3f13c27e244261faE', symObjAddr: 0x3340, symBinAddr: 0x1C0D8, symSize: 0x94 }
  - { offset: 0x613AC, size: 0x8, addend: 0x0, symName: '__ZN4core6result19Result$LT$T$C$E$GT$8and_then17h4566a0939afd3a76E', symObjAddr: 0x33D4, symBinAddr: 0x1C16C, symSize: 0xC0 }
  - { offset: 0x61440, size: 0x8, addend: 0x0, symName: '__ZN4core6result19Result$LT$T$C$E$GT$8and_then17h4ad4df17ae970746E', symObjAddr: 0x3494, symBinAddr: 0x1C22C, symSize: 0xB0 }
  - { offset: 0x614D2, size: 0x8, addend: 0x0, symName: '__ZN4core6result19Result$LT$T$C$E$GT$8and_then17h4b28091c9e478265E', symObjAddr: 0x3544, symBinAddr: 0x1C2DC, symSize: 0x94 }
  - { offset: 0x61565, size: 0x8, addend: 0x0, symName: '__ZN4core6result19Result$LT$T$C$E$GT$8and_then17h4d9a792f652641bbE', symObjAddr: 0x35D8, symBinAddr: 0x1C370, symSize: 0x94 }
  - { offset: 0x615F8, size: 0x8, addend: 0x0, symName: '__ZN4core6result19Result$LT$T$C$E$GT$8and_then17h577270f74b44dbccE', symObjAddr: 0x366C, symBinAddr: 0x1C404, symSize: 0x9C }
  - { offset: 0x6168B, size: 0x8, addend: 0x0, symName: '__ZN4core6result19Result$LT$T$C$E$GT$8and_then17h5956c709473642feE', symObjAddr: 0x3708, symBinAddr: 0x1C4A0, symSize: 0xB0 }
  - { offset: 0x6171D, size: 0x8, addend: 0x0, symName: '__ZN4core6result19Result$LT$T$C$E$GT$8and_then17h5dc5f83c526ae5f4E', symObjAddr: 0x37B8, symBinAddr: 0x1C550, symSize: 0xB0 }
  - { offset: 0x617B0, size: 0x8, addend: 0x0, symName: '__ZN4core6result19Result$LT$T$C$E$GT$8and_then17h609e795410fb765bE', symObjAddr: 0x3868, symBinAddr: 0x1C600, symSize: 0x94 }
  - { offset: 0x61843, size: 0x8, addend: 0x0, symName: '__ZN4core6result19Result$LT$T$C$E$GT$8and_then17h66eeeedf6cdc4170E', symObjAddr: 0x38FC, symBinAddr: 0x1C694, symSize: 0x94 }
  - { offset: 0x618D5, size: 0x8, addend: 0x0, symName: '__ZN4core6result19Result$LT$T$C$E$GT$8and_then17h7f16739f2c7c99c4E', symObjAddr: 0x3990, symBinAddr: 0x1C728, symSize: 0xA0 }
  - { offset: 0x61967, size: 0x8, addend: 0x0, symName: '__ZN4core6result19Result$LT$T$C$E$GT$8and_then17h85a83cc3420df4f4E', symObjAddr: 0x3A30, symBinAddr: 0x1C7C8, symSize: 0xB0 }
  - { offset: 0x619FA, size: 0x8, addend: 0x0, symName: '__ZN4core6result19Result$LT$T$C$E$GT$8and_then17ha2bc79c13d2d38d4E', symObjAddr: 0x3AE0, symBinAddr: 0x1C878, symSize: 0xD0 }
  - { offset: 0x61A8F, size: 0x8, addend: 0x0, symName: '__ZN4core6result19Result$LT$T$C$E$GT$8and_then17hbd8bac486fb418c8E', symObjAddr: 0x3BB0, symBinAddr: 0x1C948, symSize: 0xB0 }
  - { offset: 0x61B22, size: 0x8, addend: 0x0, symName: '__ZN4core6result19Result$LT$T$C$E$GT$8and_then17hbd8e636ec3319350E', symObjAddr: 0x3C60, symBinAddr: 0x1C9F8, symSize: 0xC0 }
  - { offset: 0x61BB6, size: 0x8, addend: 0x0, symName: '__ZN4core6result19Result$LT$T$C$E$GT$8and_then17hce31de2162aa6a0dE', symObjAddr: 0x3D20, symBinAddr: 0x1CAB8, symSize: 0xB0 }
  - { offset: 0x61C48, size: 0x8, addend: 0x0, symName: '__ZN4core6result19Result$LT$T$C$E$GT$8and_then17he18785a54269922cE', symObjAddr: 0x3DD0, symBinAddr: 0x1CB68, symSize: 0xB0 }
  - { offset: 0x61CDA, size: 0x8, addend: 0x0, symName: '__ZN4core6result19Result$LT$T$C$E$GT$8and_then17he2979cf9ed953822E', symObjAddr: 0x3E80, symBinAddr: 0x1CC18, symSize: 0x9C }
  - { offset: 0x61D6D, size: 0x8, addend: 0x0, symName: '__ZN4core6result19Result$LT$T$C$E$GT$8and_then17heab05d2fdcab4713E', symObjAddr: 0x3F1C, symBinAddr: 0x1CCB4, symSize: 0xC0 }
  - { offset: 0x61E00, size: 0x8, addend: 0x0, symName: '__ZN4core6result19Result$LT$T$C$E$GT$9unwrap_or17h63fd5106b2118dc2E', symObjAddr: 0x3FDC, symBinAddr: 0x1CD74, symSize: 0x70 }
  - { offset: 0x61F2E, size: 0x8, addend: 0x0, symName: __ZN4core5slice3raw14from_raw_parts17h2c7d130cb24bcdd6E, symObjAddr: 0x0, symBinAddr: 0x1E5A0, symSize: 0x50 }
  - { offset: 0x62721, size: 0x8, addend: 0x0, symName: __ZN4core5slice3raw14from_raw_parts17h2c7d130cb24bcdd6E, symObjAddr: 0x0, symBinAddr: 0x1E5A0, symSize: 0x50 }
  - { offset: 0x62764, size: 0x8, addend: 0x0, symName: __ZN4core5slice3raw14from_raw_parts17h6052fdba42289cfeE, symObjAddr: 0x50, symBinAddr: 0x1E5F0, symSize: 0x50 }
  - { offset: 0x637B8, size: 0x8, addend: 0x0, symName: __ZN3std9panicking3try7do_call17h9502269b152f7443E, symObjAddr: 0x0, symBinAddr: 0x1E640, symSize: 0x7C }
  - { offset: 0x657B7, size: 0x8, addend: 0x0, symName: __ZN3std9panicking3try7do_call17h9502269b152f7443E, symObjAddr: 0x0, symBinAddr: 0x1E640, symSize: 0x7C }
  - { offset: 0x658A7, size: 0x8, addend: 0x0, symName: __ZN3std9panicking3try7do_call17ha67aae77ede55a13E, symObjAddr: 0x7C, symBinAddr: 0x1E6BC, symSize: 0x98 }
  - { offset: 0x65997, size: 0x8, addend: 0x0, symName: __ZN3std9panicking3try7do_call17hbd8f20fb90f9b0b5E, symObjAddr: 0x114, symBinAddr: 0x1E754, symSize: 0x88 }
  - { offset: 0x65A87, size: 0x8, addend: 0x0, symName: __ZN3std9panicking3try7do_call17hc5077f5bcef3e19fE, symObjAddr: 0x19C, symBinAddr: 0x1E7DC, symSize: 0x88 }
  - { offset: 0x65B77, size: 0x8, addend: 0x0, symName: __ZN3std9panicking3try8do_catch17h107a4c27641c8e84E, symObjAddr: 0x224, symBinAddr: 0x1E864, symSize: 0x70 }
  - { offset: 0x65C0C, size: 0x8, addend: 0x0, symName: __ZN3std9panicking3try8do_catch17h9619bd34c6ad2822E, symObjAddr: 0x294, symBinAddr: 0x1E8D4, symSize: 0x70 }
  - { offset: 0x65CA1, size: 0x8, addend: 0x0, symName: __ZN3std9panicking3try8do_catch17ha5a883c056091dc9E, symObjAddr: 0x304, symBinAddr: 0x1E944, symSize: 0x70 }
  - { offset: 0x65D36, size: 0x8, addend: 0x0, symName: __ZN3std9panicking3try8do_catch17hadf45902b791cd6dE, symObjAddr: 0x374, symBinAddr: 0x1E9B4, symSize: 0x70 }
  - { offset: 0x66225, size: 0x8, addend: 0x0, symName: '__ZN97_$LT$pyo3..internal..get_slot..Slot$LT$_$GT$$u20$as$u20$pyo3..internal..get_slot..GetSlotImpl$GT$8get_slot17h928c59872e96f34dE', symObjAddr: 0x0, symBinAddr: 0x1EA24, symSize: 0x54 }
  - { offset: 0x672C9, size: 0x8, addend: 0x0, symName: '__ZN97_$LT$pyo3..internal..get_slot..Slot$LT$_$GT$$u20$as$u20$pyo3..internal..get_slot..GetSlotImpl$GT$8get_slot17h928c59872e96f34dE', symObjAddr: 0x0, symBinAddr: 0x1EA24, symSize: 0x54 }
  - { offset: 0x6778F, size: 0x8, addend: 0x0, symName: '__ZN102_$LT$core..iter..adapters..map..Map$LT$I$C$F$GT$$u20$as$u20$core..iter..traits..iterator..Iterator$GT$4next17h5bf3f7ab68856269E', symObjAddr: 0x0, symBinAddr: 0x1EA78, symSize: 0x90 }
  - { offset: 0x68D7C, size: 0x8, addend: 0x0, symName: '__ZN102_$LT$core..iter..adapters..map..Map$LT$I$C$F$GT$$u20$as$u20$core..iter..traits..iterator..Iterator$GT$4next17h5bf3f7ab68856269E', symObjAddr: 0x0, symBinAddr: 0x1EA78, symSize: 0x90 }
  - { offset: 0x68DF6, size: 0x8, addend: 0x0, symName: '__ZN102_$LT$core..iter..adapters..map..Map$LT$I$C$F$GT$$u20$as$u20$core..iter..traits..iterator..Iterator$GT$8try_fold17hebc811a4c84162e2E', symObjAddr: 0x90, symBinAddr: 0x1EB08, symSize: 0x58 }
  - { offset: 0x68F1A, size: 0x8, addend: 0x0, symName: '__ZN4core4iter8adapters3map12map_try_fold28_$u7b$$u7b$closure$u7d$$u7d$17h8c8f3c68e30d0553E', symObjAddr: 0x124, symBinAddr: 0x1EB9C, symSize: 0xC0 }
  - { offset: 0x68FB2, size: 0x8, addend: 0x0, symName: '__ZN113_$LT$core..iter..adapters..map..Map$LT$I$C$F$GT$$u20$as$u20$core..iter..traits..exact_size..ExactSizeIterator$GT$3len17h33bcb324bc3bc78fE', symObjAddr: 0xE8, symBinAddr: 0x1EB60, symSize: 0x24 }
  - { offset: 0x6909E, size: 0x8, addend: 0x0, symName: __ZN4core4iter6traits8iterator8Iterator4take17hd47e6f7acecb6d9aE, symObjAddr: 0x10C, symBinAddr: 0x1EB84, symSize: 0x18 }
  - { offset: 0x690EA, size: 0x8, addend: 0x0, symName: '__ZN72_$LT$$RF$mut$u20$I$u20$as$u20$core..iter..traits..iterator..Iterator$GT$4next17haee3cbbb841b0592E', symObjAddr: 0x1E4, symBinAddr: 0x1EC5C, symSize: 0x28 }
  - { offset: 0x69121, size: 0x8, addend: 0x0, symName: '__ZN72_$LT$$RF$mut$u20$I$u20$as$u20$core..iter..traits..iterator..Iterator$GT$8try_fold17h29e77197039b5a22E', symObjAddr: 0x20C, symBinAddr: 0x1EC84, symSize: 0x38 }
  - { offset: 0x69191, size: 0x8, addend: 0x0, symName: '__ZN72_$LT$$RF$mut$u20$I$u20$as$u20$core..iter..traits..iterator..Iterator$GT$8try_fold17h7133a791eafb2d44E', symObjAddr: 0x244, symBinAddr: 0x1ECBC, symSize: 0x38 }
  - { offset: 0x69207, size: 0x8, addend: 0x0, symName: '__ZN79_$LT$$RF$mut$u20$I$u20$as$u20$core..iter..traits..iterator..IteratorRefSpec$GT$13spec_try_fold17h143d82e035a1f8ceE', symObjAddr: 0x27C, symBinAddr: 0x1ECF4, symSize: 0x3C }
  - { offset: 0x69277, size: 0x8, addend: 0x0, symName: '__ZN79_$LT$$RF$mut$u20$I$u20$as$u20$core..iter..traits..iterator..IteratorRefSpec$GT$13spec_try_fold17hec20fc615fb1ca3bE', symObjAddr: 0x2B8, symBinAddr: 0x1ED30, symSize: 0x3C }
  - { offset: 0x692F3, size: 0x8, addend: 0x0, symName: '__ZN83_$LT$$RF$mut$u20$I$u20$as$u20$core..iter..traits..exact_size..ExactSizeIterator$GT$3len17hf0b5927d0d180d73E', symObjAddr: 0x2F4, symBinAddr: 0x1ED6C, symSize: 0x28 }
  - { offset: 0x69DEF, size: 0x8, addend: 0x0, symName: __ZN4pyo35impl_16extract_argument16extract_argument17h32692ba2af5a9f27E, symObjAddr: 0x0, symBinAddr: 0x1ED94, symSize: 0x150 }
  - { offset: 0x6C416, size: 0x8, addend: 0x0, symName: __ZN4pyo35impl_16extract_argument16extract_argument17h32692ba2af5a9f27E, symObjAddr: 0x0, symBinAddr: 0x1ED94, symSize: 0x150 }
  - { offset: 0x6C49B, size: 0x8, addend: 0x0, symName: __ZN4pyo35impl_16extract_argument16extract_argument17h73a37d6b4f67bb23E, symObjAddr: 0x150, symBinAddr: 0x1EEE4, symSize: 0x144 }
  - { offset: 0x6C51F, size: 0x8, addend: 0x0, symName: __ZN4pyo35impl_16extract_argument16extract_argument17h8987e0bc79a0df90E, symObjAddr: 0x294, symBinAddr: 0x1F028, symSize: 0x138 }
  - { offset: 0x6C5A4, size: 0x8, addend: 0x0, symName: __ZN4pyo35impl_16extract_argument16extract_argument17h9b142da46f84e4bbE, symObjAddr: 0x3CC, symBinAddr: 0x1F160, symSize: 0x138 }
  - { offset: 0x6C629, size: 0x8, addend: 0x0, symName: __ZN4pyo35impl_16extract_argument16extract_argument17he8f886c1f848f386E, symObjAddr: 0x504, symBinAddr: 0x1F298, symSize: 0x144 }
  - { offset: 0x6C6AF, size: 0x8, addend: 0x0, symName: __ZN4pyo35impl_16extract_argument16extract_argument17hebbd140c53030a90E, symObjAddr: 0x648, symBinAddr: 0x1F3DC, symSize: 0x138 }
  - { offset: 0x6C733, size: 0x8, addend: 0x0, symName: __ZN4pyo35impl_16extract_argument16extract_argument17hf40606861efd5087E, symObjAddr: 0x780, symBinAddr: 0x1F514, symSize: 0x138 }
  - { offset: 0x6C7B8, size: 0x8, addend: 0x0, symName: __ZN4pyo35impl_16extract_argument16extract_argument17hfbfadefa3883ba1eE, symObjAddr: 0x8B8, symBinAddr: 0x1F64C, symSize: 0x138 }
  - { offset: 0x6C946, size: 0x8, addend: 0x0, symName: '__ZN4pyo35impl_16extract_argument19FunctionDescription26extract_arguments_fastcall28_$u7b$$u7b$closure$u7d$$u7d$17h69904551bd4f00a7E', symObjAddr: 0x16B0, symBinAddr: 0x20444, symSize: 0x24 }
  - { offset: 0x6C99E, size: 0x8, addend: 0x0, symName: '__ZN4pyo35impl_16extract_argument19FunctionDescription36find_keyword_parameter_in_positional28_$u7b$$u7b$closure$u7d$$u7d$17h6ba9c7e941def22eE', symObjAddr: 0x16D4, symBinAddr: 0x20468, symSize: 0x48 }
  - { offset: 0x6C9FE, size: 0x8, addend: 0x0, symName: '__ZN4pyo35impl_16extract_argument19FunctionDescription38find_keyword_parameter_in_keyword_only28_$u7b$$u7b$closure$u7d$$u7d$17ha6d540418d77292fE', symObjAddr: 0x171C, symBinAddr: 0x204B0, symSize: 0x38 }
  - { offset: 0x6CA40, size: 0x8, addend: 0x0, symName: __ZN4pyo35impl_16extract_argument19extract_pyclass_ref17h0f9711070318003eE, symObjAddr: 0x1754, symBinAddr: 0x204E8, symSize: 0xB0 }
  - { offset: 0x6CAA1, size: 0x8, addend: 0x0, symName: __ZN4pyo35impl_16extract_argument19extract_pyclass_ref17h28adfd660e963471E, symObjAddr: 0x1804, symBinAddr: 0x20598, symSize: 0xB0 }
  - { offset: 0x6CB02, size: 0x8, addend: 0x0, symName: __ZN4pyo35impl_16extract_argument19extract_pyclass_ref17h3628652846258094E, symObjAddr: 0x18B4, symBinAddr: 0x20648, symSize: 0xB0 }
  - { offset: 0x6CB63, size: 0x8, addend: 0x0, symName: __ZN4pyo35impl_16extract_argument19extract_pyclass_ref17h9a3e45a06259e7e5E, symObjAddr: 0x1964, symBinAddr: 0x206F8, symSize: 0xB0 }
  - { offset: 0x6CBC4, size: 0x8, addend: 0x0, symName: __ZN4pyo35impl_16extract_argument19extract_pyclass_ref17ha6b625f509e89507E, symObjAddr: 0x1A14, symBinAddr: 0x207A8, symSize: 0xB0 }
  - { offset: 0x6CC25, size: 0x8, addend: 0x0, symName: __ZN4pyo35impl_16extract_argument19extract_pyclass_ref17ha89930718b7e7edbE, symObjAddr: 0x1AC4, symBinAddr: 0x20858, symSize: 0xB0 }
  - { offset: 0x6CC86, size: 0x8, addend: 0x0, symName: __ZN4pyo35impl_16extract_argument19extract_pyclass_ref17hc35cc433966cec36E, symObjAddr: 0x1B74, symBinAddr: 0x20908, symSize: 0xB0 }
  - { offset: 0x6CCE7, size: 0x8, addend: 0x0, symName: __ZN4pyo35impl_16extract_argument19extract_pyclass_ref17hf48c4124766d9c76E, symObjAddr: 0x1C24, symBinAddr: 0x209B8, symSize: 0xB0 }
  - { offset: 0x6CD48, size: 0x8, addend: 0x0, symName: __ZN4pyo35impl_16extract_argument19extract_pyclass_ref17hfd77a5db36390cc7E, symObjAddr: 0x1CD4, symBinAddr: 0x20A68, symSize: 0xB0 }
  - { offset: 0x6CDAE, size: 0x8, addend: 0x0, symName: '__ZN71_$LT$T$u20$as$u20$pyo3..impl_..extract_argument..PyFunctionArgument$GT$7extract17h59a935877d456f67E', symObjAddr: 0x1D84, symBinAddr: 0x20B18, symSize: 0x28 }
  - { offset: 0x6CDED, size: 0x8, addend: 0x0, symName: '__ZN71_$LT$T$u20$as$u20$pyo3..impl_..extract_argument..PyFunctionArgument$GT$7extract17h5d165931597ef281E', symObjAddr: 0x1DAC, symBinAddr: 0x20B40, symSize: 0x28 }
  - { offset: 0x6CE2C, size: 0x8, addend: 0x0, symName: '__ZN71_$LT$T$u20$as$u20$pyo3..impl_..extract_argument..PyFunctionArgument$GT$7extract17h76a7cf68111741e7E', symObjAddr: 0x1DD4, symBinAddr: 0x20B68, symSize: 0x28 }
  - { offset: 0x6CE6B, size: 0x8, addend: 0x0, symName: '__ZN71_$LT$T$u20$as$u20$pyo3..impl_..extract_argument..PyFunctionArgument$GT$7extract17ha84361904443da0fE', symObjAddr: 0x1DFC, symBinAddr: 0x20B90, symSize: 0x28 }
  - { offset: 0x6CEAA, size: 0x8, addend: 0x0, symName: '__ZN71_$LT$T$u20$as$u20$pyo3..impl_..extract_argument..PyFunctionArgument$GT$7extract17haa17ae95412a4468E', symObjAddr: 0x1E24, symBinAddr: 0x20BB8, symSize: 0x28 }
  - { offset: 0x6CEE9, size: 0x8, addend: 0x0, symName: '__ZN71_$LT$T$u20$as$u20$pyo3..impl_..extract_argument..PyFunctionArgument$GT$7extract17hf060722badd1950fE', symObjAddr: 0x1E4C, symBinAddr: 0x20BE0, symSize: 0x28 }
  - { offset: 0x6DD77, size: 0x8, addend: 0x0, symName: __ZN4pyo35impl_16extract_argument19FunctionDescription13handle_kwargs17had3c8eb1341d58b3E, symObjAddr: 0x9F0, symBinAddr: 0x1F784, symSize: 0x6FC }
  - { offset: 0x6DF8E, size: 0x8, addend: 0x0, symName: __ZN4pyo35impl_16extract_argument19FunctionDescription26extract_arguments_fastcall17h561d09e0a79ededeE, symObjAddr: 0x10EC, symBinAddr: 0x1FE80, symSize: 0x5C4 }
  - { offset: 0x6E71F, size: 0x8, addend: 0x0, symName: '__ZN4core5slice29_$LT$impl$u20$$u5b$T$u5d$$GT$18split_at_unchecked18precondition_check17h0de0514a5892cef4E', symObjAddr: 0x0, symBinAddr: 0x20C08, symSize: 0x40 }
  - { offset: 0x6E740, size: 0x8, addend: 0x0, symName: '__ZN4core5slice29_$LT$impl$u20$$u5b$T$u5d$$GT$18split_at_unchecked18precondition_check17h0de0514a5892cef4E', symObjAddr: 0x0, symBinAddr: 0x20C08, symSize: 0x40 }
  - { offset: 0x6E79F, size: 0x8, addend: 0x0, symName: '__ZN118_$LT$pyo3..impl_..pyclass..SendablePyClass$LT$T$GT$$u20$as$u20$pyo3..impl_..pyclass..PyClassThreadChecker$LT$T$GT$$GT$3new17h103cb747d3e3a96cE', symObjAddr: 0x0, symBinAddr: 0x20C48, symSize: 0x4 }
  - { offset: 0x6F9D5, size: 0x8, addend: 0x0, symName: '__ZN118_$LT$pyo3..impl_..pyclass..SendablePyClass$LT$T$GT$$u20$as$u20$pyo3..impl_..pyclass..PyClassThreadChecker$LT$T$GT$$GT$3new17h103cb747d3e3a96cE', symObjAddr: 0x0, symBinAddr: 0x20C48, symSize: 0x4 }
  - { offset: 0x6F9F9, size: 0x8, addend: 0x0, symName: '__ZN118_$LT$pyo3..impl_..pyclass..SendablePyClass$LT$T$GT$$u20$as$u20$pyo3..impl_..pyclass..PyClassThreadChecker$LT$T$GT$$GT$3new17h50b2c1bd5f38a4eeE', symObjAddr: 0x4, symBinAddr: 0x20C4C, symSize: 0x4 }
  - { offset: 0x6FA1D, size: 0x8, addend: 0x0, symName: '__ZN118_$LT$pyo3..impl_..pyclass..SendablePyClass$LT$T$GT$$u20$as$u20$pyo3..impl_..pyclass..PyClassThreadChecker$LT$T$GT$$GT$3new17h52b78730eb2ebeb0E', symObjAddr: 0x8, symBinAddr: 0x20C50, symSize: 0x4 }
  - { offset: 0x6FA41, size: 0x8, addend: 0x0, symName: '__ZN118_$LT$pyo3..impl_..pyclass..SendablePyClass$LT$T$GT$$u20$as$u20$pyo3..impl_..pyclass..PyClassThreadChecker$LT$T$GT$$GT$3new17h576b4fe60a3a62b2E', symObjAddr: 0xC, symBinAddr: 0x20C54, symSize: 0x4 }
  - { offset: 0x6FA65, size: 0x8, addend: 0x0, symName: '__ZN118_$LT$pyo3..impl_..pyclass..SendablePyClass$LT$T$GT$$u20$as$u20$pyo3..impl_..pyclass..PyClassThreadChecker$LT$T$GT$$GT$3new17h5836695b304d48ffE', symObjAddr: 0x10, symBinAddr: 0x20C58, symSize: 0x4 }
  - { offset: 0x6FA89, size: 0x8, addend: 0x0, symName: '__ZN118_$LT$pyo3..impl_..pyclass..SendablePyClass$LT$T$GT$$u20$as$u20$pyo3..impl_..pyclass..PyClassThreadChecker$LT$T$GT$$GT$3new17h611d0a29d8ee27d6E', symObjAddr: 0x14, symBinAddr: 0x20C5C, symSize: 0x4 }
  - { offset: 0x6FAAD, size: 0x8, addend: 0x0, symName: '__ZN118_$LT$pyo3..impl_..pyclass..SendablePyClass$LT$T$GT$$u20$as$u20$pyo3..impl_..pyclass..PyClassThreadChecker$LT$T$GT$$GT$3new17hb635b78e14667f08E', symObjAddr: 0x18, symBinAddr: 0x20C60, symSize: 0x4 }
  - { offset: 0x6FAD1, size: 0x8, addend: 0x0, symName: '__ZN118_$LT$pyo3..impl_..pyclass..SendablePyClass$LT$T$GT$$u20$as$u20$pyo3..impl_..pyclass..PyClassThreadChecker$LT$T$GT$$GT$3new17hb66d770de6daa58bE', symObjAddr: 0x1C, symBinAddr: 0x20C64, symSize: 0x4 }
  - { offset: 0x6FAF5, size: 0x8, addend: 0x0, symName: '__ZN118_$LT$pyo3..impl_..pyclass..SendablePyClass$LT$T$GT$$u20$as$u20$pyo3..impl_..pyclass..PyClassThreadChecker$LT$T$GT$$GT$3new17hccf7f8875a94230cE', symObjAddr: 0x20, symBinAddr: 0x20C68, symSize: 0x4 }
  - { offset: 0x6FB19, size: 0x8, addend: 0x0, symName: '__ZN118_$LT$pyo3..impl_..pyclass..SendablePyClass$LT$T$GT$$u20$as$u20$pyo3..impl_..pyclass..PyClassThreadChecker$LT$T$GT$$GT$6ensure17h1a79286d9928ce1cE', symObjAddr: 0x24, symBinAddr: 0x20C6C, symSize: 0x10 }
  - { offset: 0x6FB4C, size: 0x8, addend: 0x0, symName: '__ZN118_$LT$pyo3..impl_..pyclass..SendablePyClass$LT$T$GT$$u20$as$u20$pyo3..impl_..pyclass..PyClassThreadChecker$LT$T$GT$$GT$6ensure17h3bde02cc6eea1eb9E', symObjAddr: 0x34, symBinAddr: 0x20C7C, symSize: 0x10 }
  - { offset: 0x6FB7F, size: 0x8, addend: 0x0, symName: '__ZN118_$LT$pyo3..impl_..pyclass..SendablePyClass$LT$T$GT$$u20$as$u20$pyo3..impl_..pyclass..PyClassThreadChecker$LT$T$GT$$GT$6ensure17h484ce54536b3573dE', symObjAddr: 0x44, symBinAddr: 0x20C8C, symSize: 0x10 }
  - { offset: 0x6FBB2, size: 0x8, addend: 0x0, symName: '__ZN118_$LT$pyo3..impl_..pyclass..SendablePyClass$LT$T$GT$$u20$as$u20$pyo3..impl_..pyclass..PyClassThreadChecker$LT$T$GT$$GT$6ensure17h5ae955733f8ff48bE', symObjAddr: 0x54, symBinAddr: 0x20C9C, symSize: 0x10 }
  - { offset: 0x6FBE5, size: 0x8, addend: 0x0, symName: '__ZN118_$LT$pyo3..impl_..pyclass..SendablePyClass$LT$T$GT$$u20$as$u20$pyo3..impl_..pyclass..PyClassThreadChecker$LT$T$GT$$GT$6ensure17h5dc775e78d06976aE', symObjAddr: 0x64, symBinAddr: 0x20CAC, symSize: 0x10 }
  - { offset: 0x6FC18, size: 0x8, addend: 0x0, symName: '__ZN118_$LT$pyo3..impl_..pyclass..SendablePyClass$LT$T$GT$$u20$as$u20$pyo3..impl_..pyclass..PyClassThreadChecker$LT$T$GT$$GT$6ensure17h674a1d4ef2fa2414E', symObjAddr: 0x74, symBinAddr: 0x20CBC, symSize: 0x10 }
  - { offset: 0x6FC4B, size: 0x8, addend: 0x0, symName: '__ZN118_$LT$pyo3..impl_..pyclass..SendablePyClass$LT$T$GT$$u20$as$u20$pyo3..impl_..pyclass..PyClassThreadChecker$LT$T$GT$$GT$6ensure17h6f59aa7d4a0fc77dE', symObjAddr: 0x84, symBinAddr: 0x20CCC, symSize: 0x10 }
  - { offset: 0x6FC7E, size: 0x8, addend: 0x0, symName: '__ZN118_$LT$pyo3..impl_..pyclass..SendablePyClass$LT$T$GT$$u20$as$u20$pyo3..impl_..pyclass..PyClassThreadChecker$LT$T$GT$$GT$6ensure17h85321c35e5db7548E', symObjAddr: 0x94, symBinAddr: 0x20CDC, symSize: 0x10 }
  - { offset: 0x6FCB1, size: 0x8, addend: 0x0, symName: '__ZN118_$LT$pyo3..impl_..pyclass..SendablePyClass$LT$T$GT$$u20$as$u20$pyo3..impl_..pyclass..PyClassThreadChecker$LT$T$GT$$GT$6ensure17h8cdb2436dc771274E', symObjAddr: 0xA4, symBinAddr: 0x20CEC, symSize: 0x10 }
  - { offset: 0x6FCE4, size: 0x8, addend: 0x0, symName: '__ZN118_$LT$pyo3..impl_..pyclass..SendablePyClass$LT$T$GT$$u20$as$u20$pyo3..impl_..pyclass..PyClassThreadChecker$LT$T$GT$$GT$8can_drop17h35964e4133428498E', symObjAddr: 0xB4, symBinAddr: 0x20CFC, symSize: 0x18 }
  - { offset: 0x6FD35, size: 0x8, addend: 0x0, symName: '__ZN118_$LT$pyo3..impl_..pyclass..SendablePyClass$LT$T$GT$$u20$as$u20$pyo3..impl_..pyclass..PyClassThreadChecker$LT$T$GT$$GT$8can_drop17h49f952e4b33900a4E', symObjAddr: 0xCC, symBinAddr: 0x20D14, symSize: 0x18 }
  - { offset: 0x6FD86, size: 0x8, addend: 0x0, symName: '__ZN118_$LT$pyo3..impl_..pyclass..SendablePyClass$LT$T$GT$$u20$as$u20$pyo3..impl_..pyclass..PyClassThreadChecker$LT$T$GT$$GT$8can_drop17h65096af19bdf716dE', symObjAddr: 0xE4, symBinAddr: 0x20D2C, symSize: 0x18 }
  - { offset: 0x6FDD7, size: 0x8, addend: 0x0, symName: '__ZN118_$LT$pyo3..impl_..pyclass..SendablePyClass$LT$T$GT$$u20$as$u20$pyo3..impl_..pyclass..PyClassThreadChecker$LT$T$GT$$GT$8can_drop17ha4baa405101c4e49E', symObjAddr: 0xFC, symBinAddr: 0x20D44, symSize: 0x18 }
  - { offset: 0x6FE28, size: 0x8, addend: 0x0, symName: '__ZN118_$LT$pyo3..impl_..pyclass..SendablePyClass$LT$T$GT$$u20$as$u20$pyo3..impl_..pyclass..PyClassThreadChecker$LT$T$GT$$GT$8can_drop17hc3bed2f24772c2b3E', symObjAddr: 0x114, symBinAddr: 0x20D5C, symSize: 0x18 }
  - { offset: 0x6FE79, size: 0x8, addend: 0x0, symName: '__ZN118_$LT$pyo3..impl_..pyclass..SendablePyClass$LT$T$GT$$u20$as$u20$pyo3..impl_..pyclass..PyClassThreadChecker$LT$T$GT$$GT$8can_drop17hdce4994af5dcaea7E', symObjAddr: 0x12C, symBinAddr: 0x20D74, symSize: 0x18 }
  - { offset: 0x6FECA, size: 0x8, addend: 0x0, symName: '__ZN118_$LT$pyo3..impl_..pyclass..SendablePyClass$LT$T$GT$$u20$as$u20$pyo3..impl_..pyclass..PyClassThreadChecker$LT$T$GT$$GT$8can_drop17he240e781310ae07cE', symObjAddr: 0x144, symBinAddr: 0x20D8C, symSize: 0x18 }
  - { offset: 0x6FF1B, size: 0x8, addend: 0x0, symName: '__ZN118_$LT$pyo3..impl_..pyclass..SendablePyClass$LT$T$GT$$u20$as$u20$pyo3..impl_..pyclass..PyClassThreadChecker$LT$T$GT$$GT$8can_drop17hf576ff5d8c6ce3abE', symObjAddr: 0x15C, symBinAddr: 0x20DA4, symSize: 0x18 }
  - { offset: 0x6FF6C, size: 0x8, addend: 0x0, symName: '__ZN118_$LT$pyo3..impl_..pyclass..SendablePyClass$LT$T$GT$$u20$as$u20$pyo3..impl_..pyclass..PyClassThreadChecker$LT$T$GT$$GT$8can_drop17hfac864b7099f99beE', symObjAddr: 0x174, symBinAddr: 0x20DBC, symSize: 0x18 }
  - { offset: 0x6FFC3, size: 0x8, addend: 0x0, symName: '__ZN130_$LT$$RF$pyo3..impl_..pyclass..PyClassImplCollector$LT$T$GT$$u20$as$u20$pyo3..impl_..pyclass..PyClassNewTextSignature$LT$T$GT$$GT$18new_text_signature17h08605c4589f0fa1dE', symObjAddr: 0x18C, symBinAddr: 0x20DD4, symSize: 0x1C }
  - { offset: 0x6FFFA, size: 0x8, addend: 0x0, symName: '__ZN130_$LT$$RF$pyo3..impl_..pyclass..PyClassImplCollector$LT$T$GT$$u20$as$u20$pyo3..impl_..pyclass..PyClassNewTextSignature$LT$T$GT$$GT$18new_text_signature17h1ba0361950e1cfa5E', symObjAddr: 0x1A8, symBinAddr: 0x20DF0, symSize: 0x1C }
  - { offset: 0x70031, size: 0x8, addend: 0x0, symName: '__ZN130_$LT$$RF$pyo3..impl_..pyclass..PyClassImplCollector$LT$T$GT$$u20$as$u20$pyo3..impl_..pyclass..PyClassNewTextSignature$LT$T$GT$$GT$18new_text_signature17h20ac3e1002de4319E', symObjAddr: 0x1C4, symBinAddr: 0x20E0C, symSize: 0x1C }
  - { offset: 0x70068, size: 0x8, addend: 0x0, symName: '__ZN130_$LT$$RF$pyo3..impl_..pyclass..PyClassImplCollector$LT$T$GT$$u20$as$u20$pyo3..impl_..pyclass..PyClassNewTextSignature$LT$T$GT$$GT$18new_text_signature17h2db8adce107c4baeE', symObjAddr: 0x1E0, symBinAddr: 0x20E28, symSize: 0x1C }
  - { offset: 0x7009F, size: 0x8, addend: 0x0, symName: '__ZN130_$LT$$RF$pyo3..impl_..pyclass..PyClassImplCollector$LT$T$GT$$u20$as$u20$pyo3..impl_..pyclass..PyClassNewTextSignature$LT$T$GT$$GT$18new_text_signature17h32b2b9c5fce1652bE', symObjAddr: 0x1FC, symBinAddr: 0x20E44, symSize: 0x1C }
  - { offset: 0x700D6, size: 0x8, addend: 0x0, symName: '__ZN130_$LT$$RF$pyo3..impl_..pyclass..PyClassImplCollector$LT$T$GT$$u20$as$u20$pyo3..impl_..pyclass..PyClassNewTextSignature$LT$T$GT$$GT$18new_text_signature17h7e361970854ee983E', symObjAddr: 0x218, symBinAddr: 0x20E60, symSize: 0x1C }
  - { offset: 0x7010D, size: 0x8, addend: 0x0, symName: '__ZN130_$LT$$RF$pyo3..impl_..pyclass..PyClassImplCollector$LT$T$GT$$u20$as$u20$pyo3..impl_..pyclass..PyClassNewTextSignature$LT$T$GT$$GT$18new_text_signature17h90788ca84afa4f52E', symObjAddr: 0x234, symBinAddr: 0x20E7C, symSize: 0x1C }
  - { offset: 0x70144, size: 0x8, addend: 0x0, symName: '__ZN130_$LT$$RF$pyo3..impl_..pyclass..PyClassImplCollector$LT$T$GT$$u20$as$u20$pyo3..impl_..pyclass..PyClassNewTextSignature$LT$T$GT$$GT$18new_text_signature17ha696b9f80ae7452dE', symObjAddr: 0x250, symBinAddr: 0x20E98, symSize: 0x1C }
  - { offset: 0x7017B, size: 0x8, addend: 0x0, symName: '__ZN130_$LT$$RF$pyo3..impl_..pyclass..PyClassImplCollector$LT$T$GT$$u20$as$u20$pyo3..impl_..pyclass..PyClassNewTextSignature$LT$T$GT$$GT$18new_text_signature17heeaca243f91074c5E', symObjAddr: 0x26C, symBinAddr: 0x20EB4, symSize: 0x1C }
  - { offset: 0x701B3, size: 0x8, addend: 0x0, symName: __ZN4pyo35impl_7pyclass10tp_dealloc17h0db8f981f543070aE, symObjAddr: 0x288, symBinAddr: 0x20ED0, symSize: 0x34 }
  - { offset: 0x701E6, size: 0x8, addend: 0x0, symName: __ZN4pyo35impl_7pyclass10tp_dealloc17h14eb52badcb8d9ebE, symObjAddr: 0x2BC, symBinAddr: 0x20F04, symSize: 0x34 }
  - { offset: 0x70219, size: 0x8, addend: 0x0, symName: __ZN4pyo35impl_7pyclass10tp_dealloc17h50216b2d2f712638E, symObjAddr: 0x2F0, symBinAddr: 0x20F38, symSize: 0x34 }
  - { offset: 0x7024C, size: 0x8, addend: 0x0, symName: __ZN4pyo35impl_7pyclass10tp_dealloc17h725d7d654ea58945E, symObjAddr: 0x324, symBinAddr: 0x20F6C, symSize: 0x34 }
  - { offset: 0x7027F, size: 0x8, addend: 0x0, symName: __ZN4pyo35impl_7pyclass10tp_dealloc17h78184abbf081801aE, symObjAddr: 0x358, symBinAddr: 0x20FA0, symSize: 0x34 }
  - { offset: 0x702B2, size: 0x8, addend: 0x0, symName: __ZN4pyo35impl_7pyclass10tp_dealloc17h9dbffac0a2941fa2E, symObjAddr: 0x38C, symBinAddr: 0x20FD4, symSize: 0x34 }
  - { offset: 0x702E5, size: 0x8, addend: 0x0, symName: __ZN4pyo35impl_7pyclass10tp_dealloc17hb6438d84e0be3618E, symObjAddr: 0x3C0, symBinAddr: 0x21008, symSize: 0x34 }
  - { offset: 0x70318, size: 0x8, addend: 0x0, symName: __ZN4pyo35impl_7pyclass10tp_dealloc17he258ea3f9de9e840E, symObjAddr: 0x3F4, symBinAddr: 0x2103C, symSize: 0x34 }
  - { offset: 0x7034B, size: 0x8, addend: 0x0, symName: __ZN4pyo35impl_7pyclass10tp_dealloc17hf3df6b69e1e01945E, symObjAddr: 0x428, symBinAddr: 0x21070, symSize: 0x34 }
  - { offset: 0x70383, size: 0x8, addend: 0x0, symName: __ZN4pyo35impl_7pyclass11PyClassDict10clear_dict17hf2284b476269e765E, symObjAddr: 0x45C, symBinAddr: 0x210A4, symSize: 0x10 }
  - { offset: 0x703D2, size: 0x8, addend: 0x0, symName: __ZN4pyo35impl_7pyclass14PyClassWeakRef14clear_weakrefs17h3145fb2fcc85f525E, symObjAddr: 0x46C, symBinAddr: 0x210B4, symSize: 0x14 }
  - { offset: 0x7042A, size: 0x8, addend: 0x0, symName: __ZN4pyo35impl_7pyclass18tp_dealloc_with_gc17h23733e5575a5b059E, symObjAddr: 0x480, symBinAddr: 0x210C8, symSize: 0x4C }
  - { offset: 0x7047B, size: 0x8, addend: 0x0, symName: __ZN4pyo35impl_7pyclass18tp_dealloc_with_gc17h2fb47caa99fe1540E, symObjAddr: 0x4CC, symBinAddr: 0x21114, symSize: 0x4C }
  - { offset: 0x704CC, size: 0x8, addend: 0x0, symName: __ZN4pyo35impl_7pyclass18tp_dealloc_with_gc17h5bc9bc8d9f3553d1E, symObjAddr: 0x518, symBinAddr: 0x21160, symSize: 0x4C }
  - { offset: 0x7051D, size: 0x8, addend: 0x0, symName: __ZN4pyo35impl_7pyclass18tp_dealloc_with_gc17h98b5323dedbbf513E, symObjAddr: 0x564, symBinAddr: 0x211AC, symSize: 0x4C }
  - { offset: 0x7056E, size: 0x8, addend: 0x0, symName: __ZN4pyo35impl_7pyclass18tp_dealloc_with_gc17h9be7f8546867c303E, symObjAddr: 0x5B0, symBinAddr: 0x211F8, symSize: 0x4C }
  - { offset: 0x705BF, size: 0x8, addend: 0x0, symName: __ZN4pyo35impl_7pyclass18tp_dealloc_with_gc17ha5c41c33467e8b57E, symObjAddr: 0x5FC, symBinAddr: 0x21244, symSize: 0x4C }
  - { offset: 0x70610, size: 0x8, addend: 0x0, symName: __ZN4pyo35impl_7pyclass18tp_dealloc_with_gc17hbe5d65a2a7990544E, symObjAddr: 0x648, symBinAddr: 0x21290, symSize: 0x4C }
  - { offset: 0x70661, size: 0x8, addend: 0x0, symName: __ZN4pyo35impl_7pyclass18tp_dealloc_with_gc17hec1e53ff991bbe91E, symObjAddr: 0x694, symBinAddr: 0x212DC, symSize: 0x4C }
  - { offset: 0x706B2, size: 0x8, addend: 0x0, symName: __ZN4pyo35impl_7pyclass18tp_dealloc_with_gc17hef83f7e561b502b7E, symObjAddr: 0x6E0, symBinAddr: 0x21328, symSize: 0x4C }
  - { offset: 0x71059, size: 0x8, addend: 0x0, symName: '__ZN4pyo35impl_7pyclass29PyClassImplCollector$LT$T$GT$3new17h2703880213c59c14E', symObjAddr: 0x72C, symBinAddr: 0x21374, symSize: 0x4 }
  - { offset: 0x71076, size: 0x8, addend: 0x0, symName: '__ZN4pyo35impl_7pyclass29PyClassImplCollector$LT$T$GT$3new17h3aedbcd4c9599409E', symObjAddr: 0x730, symBinAddr: 0x21378, symSize: 0x4 }
  - { offset: 0x71093, size: 0x8, addend: 0x0, symName: '__ZN4pyo35impl_7pyclass29PyClassImplCollector$LT$T$GT$3new17h40b76950627a340eE', symObjAddr: 0x734, symBinAddr: 0x2137C, symSize: 0x4 }
  - { offset: 0x710B0, size: 0x8, addend: 0x0, symName: '__ZN4pyo35impl_7pyclass29PyClassImplCollector$LT$T$GT$3new17h61196a343db1e1d7E', symObjAddr: 0x738, symBinAddr: 0x21380, symSize: 0x4 }
  - { offset: 0x710CD, size: 0x8, addend: 0x0, symName: '__ZN4pyo35impl_7pyclass29PyClassImplCollector$LT$T$GT$3new17h6b31af299269def2E', symObjAddr: 0x73C, symBinAddr: 0x21384, symSize: 0x4 }
  - { offset: 0x710EA, size: 0x8, addend: 0x0, symName: '__ZN4pyo35impl_7pyclass29PyClassImplCollector$LT$T$GT$3new17hde446a53ce476948E', symObjAddr: 0x740, symBinAddr: 0x21388, symSize: 0x4 }
  - { offset: 0x71107, size: 0x8, addend: 0x0, symName: '__ZN4pyo35impl_7pyclass29PyClassImplCollector$LT$T$GT$3new17hebe1c4d6b57528bcE', symObjAddr: 0x744, symBinAddr: 0x2138C, symSize: 0x4 }
  - { offset: 0x71124, size: 0x8, addend: 0x0, symName: '__ZN4pyo35impl_7pyclass29PyClassImplCollector$LT$T$GT$3new17hfc2b89e9d4cd9054E', symObjAddr: 0x748, symBinAddr: 0x21390, symSize: 0x4 }
  - { offset: 0x71141, size: 0x8, addend: 0x0, symName: '__ZN4pyo35impl_7pyclass29PyClassImplCollector$LT$T$GT$3new17hff344ac2988998d8E', symObjAddr: 0x74C, symBinAddr: 0x21394, symSize: 0x4 }
  - { offset: 0x712D9, size: 0x8, addend: 0x0, symName: __ZN4pyo35types4list17try_new_from_iter17hea2a5590decda5c8E, symObjAddr: 0x0, symBinAddr: 0x21398, symSize: 0x2A8 }
  - { offset: 0x7296C, size: 0x8, addend: 0x0, symName: __ZN4pyo35types4list17try_new_from_iter17hea2a5590decda5c8E, symObjAddr: 0x0, symBinAddr: 0x21398, symSize: 0x2A8 }
  - { offset: 0x72A8B, size: 0x8, addend: 0x0, symName: '__ZN4pyo35types4list17try_new_from_iter28_$u7b$$u7b$closure$u7d$$u7d$17h250ac04bd3135cf0E', symObjAddr: 0x2A8, symBinAddr: 0x21640, symSize: 0xDC }
  - { offset: 0x734D9, size: 0x8, addend: 0x0, symName: __ZN4pyo33gil8GILGuard6python17ha36c1cf3def0ff10E, symObjAddr: 0x0, symBinAddr: 0x2171C, symSize: 0x20 }
  - { offset: 0x73589, size: 0x8, addend: 0x0, symName: __ZN4pyo33gil8GILGuard6python17ha36c1cf3def0ff10E, symObjAddr: 0x0, symBinAddr: 0x2171C, symSize: 0x20 }
  - { offset: 0x735C9, size: 0x8, addend: 0x0, symName: '__ZN53_$LT$snid_core..Error$u20$as$u20$core..fmt..Debug$GT$3fmt17h9c9c23916e8f49e2E', symObjAddr: 0x0, symBinAddr: 0x2173C, symSize: 0x218 }
  - { offset: 0x73E31, size: 0x8, addend: 0x0, symName: '__ZN53_$LT$snid_core..Error$u20$as$u20$core..fmt..Debug$GT$3fmt17h9c9c23916e8f49e2E', symObjAddr: 0x0, symBinAddr: 0x2173C, symSize: 0x218 }
  - { offset: 0x7401C, size: 0x8, addend: 0x0, symName: '__ZN73_$LT$pyo3..types..any..PyAny$u20$as$u20$pyo3..type_object..PyTypeInfo$GT$15type_object_raw17h66ee5cd56cd9c417E', symObjAddr: 0x0, symBinAddr: 0x21954, symSize: 0x24 }
  - { offset: 0x7510F, size: 0x8, addend: 0x0, symName: '__ZN73_$LT$pyo3..types..any..PyAny$u20$as$u20$pyo3..type_object..PyTypeInfo$GT$15type_object_raw17h66ee5cd56cd9c417E', symObjAddr: 0x0, symBinAddr: 0x21954, symSize: 0x24 }
  - { offset: 0x75680, size: 0x8, addend: 0x0, symName: '__ZN100_$LT$core..iter..adapters..take..Take$LT$I$GT$$u20$as$u20$core..iter..traits..iterator..Iterator$GT$8try_fold17h1c8e914bd40e2bb7E', symObjAddr: 0x0, symBinAddr: 0x21978, symSize: 0x11C }
  - { offset: 0x76C5F, size: 0x8, addend: 0x0, symName: '__ZN100_$LT$core..iter..adapters..take..Take$LT$I$GT$$u20$as$u20$core..iter..traits..iterator..Iterator$GT$8try_fold17h1c8e914bd40e2bb7E', symObjAddr: 0x0, symBinAddr: 0x21978, symSize: 0x11C }
  - { offset: 0x76D36, size: 0x8, addend: 0x0, symName: '__ZN100_$LT$core..iter..adapters..take..Take$LT$I$GT$$u20$as$u20$core..iter..traits..iterator..Iterator$GT$8try_fold5check28_$u7b$$u7b$closure$u7d$$u7d$17h55e17aec3818532fE', symObjAddr: 0x11C, symBinAddr: 0x21A94, symSize: 0x138 }
  - { offset: 0x7790C, size: 0x8, addend: 0x0, symName: '__ZN42_$LT$$RF$T$u20$as$u20$core..fmt..Debug$GT$3fmt17h1ead35fffeb371abE', symObjAddr: 0x0, symBinAddr: 0x21BCC, symSize: 0x30 }
  - { offset: 0x77BB7, size: 0x8, addend: 0x0, symName: '__ZN42_$LT$$RF$T$u20$as$u20$core..fmt..Debug$GT$3fmt17h1ead35fffeb371abE', symObjAddr: 0x0, symBinAddr: 0x21BCC, symSize: 0x30 }
  - { offset: 0x781AC, size: 0x8, addend: 0x0, symName: __ZN4pyo311type_object10PyTypeInfo11type_object17hed7eb4c5bd954f8aE, symObjAddr: 0x0, symBinAddr: 0x21BFC, symSize: 0x30 }
  - { offset: 0x79324, size: 0x8, addend: 0x0, symName: __ZN4pyo311type_object10PyTypeInfo11type_object17hed7eb4c5bd954f8aE, symObjAddr: 0x0, symBinAddr: 0x21BFC, symSize: 0x30 }
  - { offset: 0x79940, size: 0x8, addend: 0x0, symName: __ZN4pyo310conversion15IntoPyObjectExt17into_bound_py_any17h353898f509591f09E, symObjAddr: 0x0, symBinAddr: 0x21C2C, symSize: 0xAC }
  - { offset: 0x7A155, size: 0x8, addend: 0x0, symName: '__ZN50_$LT$T$u20$as$u20$core..convert..Into$LT$U$GT$$GT$4into17h16e476c4cbd87a8eE', symObjAddr: 0xD4C, symBinAddr: 0x22978, symSize: 0x14 }
  - { offset: 0x7A196, size: 0x8, addend: 0x0, symName: '__ZN50_$LT$T$u20$as$u20$core..convert..Into$LT$U$GT$$GT$4into17h5ad91ee4f693acacE', symObjAddr: 0xD60, symBinAddr: 0x2298C, symSize: 0x14 }
  - { offset: 0x7A1D7, size: 0x8, addend: 0x0, symName: '__ZN50_$LT$T$u20$as$u20$core..convert..Into$LT$U$GT$$GT$4into17h6d22bf585e898ce0E', symObjAddr: 0xD74, symBinAddr: 0x229A0, symSize: 0x14 }
  - { offset: 0x7A218, size: 0x8, addend: 0x0, symName: '__ZN50_$LT$T$u20$as$u20$core..convert..Into$LT$U$GT$$GT$4into17h6f0bb7ea546e9b85E', symObjAddr: 0xD88, symBinAddr: 0x229B4, symSize: 0x20 }
  - { offset: 0x7A258, size: 0x8, addend: 0x0, symName: '__ZN50_$LT$T$u20$as$u20$core..convert..Into$LT$U$GT$$GT$4into17h7f9fb2503dfb41daE', symObjAddr: 0xDA8, symBinAddr: 0x229D4, symSize: 0x14 }
  - { offset: 0x7A299, size: 0x8, addend: 0x0, symName: '__ZN50_$LT$T$u20$as$u20$core..convert..Into$LT$U$GT$$GT$4into17hc97fa34b305c32deE', symObjAddr: 0xDBC, symBinAddr: 0x229E8, symSize: 0x14 }
  - { offset: 0x7A2DA, size: 0x8, addend: 0x0, symName: '__ZN50_$LT$T$u20$as$u20$core..convert..Into$LT$U$GT$$GT$4into17hca0776dc979f80baE', symObjAddr: 0xDD0, symBinAddr: 0x229FC, symSize: 0x14 }
  - { offset: 0x7A31B, size: 0x8, addend: 0x0, symName: '__ZN50_$LT$T$u20$as$u20$core..convert..Into$LT$U$GT$$GT$4into17hddfebdc4f7c3e08eE', symObjAddr: 0xDE4, symBinAddr: 0x22A10, symSize: 0x14 }
  - { offset: 0x7A35C, size: 0x8, addend: 0x0, symName: '__ZN50_$LT$T$u20$as$u20$core..convert..Into$LT$U$GT$$GT$4into17hf3a75f4218f6a414E', symObjAddr: 0xDF8, symBinAddr: 0x22A24, symSize: 0x14 }
  - { offset: 0x7B3F7, size: 0x8, addend: 0x0, symName: __ZN4pyo310conversion15IntoPyObjectExt17into_bound_py_any17h353898f509591f09E, symObjAddr: 0x0, symBinAddr: 0x21C2C, symSize: 0xAC }
  - { offset: 0x7B486, size: 0x8, addend: 0x0, symName: __ZN4pyo310conversion15IntoPyObjectExt17into_bound_py_any17h72f511a3bcbf34e2E, symObjAddr: 0xAC, symBinAddr: 0x21CD8, symSize: 0xB8 }
  - { offset: 0x7B514, size: 0x8, addend: 0x0, symName: __ZN4pyo310conversion15IntoPyObjectExt17into_bound_py_any17h897a55433cf5e442E, symObjAddr: 0x164, symBinAddr: 0x21D90, symSize: 0xAC }
  - { offset: 0x7B5A3, size: 0x8, addend: 0x0, symName: __ZN4pyo310conversion15IntoPyObjectExt17into_bound_py_any17h91b07a087a0a2973E, symObjAddr: 0x210, symBinAddr: 0x21E3C, symSize: 0xAC }
  - { offset: 0x7B632, size: 0x8, addend: 0x0, symName: __ZN4pyo310conversion15IntoPyObjectExt17into_bound_py_any17h92e1e340716d9a8cE, symObjAddr: 0x2BC, symBinAddr: 0x21EE8, symSize: 0xAC }
  - { offset: 0x7B6C1, size: 0x8, addend: 0x0, symName: __ZN4pyo310conversion15IntoPyObjectExt17into_bound_py_any17h97674bd25789fd43E, symObjAddr: 0x368, symBinAddr: 0x21F94, symSize: 0xAC }
  - { offset: 0x7B750, size: 0x8, addend: 0x0, symName: __ZN4pyo310conversion15IntoPyObjectExt17into_bound_py_any17hb542a3156a9833baE, symObjAddr: 0x414, symBinAddr: 0x22040, symSize: 0xAC }
  - { offset: 0x7B7DF, size: 0x8, addend: 0x0, symName: __ZN4pyo310conversion15IntoPyObjectExt17into_bound_py_any17hbbf98793ac6134d6E, symObjAddr: 0x4C0, symBinAddr: 0x220EC, symSize: 0xAC }
  - { offset: 0x7B86E, size: 0x8, addend: 0x0, symName: __ZN4pyo310conversion15IntoPyObjectExt17into_bound_py_any17hc9dbf332a32902fbE, symObjAddr: 0x56C, symBinAddr: 0x22198, symSize: 0xAC }
  - { offset: 0x7B8FD, size: 0x8, addend: 0x0, symName: __ZN4pyo310conversion15IntoPyObjectExt17into_bound_py_any17hcc6f48c798baf94bE, symObjAddr: 0x618, symBinAddr: 0x22244, symSize: 0xAC }
  - { offset: 0x7B998, size: 0x8, addend: 0x0, symName: __ZN4pyo311type_object10PyTypeInfo10is_type_of17h18d414bfa6599c37E, symObjAddr: 0x6C4, symBinAddr: 0x222F0, symSize: 0x50 }
  - { offset: 0x7B9CD, size: 0x8, addend: 0x0, symName: __ZN4pyo311type_object10PyTypeInfo10is_type_of17h238663f443e434d5E, symObjAddr: 0x714, symBinAddr: 0x22340, symSize: 0x50 }
  - { offset: 0x7BA02, size: 0x8, addend: 0x0, symName: __ZN4pyo311type_object10PyTypeInfo10is_type_of17h3f5f00865977157cE, symObjAddr: 0x764, symBinAddr: 0x22390, symSize: 0x50 }
  - { offset: 0x7BA37, size: 0x8, addend: 0x0, symName: __ZN4pyo311type_object10PyTypeInfo10is_type_of17h6edd3eedebe47688E, symObjAddr: 0x7B4, symBinAddr: 0x223E0, symSize: 0x50 }
  - { offset: 0x7BA6C, size: 0x8, addend: 0x0, symName: __ZN4pyo311type_object10PyTypeInfo10is_type_of17h70b791bb3e875117E, symObjAddr: 0x804, symBinAddr: 0x22430, symSize: 0x50 }
  - { offset: 0x7BAA1, size: 0x8, addend: 0x0, symName: __ZN4pyo311type_object10PyTypeInfo10is_type_of17h843b6e870f652aceE, symObjAddr: 0x854, symBinAddr: 0x22480, symSize: 0x50 }
  - { offset: 0x7BAD6, size: 0x8, addend: 0x0, symName: __ZN4pyo311type_object10PyTypeInfo10is_type_of17h9011875f6b788859E, symObjAddr: 0x8A4, symBinAddr: 0x224D0, symSize: 0x50 }
  - { offset: 0x7BB0B, size: 0x8, addend: 0x0, symName: __ZN4pyo311type_object10PyTypeInfo10is_type_of17h90fde0e052a2f13aE, symObjAddr: 0x8F4, symBinAddr: 0x22520, symSize: 0x50 }
  - { offset: 0x7BB40, size: 0x8, addend: 0x0, symName: __ZN4pyo311type_object10PyTypeInfo10is_type_of17hf48b84f4d1df3739E, symObjAddr: 0x944, symBinAddr: 0x22570, symSize: 0x50 }
  - { offset: 0x7BB7B, size: 0x8, addend: 0x0, symName: '__ZN52_$LT$T$u20$as$u20$pyo3..type_object..PyTypeCheck$GT$10type_check17h0409cbf4d4a8c179E', symObjAddr: 0xE0C, symBinAddr: 0x22A38, symSize: 0x24 }
  - { offset: 0x7BBB0, size: 0x8, addend: 0x0, symName: '__ZN52_$LT$T$u20$as$u20$pyo3..type_object..PyTypeCheck$GT$10type_check17h15b28393d649e525E', symObjAddr: 0xE30, symBinAddr: 0x22A5C, symSize: 0x24 }
  - { offset: 0x7BBE5, size: 0x8, addend: 0x0, symName: '__ZN52_$LT$T$u20$as$u20$pyo3..type_object..PyTypeCheck$GT$10type_check17h368b2a9a7d838926E', symObjAddr: 0xE54, symBinAddr: 0x22A80, symSize: 0x24 }
  - { offset: 0x7BC1A, size: 0x8, addend: 0x0, symName: '__ZN52_$LT$T$u20$as$u20$pyo3..type_object..PyTypeCheck$GT$10type_check17h52e0b1515d6cc5c2E', symObjAddr: 0xE78, symBinAddr: 0x22AA4, symSize: 0x24 }
  - { offset: 0x7BC4F, size: 0x8, addend: 0x0, symName: '__ZN52_$LT$T$u20$as$u20$pyo3..type_object..PyTypeCheck$GT$10type_check17h5348f163316be740E', symObjAddr: 0xE9C, symBinAddr: 0x22AC8, symSize: 0x24 }
  - { offset: 0x7BC84, size: 0x8, addend: 0x0, symName: '__ZN52_$LT$T$u20$as$u20$pyo3..type_object..PyTypeCheck$GT$10type_check17h6041a6a4e1b95f68E', symObjAddr: 0xEC0, symBinAddr: 0x22AEC, symSize: 0x24 }
  - { offset: 0x7BCB9, size: 0x8, addend: 0x0, symName: '__ZN52_$LT$T$u20$as$u20$pyo3..type_object..PyTypeCheck$GT$10type_check17h71471a1b65aae024E', symObjAddr: 0xEE4, symBinAddr: 0x22B10, symSize: 0x24 }
  - { offset: 0x7BCEE, size: 0x8, addend: 0x0, symName: '__ZN52_$LT$T$u20$as$u20$pyo3..type_object..PyTypeCheck$GT$10type_check17hca9df76b98785831E', symObjAddr: 0xF08, symBinAddr: 0x22B34, symSize: 0x24 }
  - { offset: 0x7BD23, size: 0x8, addend: 0x0, symName: '__ZN52_$LT$T$u20$as$u20$pyo3..type_object..PyTypeCheck$GT$10type_check17he8d967968e476ca0E', symObjAddr: 0xF2C, symBinAddr: 0x22B58, symSize: 0x24 }
  - { offset: 0x7BD69, size: 0x8, addend: 0x0, symName: __ZN4pyo35impl_7pyclass11PyClassImpl11dict_offset17h4222fb8a9dc0709aE, symObjAddr: 0x994, symBinAddr: 0x225C0, symSize: 0x18 }
  - { offset: 0x7BD90, size: 0x8, addend: 0x0, symName: __ZN4pyo35impl_7pyclass11PyClassImpl11dict_offset17h4aaac53d486940b4E, symObjAddr: 0x9AC, symBinAddr: 0x225D8, symSize: 0x18 }
  - { offset: 0x7BDB7, size: 0x8, addend: 0x0, symName: __ZN4pyo35impl_7pyclass11PyClassImpl11dict_offset17h5405af5817bfacdeE, symObjAddr: 0x9C4, symBinAddr: 0x225F0, symSize: 0x18 }
  - { offset: 0x7BDDE, size: 0x8, addend: 0x0, symName: __ZN4pyo35impl_7pyclass11PyClassImpl11dict_offset17h5ef572384c4ff123E, symObjAddr: 0x9DC, symBinAddr: 0x22608, symSize: 0x18 }
  - { offset: 0x7BE05, size: 0x8, addend: 0x0, symName: __ZN4pyo35impl_7pyclass11PyClassImpl11dict_offset17h6a2684ed5aa45b96E, symObjAddr: 0x9F4, symBinAddr: 0x22620, symSize: 0x18 }
  - { offset: 0x7BE2C, size: 0x8, addend: 0x0, symName: __ZN4pyo35impl_7pyclass11PyClassImpl11dict_offset17h81f489daead10864E, symObjAddr: 0xA0C, symBinAddr: 0x22638, symSize: 0x18 }
  - { offset: 0x7BE53, size: 0x8, addend: 0x0, symName: __ZN4pyo35impl_7pyclass11PyClassImpl11dict_offset17h839e3defb13bbf4aE, symObjAddr: 0xA24, symBinAddr: 0x22650, symSize: 0x18 }
  - { offset: 0x7BE7A, size: 0x8, addend: 0x0, symName: __ZN4pyo35impl_7pyclass11PyClassImpl11dict_offset17h92a9e12506c5ce17E, symObjAddr: 0xA3C, symBinAddr: 0x22668, symSize: 0x18 }
  - { offset: 0x7BEA1, size: 0x8, addend: 0x0, symName: __ZN4pyo35impl_7pyclass11PyClassImpl11dict_offset17hb81f575f3016ccbdE, symObjAddr: 0xA54, symBinAddr: 0x22680, symSize: 0x18 }
  - { offset: 0x7BEC8, size: 0x8, addend: 0x0, symName: __ZN4pyo35impl_7pyclass11PyClassImpl15weaklist_offset17h358f6e29251748dfE, symObjAddr: 0xA6C, symBinAddr: 0x22698, symSize: 0x18 }
  - { offset: 0x7BEEF, size: 0x8, addend: 0x0, symName: __ZN4pyo35impl_7pyclass11PyClassImpl15weaklist_offset17h36c3a063cf794e8aE, symObjAddr: 0xA84, symBinAddr: 0x226B0, symSize: 0x18 }
  - { offset: 0x7BF16, size: 0x8, addend: 0x0, symName: __ZN4pyo35impl_7pyclass11PyClassImpl15weaklist_offset17h440118fbcb5080e2E, symObjAddr: 0xA9C, symBinAddr: 0x226C8, symSize: 0x18 }
  - { offset: 0x7BF3D, size: 0x8, addend: 0x0, symName: __ZN4pyo35impl_7pyclass11PyClassImpl15weaklist_offset17h4c3a8dac5f6a69efE, symObjAddr: 0xAB4, symBinAddr: 0x226E0, symSize: 0x18 }
  - { offset: 0x7BF64, size: 0x8, addend: 0x0, symName: __ZN4pyo35impl_7pyclass11PyClassImpl15weaklist_offset17h4f292a3aeb574041E, symObjAddr: 0xACC, symBinAddr: 0x226F8, symSize: 0x18 }
  - { offset: 0x7BF8B, size: 0x8, addend: 0x0, symName: __ZN4pyo35impl_7pyclass11PyClassImpl15weaklist_offset17h7acc4eb80f414bc5E, symObjAddr: 0xAE4, symBinAddr: 0x22710, symSize: 0x18 }
  - { offset: 0x7BFB2, size: 0x8, addend: 0x0, symName: __ZN4pyo35impl_7pyclass11PyClassImpl15weaklist_offset17h9b3c1f7e064a9ef6E, symObjAddr: 0xAFC, symBinAddr: 0x22728, symSize: 0x18 }
  - { offset: 0x7BFD9, size: 0x8, addend: 0x0, symName: __ZN4pyo35impl_7pyclass11PyClassImpl15weaklist_offset17hea5113544e0d8127E, symObjAddr: 0xB14, symBinAddr: 0x22740, symSize: 0x18 }
  - { offset: 0x7C000, size: 0x8, addend: 0x0, symName: __ZN4pyo35impl_7pyclass11PyClassImpl15weaklist_offset17hfd4740b29ee9984cE, symObjAddr: 0xB2C, symBinAddr: 0x22758, symSize: 0x18 }
  - { offset: 0x7C186, size: 0x8, addend: 0x0, symName: '__ZN4pyo35types5tuple76_$LT$impl$u20$pyo3..conversion..IntoPyObject$u20$for$u20$$LP$T0$C$T1$RP$$GT$13into_pyobject17h974437914e68acc7E', symObjAddr: 0xB44, symBinAddr: 0x22770, symSize: 0x208 }
  - { offset: 0x7CCEA, size: 0x8, addend: 0x0, symName: '__ZN73_$LT$snid_native..PySnid$u20$as$u20$pyo3..impl_..pyclass..PyClassImpl$GT$3doc28_$u7b$$u7b$closure$u7d$$u7d$17hd0889168b54b3069E', symObjAddr: 0xF50, symBinAddr: 0x22B7C, symSize: 0x58 }
  - { offset: 0x7CD41, size: 0x8, addend: 0x0, symName: '__ZN73_$LT$snid_native..PySgid$u20$as$u20$pyo3..impl_..pyclass..PyClassImpl$GT$3doc28_$u7b$$u7b$closure$u7d$$u7d$17h179607aef50a3c8bE', symObjAddr: 0xFA8, symBinAddr: 0x22BD4, symSize: 0x58 }
  - { offset: 0x7CD98, size: 0x8, addend: 0x0, symName: '__ZN72_$LT$snid_native..PyNid$u20$as$u20$pyo3..impl_..pyclass..PyClassImpl$GT$3doc28_$u7b$$u7b$closure$u7d$$u7d$17h15f880733b905aa0E', symObjAddr: 0x1000, symBinAddr: 0x22C2C, symSize: 0x58 }
  - { offset: 0x7CDEF, size: 0x8, addend: 0x0, symName: '__ZN72_$LT$snid_native..PyWid$u20$as$u20$pyo3..impl_..pyclass..PyClassImpl$GT$3doc28_$u7b$$u7b$closure$u7d$$u7d$17h6df672247bc50ba5E', symObjAddr: 0x1058, symBinAddr: 0x22C84, symSize: 0x58 }
  - { offset: 0x7CE46, size: 0x8, addend: 0x0, symName: '__ZN72_$LT$snid_native..PyXid$u20$as$u20$pyo3..impl_..pyclass..PyClassImpl$GT$3doc28_$u7b$$u7b$closure$u7d$$u7d$17he73efae7f5f89c30E', symObjAddr: 0x10B0, symBinAddr: 0x22CDC, symSize: 0x58 }
  - { offset: 0x7CE9D, size: 0x8, addend: 0x0, symName: '__ZN72_$LT$snid_native..PyKid$u20$as$u20$pyo3..impl_..pyclass..PyClassImpl$GT$3doc28_$u7b$$u7b$closure$u7d$$u7d$17hb833badd6c49fa7dE', symObjAddr: 0x1108, symBinAddr: 0x22D34, symSize: 0x58 }
  - { offset: 0x7CEF4, size: 0x8, addend: 0x0, symName: '__ZN72_$LT$snid_native..PyLid$u20$as$u20$pyo3..impl_..pyclass..PyClassImpl$GT$3doc28_$u7b$$u7b$closure$u7d$$u7d$17hbd6cf1a6cdf68442E', symObjAddr: 0x1160, symBinAddr: 0x22D8C, symSize: 0x58 }
  - { offset: 0x7CF4E, size: 0x8, addend: 0x0, symName: '__ZN72_$LT$snid_native..PyEid$u20$as$u20$pyo3..impl_..pyclass..PyClassImpl$GT$3doc28_$u7b$$u7b$closure$u7d$$u7d$17h21dc4677b61a6ff3E', symObjAddr: 0x11B8, symBinAddr: 0x22DE4, symSize: 0x58 }
  - { offset: 0x7CFA8, size: 0x8, addend: 0x0, symName: '__ZN72_$LT$snid_native..PyBid$u20$as$u20$pyo3..impl_..pyclass..PyClassImpl$GT$3doc28_$u7b$$u7b$closure$u7d$$u7d$17h1c16bf49bc486b78E', symObjAddr: 0x1210, symBinAddr: 0x22E3C, symSize: 0x58 }
  - { offset: 0x7DA22, size: 0x8, addend: 0x0, symName: __ZN4core4iter6traits8iterator8Iterator3zip17h148fb5cd2096ab27E, symObjAddr: 0x0, symBinAddr: 0x22E94, symSize: 0xB4 }
  - { offset: 0x7E32C, size: 0x8, addend: 0x0, symName: __ZN4core4iter6traits8iterator8Iterator3zip17h148fb5cd2096ab27E, symObjAddr: 0x0, symBinAddr: 0x22E94, symSize: 0xB4 }
  - { offset: 0x7F249, size: 0x8, addend: 0x0, symName: __ZN4pyo35types5tuple16array_into_tuple17h7970fab427cdebbdE, symObjAddr: 0xB4, symBinAddr: 0x22F48, symSize: 0x20C }
  - { offset: 0x7F2FC, size: 0x8, addend: 0x0, symName: __ZN4pyo35types5tuple16array_into_tuple17h90ed03606e776ed4E, symObjAddr: 0x2C0, symBinAddr: 0x23154, symSize: 0x204 }
  - { offset: 0x7F3B4, size: 0x8, addend: 0x0, symName: '__ZN4pyo35types5tuple76_$LT$impl$u20$pyo3..conversion..IntoPyObject$u20$for$u20$$LP$T0$C$T1$RP$$GT$13into_pyobject17ha8278b4e9d00decfE', symObjAddr: 0x4C4, symBinAddr: 0x23358, symSize: 0x1C4 }
  - { offset: 0x7F468, size: 0x8, addend: 0x0, symName: '__ZN4pyo35types5tuple86_$LT$impl$u20$pyo3..conversion..IntoPyObject$u20$for$u20$$LP$T0$C$T1$C$T2$C$T3$RP$$GT$13into_pyobject17h2f7769ff4ab923eaE', symObjAddr: 0x688, symBinAddr: 0x2351C, symSize: 0x40C }
  - { offset: 0x7FFE4, size: 0x8, addend: 0x0, symName: '__ZN103_$LT$alloc..vec..into_iter..IntoIter$LT$T$C$A$GT$$u20$as$u20$core..iter..traits..iterator..Iterator$GT$4next17h2e6759aabea2b4aaE', symObjAddr: 0x0, symBinAddr: 0x23928, symSize: 0xCC }
  - { offset: 0x8176E, size: 0x8, addend: 0x0, symName: __ZN4core4iter6traits10exact_size17ExactSizeIterator3len17h431d763d0f7eb3aeE, symObjAddr: 0x32C, symBinAddr: 0x23C54, symSize: 0xC4 }
  - { offset: 0x8186C, size: 0x8, addend: 0x0, symName: __ZN4core4iter6traits8iterator8Iterator3map17hf4d1d1d826e7dd83E, symObjAddr: 0x3F0, symBinAddr: 0x23D18, symSize: 0x28 }
  - { offset: 0x81E30, size: 0x8, addend: 0x0, symName: '__ZN103_$LT$alloc..vec..into_iter..IntoIter$LT$T$C$A$GT$$u20$as$u20$core..iter..traits..iterator..Iterator$GT$4next17h2e6759aabea2b4aaE', symObjAddr: 0x0, symBinAddr: 0x23928, symSize: 0xCC }
  - { offset: 0x81FE3, size: 0x8, addend: 0x0, symName: '__ZN103_$LT$alloc..vec..into_iter..IntoIter$LT$T$C$A$GT$$u20$as$u20$core..iter..traits..iterator..Iterator$GT$8try_fold17h2ca121b28e6ac7feE', symObjAddr: 0xCC, symBinAddr: 0x239F4, symSize: 0x1A8 }
  - { offset: 0x8221B, size: 0x8, addend: 0x0, symName: '__ZN103_$LT$alloc..vec..into_iter..IntoIter$LT$T$C$A$GT$$u20$as$u20$core..iter..traits..iterator..Iterator$GT$9size_hint17h4ccdf922dea7cae1E', symObjAddr: 0x274, symBinAddr: 0x23B9C, symSize: 0xB8 }
  - { offset: 0x82D6C, size: 0x8, addend: 0x0, symName: '__ZN157_$LT$$LT$alloc..vec..into_iter..IntoIter$LT$T$C$A$GT$$u20$as$u20$core..ops..drop..Drop$GT$..drop..DropGuard$LT$T$C$A$GT$$u20$as$u20$core..ops..drop..Drop$GT$4drop17h0e0845d90f2cd611E', symObjAddr: 0x0, symBinAddr: 0x23D40, symSize: 0x88 }
  - { offset: 0x83A30, size: 0x8, addend: 0x0, symName: '__ZN4core3ptr108drop_in_place$LT$core..result..Result$LT$$LP$$RP$$C$alloc..borrow..Cow$LT$core..ffi..c_str..CStr$GT$$GT$$GT$17h969440077bb6060eE', symObjAddr: 0x438, symBinAddr: 0x23FC8, symSize: 0x44 }
  - { offset: 0x83A5F, size: 0x8, addend: 0x0, symName: '__ZN4core3ptr115drop_in_place$LT$core..result..Result$LT$$LP$alloc..string..String$C$i64$C$u32$C$u16$RP$$C$pyo3..err..PyErr$GT$$GT$17h1d99f9eec18bc1f8E', symObjAddr: 0x47C, symBinAddr: 0x2400C, symSize: 0x50 }
  - { offset: 0x83A8E, size: 0x8, addend: 0x0, symName: '__ZN4core3ptr118drop_in_place$LT$core..array..iter..IntoIter$LT$pyo3..instance..Bound$LT$pyo3..types..any..PyAny$GT$$C$4_usize$GT$$GT$17hc8d8a18d3a8fc404E', symObjAddr: 0x4CC, symBinAddr: 0x2405C, symSize: 0x24 }
  - { offset: 0x83ABD, size: 0x8, addend: 0x0, symName: '__ZN4core3ptr118drop_in_place$LT$core..array..iter..IntoIter$LT$pyo3..instance..Bound$LT$pyo3..types..any..PyAny$GT$$C$7_usize$GT$$GT$17ha3c3a3e89cb1285cE', symObjAddr: 0x4F0, symBinAddr: 0x24080, symSize: 0x24 }
  - { offset: 0x83AEC, size: 0x8, addend: 0x0, symName: '__ZN4core3ptr119drop_in_place$LT$core..result..Result$LT$$LP$snid_native..PySnid$C$alloc..string..String$RP$$C$pyo3..err..PyErr$GT$$GT$17h09d06d6e6f745c92E', symObjAddr: 0x514, symBinAddr: 0x240A4, symSize: 0x50 }
  - { offset: 0x83B1B, size: 0x8, addend: 0x0, symName: '__ZN4core3ptr124drop_in_place$LT$core..result..Result$LT$pyo3..instance..Bound$LT$pyo3..types..bytes..PyBytes$GT$$C$pyo3..err..PyErr$GT$$GT$17h1133952daf426b00E', symObjAddr: 0x564, symBinAddr: 0x240F4, symSize: 0x50 }
  - { offset: 0x83B4A, size: 0x8, addend: 0x0, symName: '__ZN4core3ptr157drop_in_place$LT$$LT$alloc..vec..into_iter..IntoIter$LT$T$C$A$GT$$u20$as$u20$core..ops..drop..Drop$GT$..drop..DropGuard$LT$u64$C$alloc..alloc..Global$GT$$GT$17hd553489b1fe65272E', symObjAddr: 0x5B4, symBinAddr: 0x24144, symSize: 0x24 }
  - { offset: 0x83B79, size: 0x8, addend: 0x0, symName: '__ZN4core3ptr168drop_in_place$LT$core..iter..adapters..enumerate..Enumerate$LT$core..array..iter..IntoIter$LT$pyo3..instance..Bound$LT$pyo3..types..any..PyAny$GT$$C$4_usize$GT$$GT$$GT$17hea0fc1c103c6c426E', symObjAddr: 0x5D8, symBinAddr: 0x24168, symSize: 0x24 }
  - { offset: 0x83BA8, size: 0x8, addend: 0x0, symName: '__ZN4core3ptr168drop_in_place$LT$core..iter..adapters..enumerate..Enumerate$LT$core..array..iter..IntoIter$LT$pyo3..instance..Bound$LT$pyo3..types..any..PyAny$GT$$C$7_usize$GT$$GT$$GT$17h0734d4741d203390E', symObjAddr: 0x5FC, symBinAddr: 0x2418C, symSize: 0x24 }
  - { offset: 0x83BD7, size: 0x8, addend: 0x0, symName: '__ZN4core3ptr217drop_in_place$LT$$LP$alloc..string..String$C$alloc..string..String$C$core..option..Option$LT$i64$GT$$C$core..option..Option$LT$u64$GT$$C$core..option..Option$LT$u32$GT$$C$core..option..Option$LT$u16$GT$$C$bool$RP$$GT$17hdc0368677a41fe2eE', symObjAddr: 0x630, symBinAddr: 0x241B0, symSize: 0x64 }
  - { offset: 0x83C06, size: 0x8, addend: 0x0, symName: '__ZN4core3ptr250drop_in_place$LT$core..iter..adapters..map..Map$LT$alloc..vec..into_iter..IntoIter$LT$u64$GT$$C$$LT$u64$u20$as$u20$pyo3..conversion..IntoPyObject$GT$..owned_sequence_into_pyobject$LT$alloc..vec..Vec$LT$u64$GT$$GT$..$u7b$$u7b$closure$u7d$$u7d$$GT$$GT$17h096770a0a576a35cE', symObjAddr: 0x694, symBinAddr: 0x24214, symSize: 0x24 }
  - { offset: 0x83C35, size: 0x8, addend: 0x0, symName: '__ZN4core3ptr264drop_in_place$LT$core..result..Result$LT$$LP$alloc..string..String$C$alloc..string..String$C$core..option..Option$LT$i64$GT$$C$core..option..Option$LT$u64$GT$$C$core..option..Option$LT$u32$GT$$C$core..option..Option$LT$u16$GT$$C$bool$RP$$C$pyo3..err..PyErr$GT$$GT$17ha164f70c02cc2e14E', symObjAddr: 0x6C8, symBinAddr: 0x24238, symSize: 0x58 }
  - { offset: 0x83C64, size: 0x8, addend: 0x0, symName: '__ZN4core3ptr47drop_in_place$LT$alloc..vec..Vec$LT$u64$GT$$GT$17h5bff20bcc72e2fb5E', symObjAddr: 0x740, symBinAddr: 0x24290, symSize: 0x5C }
  - { offset: 0x83C93, size: 0x8, addend: 0x0, symName: '__ZN4core3ptr54drop_in_place$LT$alloc..raw_vec..RawVec$LT$u64$GT$$GT$17h6c1600463d6a3412E', symObjAddr: 0x7F0, symBinAddr: 0x242EC, symSize: 0x24 }
  - { offset: 0x83CC2, size: 0x8, addend: 0x0, symName: '__ZN4core3ptr63drop_in_place$LT$alloc..vec..into_iter..IntoIter$LT$u64$GT$$GT$17hc41d1251398a7899E', symObjAddr: 0x838, symBinAddr: 0x24310, symSize: 0x24 }
  - { offset: 0x83CF1, size: 0x8, addend: 0x0, symName: '__ZN4core3ptr65drop_in_place$LT$pyo3..instance..Py$LT$snid_native..PyBid$GT$$GT$17h1c52cae2f3216917E', symObjAddr: 0x8B8, symBinAddr: 0x24334, symSize: 0x2C }
  - { offset: 0x83D20, size: 0x8, addend: 0x0, symName: '__ZN4core3ptr65drop_in_place$LT$pyo3..instance..Py$LT$snid_native..PyEid$GT$$GT$17hbecaf0368fcdea49E', symObjAddr: 0x8E4, symBinAddr: 0x24360, symSize: 0x2C }
  - { offset: 0x83D4F, size: 0x8, addend: 0x0, symName: '__ZN4core3ptr65drop_in_place$LT$pyo3..instance..Py$LT$snid_native..PyKid$GT$$GT$17hdc9018e40040aaeaE', symObjAddr: 0x910, symBinAddr: 0x2438C, symSize: 0x2C }
  - { offset: 0x83D7E, size: 0x8, addend: 0x0, symName: '__ZN4core3ptr65drop_in_place$LT$pyo3..instance..Py$LT$snid_native..PyLid$GT$$GT$17h25f25ada3e948182E', symObjAddr: 0x93C, symBinAddr: 0x243B8, symSize: 0x2C }
  - { offset: 0x83DAD, size: 0x8, addend: 0x0, symName: '__ZN4core3ptr65drop_in_place$LT$pyo3..instance..Py$LT$snid_native..PyNid$GT$$GT$17h65a9731ec059d488E', symObjAddr: 0x968, symBinAddr: 0x243E4, symSize: 0x2C }
  - { offset: 0x83DDC, size: 0x8, addend: 0x0, symName: '__ZN4core3ptr65drop_in_place$LT$pyo3..instance..Py$LT$snid_native..PyWid$GT$$GT$17h87281fdf120bd180E', symObjAddr: 0x994, symBinAddr: 0x24410, symSize: 0x2C }
  - { offset: 0x83E0B, size: 0x8, addend: 0x0, symName: '__ZN4core3ptr65drop_in_place$LT$pyo3..instance..Py$LT$snid_native..PyXid$GT$$GT$17hdfeb045f08395ee4E', symObjAddr: 0x9C0, symBinAddr: 0x2443C, symSize: 0x2C }
  - { offset: 0x83E3A, size: 0x8, addend: 0x0, symName: '__ZN4core3ptr66drop_in_place$LT$pyo3..instance..Py$LT$snid_native..PySgid$GT$$GT$17ha244164f61356f33E', symObjAddr: 0x9EC, symBinAddr: 0x24468, symSize: 0x2C }
  - { offset: 0x83E69, size: 0x8, addend: 0x0, symName: '__ZN4core3ptr66drop_in_place$LT$pyo3..instance..Py$LT$snid_native..PySnid$GT$$GT$17hc8a9a03ee8f0ace7E', symObjAddr: 0xA18, symBinAddr: 0x24494, symSize: 0x2C }
  - { offset: 0x83E98, size: 0x8, addend: 0x0, symName: '__ZN4core3ptr66drop_in_place$LT$pyo3..pycell..PyRef$LT$snid_native..PyBid$GT$$GT$17hdf5d84715d0a8becE', symObjAddr: 0xA44, symBinAddr: 0x244C0, symSize: 0x5C }
  - { offset: 0x83EC7, size: 0x8, addend: 0x0, symName: '__ZN4core3ptr66drop_in_place$LT$pyo3..pycell..PyRef$LT$snid_native..PyEid$GT$$GT$17h37dde7cadf4a432cE', symObjAddr: 0xAA0, symBinAddr: 0x2451C, symSize: 0x5C }
  - { offset: 0x83EF6, size: 0x8, addend: 0x0, symName: '__ZN4core3ptr66drop_in_place$LT$pyo3..pycell..PyRef$LT$snid_native..PyKid$GT$$GT$17hd9f1be4e6788e085E', symObjAddr: 0xAFC, symBinAddr: 0x24578, symSize: 0x5C }
  - { offset: 0x83F25, size: 0x8, addend: 0x0, symName: '__ZN4core3ptr66drop_in_place$LT$pyo3..pycell..PyRef$LT$snid_native..PyLid$GT$$GT$17h7c260a137b1dbaf7E', symObjAddr: 0xB58, symBinAddr: 0x245D4, symSize: 0x5C }
  - { offset: 0x83F54, size: 0x8, addend: 0x0, symName: '__ZN4core3ptr66drop_in_place$LT$pyo3..pycell..PyRef$LT$snid_native..PyNid$GT$$GT$17hb5eb64b42777c9e7E', symObjAddr: 0xBB4, symBinAddr: 0x24630, symSize: 0x5C }
  - { offset: 0x83F83, size: 0x8, addend: 0x0, symName: '__ZN4core3ptr66drop_in_place$LT$pyo3..pycell..PyRef$LT$snid_native..PyWid$GT$$GT$17hfed23c54f8b58bbbE', symObjAddr: 0xC10, symBinAddr: 0x2468C, symSize: 0x5C }
  - { offset: 0x83FB2, size: 0x8, addend: 0x0, symName: '__ZN4core3ptr66drop_in_place$LT$pyo3..pycell..PyRef$LT$snid_native..PyXid$GT$$GT$17h462f20f708103873E', symObjAddr: 0xC6C, symBinAddr: 0x246E8, symSize: 0x5C }
  - { offset: 0x83FE1, size: 0x8, addend: 0x0, symName: '__ZN4core3ptr67drop_in_place$LT$pyo3..pycell..PyRef$LT$snid_native..PySgid$GT$$GT$17h0804ae34bf10ec1dE', symObjAddr: 0xCC8, symBinAddr: 0x24744, symSize: 0x5C }
  - { offset: 0x84010, size: 0x8, addend: 0x0, symName: '__ZN4core3ptr67drop_in_place$LT$pyo3..pycell..PyRef$LT$snid_native..PySnid$GT$$GT$17hbea07abebc0cf0d8E', symObjAddr: 0xD24, symBinAddr: 0x247A0, symSize: 0x5C }
  - { offset: 0x8403F, size: 0x8, addend: 0x0, symName: '__ZN4core3ptr68drop_in_place$LT$$LP$alloc..string..String$C$i64$C$u32$C$u16$RP$$GT$17h52f34e2902ca53d4E', symObjAddr: 0xD80, symBinAddr: 0x247FC, symSize: 0x24 }
  - { offset: 0x8406E, size: 0x8, addend: 0x0, symName: '__ZN4core3ptr68drop_in_place$LT$pyo3..instance..Bound$LT$snid_native..PyBid$GT$$GT$17hde259fc8f941a006E', symObjAddr: 0xDA4, symBinAddr: 0x24820, symSize: 0x24 }
  - { offset: 0x8409D, size: 0x8, addend: 0x0, symName: '__ZN4core3ptr68drop_in_place$LT$pyo3..instance..Bound$LT$snid_native..PyEid$GT$$GT$17h679937901cd1fab8E', symObjAddr: 0xDC8, symBinAddr: 0x24844, symSize: 0x24 }
  - { offset: 0x840CC, size: 0x8, addend: 0x0, symName: '__ZN4core3ptr68drop_in_place$LT$pyo3..instance..Bound$LT$snid_native..PyKid$GT$$GT$17ha2eada352eccb91eE', symObjAddr: 0xDEC, symBinAddr: 0x24868, symSize: 0x24 }
  - { offset: 0x840FB, size: 0x8, addend: 0x0, symName: '__ZN4core3ptr68drop_in_place$LT$pyo3..instance..Bound$LT$snid_native..PyLid$GT$$GT$17h76c61e25039714feE', symObjAddr: 0xE10, symBinAddr: 0x2488C, symSize: 0x24 }
  - { offset: 0x8412A, size: 0x8, addend: 0x0, symName: '__ZN4core3ptr68drop_in_place$LT$pyo3..instance..Bound$LT$snid_native..PyNid$GT$$GT$17hce21f6ded8c89c12E', symObjAddr: 0xE34, symBinAddr: 0x248B0, symSize: 0x24 }
  - { offset: 0x84159, size: 0x8, addend: 0x0, symName: '__ZN4core3ptr68drop_in_place$LT$pyo3..instance..Bound$LT$snid_native..PyWid$GT$$GT$17hd84279aed61a0c03E', symObjAddr: 0xE58, symBinAddr: 0x248D4, symSize: 0x24 }
  - { offset: 0x84188, size: 0x8, addend: 0x0, symName: '__ZN4core3ptr68drop_in_place$LT$pyo3..instance..Bound$LT$snid_native..PyXid$GT$$GT$17h7ea26a13d24b46d4E', symObjAddr: 0xE7C, symBinAddr: 0x248F8, symSize: 0x24 }
  - { offset: 0x841B7, size: 0x8, addend: 0x0, symName: '__ZN4core3ptr69drop_in_place$LT$alloc..borrow..Cow$LT$core..ffi..c_str..CStr$GT$$GT$17h65372c1922dc3465E', symObjAddr: 0xEA0, symBinAddr: 0x2491C, symSize: 0x40 }
  - { offset: 0x841E6, size: 0x8, addend: 0x0, symName: '__ZN4core3ptr69drop_in_place$LT$pyo3..instance..Bound$LT$snid_native..PySgid$GT$$GT$17hd47d4cfd409a8050E', symObjAddr: 0xEE0, symBinAddr: 0x2495C, symSize: 0x24 }
  - { offset: 0x84215, size: 0x8, addend: 0x0, symName: '__ZN4core3ptr69drop_in_place$LT$pyo3..instance..Bound$LT$snid_native..PySnid$GT$$GT$17h9dba724f0860c7e2E', symObjAddr: 0xF04, symBinAddr: 0x24980, symSize: 0x24 }
  - { offset: 0x84244, size: 0x8, addend: 0x0, symName: '__ZN4core3ptr71drop_in_place$LT$core..result..Result$LT$i64$C$pyo3..err..PyErr$GT$$GT$17h248fecd0320e8f83E', symObjAddr: 0xF28, symBinAddr: 0x249A4, symSize: 0x40 }
  - { offset: 0x84273, size: 0x8, addend: 0x0, symName: '__ZN4core3ptr71drop_in_place$LT$core..result..Result$LT$u16$C$pyo3..err..PyErr$GT$$GT$17hda9b0a8c84407c3aE', symObjAddr: 0xF68, symBinAddr: 0x249E4, symSize: 0x40 }
  - { offset: 0x842A2, size: 0x8, addend: 0x0, symName: '__ZN4core3ptr71drop_in_place$LT$core..result..Result$LT$u64$C$pyo3..err..PyErr$GT$$GT$17hc44de75b8c8e04a6E', symObjAddr: 0xFA8, symBinAddr: 0x24A24, symSize: 0x40 }
  - { offset: 0x842D1, size: 0x8, addend: 0x0, symName: '__ZN4core3ptr72drop_in_place$LT$$LP$snid_native..PySnid$C$alloc..string..String$RP$$GT$17h98e9f43d1f77257eE', symObjAddr: 0xFE8, symBinAddr: 0x24A64, symSize: 0x24 }
  - { offset: 0x84300, size: 0x8, addend: 0x0, symName: '__ZN4core3ptr72drop_in_place$LT$core..result..Result$LT$bool$C$pyo3..err..PyErr$GT$$GT$17h5989d3e1ddaeb315E', symObjAddr: 0x1030, symBinAddr: 0x24A88, symSize: 0x40 }
  - { offset: 0x8432F, size: 0x8, addend: 0x0, symName: '__ZN4core3ptr73drop_in_place$LT$core..result..Result$LT$usize$C$pyo3..err..PyErr$GT$$GT$17hcca3d3247e693e65E', symObjAddr: 0x1070, symBinAddr: 0x24AC8, symSize: 0x40 }
  - { offset: 0x8435E, size: 0x8, addend: 0x0, symName: '__ZN4core3ptr85drop_in_place$LT$core..result..Result$LT$$LP$i64$C$i64$RP$$C$pyo3..err..PyErr$GT$$GT$17hae9d2e4e900b4ad0E', symObjAddr: 0x1140, symBinAddr: 0x24B08, symSize: 0x40 }
  - { offset: 0x8438D, size: 0x8, addend: 0x0, symName: '__ZN4core3ptr85drop_in_place$LT$pyo3..pyclass_init..PyClassInitializer$LT$snid_native..PyBid$GT$$GT$17hd737c650383ec2cdE', symObjAddr: 0x1180, symBinAddr: 0x24B48, symSize: 0x24 }
  - { offset: 0x843BC, size: 0x8, addend: 0x0, symName: '__ZN4core3ptr85drop_in_place$LT$pyo3..pyclass_init..PyClassInitializer$LT$snid_native..PyEid$GT$$GT$17h601294378307024eE', symObjAddr: 0x11A4, symBinAddr: 0x24B6C, symSize: 0x24 }
  - { offset: 0x843EB, size: 0x8, addend: 0x0, symName: '__ZN4core3ptr85drop_in_place$LT$pyo3..pyclass_init..PyClassInitializer$LT$snid_native..PyKid$GT$$GT$17h7deb6004f46428b9E', symObjAddr: 0x11C8, symBinAddr: 0x24B90, symSize: 0x24 }
  - { offset: 0x8441A, size: 0x8, addend: 0x0, symName: '__ZN4core3ptr85drop_in_place$LT$pyo3..pyclass_init..PyClassInitializer$LT$snid_native..PyLid$GT$$GT$17h95cac6e561fff917E', symObjAddr: 0x11EC, symBinAddr: 0x24BB4, symSize: 0x24 }
  - { offset: 0x84449, size: 0x8, addend: 0x0, symName: '__ZN4core3ptr85drop_in_place$LT$pyo3..pyclass_init..PyClassInitializer$LT$snid_native..PyNid$GT$$GT$17h5fa819aaf70fc3bfE', symObjAddr: 0x1210, symBinAddr: 0x24BD8, symSize: 0x24 }
  - { offset: 0x84478, size: 0x8, addend: 0x0, symName: '__ZN4core3ptr85drop_in_place$LT$pyo3..pyclass_init..PyClassInitializer$LT$snid_native..PyWid$GT$$GT$17hed43ae41bd236c06E', symObjAddr: 0x1234, symBinAddr: 0x24BFC, symSize: 0x24 }
  - { offset: 0x844A7, size: 0x8, addend: 0x0, symName: '__ZN4core3ptr85drop_in_place$LT$pyo3..pyclass_init..PyClassInitializer$LT$snid_native..PyXid$GT$$GT$17he1a9bb50068b0b08E', symObjAddr: 0x1258, symBinAddr: 0x24C20, symSize: 0x24 }
  - { offset: 0x844D6, size: 0x8, addend: 0x0, symName: '__ZN4core3ptr86drop_in_place$LT$core..result..Result$LT$snid_native..PyBid$C$pyo3..err..PyErr$GT$$GT$17hb250f4be9b872008E', symObjAddr: 0x127C, symBinAddr: 0x24C44, symSize: 0x40 }
  - { offset: 0x84505, size: 0x8, addend: 0x0, symName: '__ZN4core3ptr86drop_in_place$LT$core..result..Result$LT$snid_native..PyEid$C$pyo3..err..PyErr$GT$$GT$17hd2e3e47e45a32d5dE', symObjAddr: 0x12BC, symBinAddr: 0x24C84, symSize: 0x40 }
  - { offset: 0x84534, size: 0x8, addend: 0x0, symName: '__ZN4core3ptr86drop_in_place$LT$core..result..Result$LT$snid_native..PyKid$C$pyo3..err..PyErr$GT$$GT$17hb8963bce5743bcccE', symObjAddr: 0x12FC, symBinAddr: 0x24CC4, symSize: 0x40 }
  - { offset: 0x84563, size: 0x8, addend: 0x0, symName: '__ZN4core3ptr86drop_in_place$LT$core..result..Result$LT$snid_native..PyLid$C$pyo3..err..PyErr$GT$$GT$17h569b210a4040a88bE', symObjAddr: 0x133C, symBinAddr: 0x24D04, symSize: 0x40 }
  - { offset: 0x84592, size: 0x8, addend: 0x0, symName: '__ZN4core3ptr86drop_in_place$LT$core..result..Result$LT$snid_native..PyNid$C$pyo3..err..PyErr$GT$$GT$17h2479f18f43131afaE', symObjAddr: 0x137C, symBinAddr: 0x24D44, symSize: 0x40 }
  - { offset: 0x845C1, size: 0x8, addend: 0x0, symName: '__ZN4core3ptr86drop_in_place$LT$core..result..Result$LT$snid_native..PyWid$C$pyo3..err..PyErr$GT$$GT$17h313e28b06b6eaafcE', symObjAddr: 0x13BC, symBinAddr: 0x24D84, symSize: 0x40 }
  - { offset: 0x845F0, size: 0x8, addend: 0x0, symName: '__ZN4core3ptr86drop_in_place$LT$core..result..Result$LT$snid_native..PyXid$C$pyo3..err..PyErr$GT$$GT$17hede9b9f2650d7326E', symObjAddr: 0x13FC, symBinAddr: 0x24DC4, symSize: 0x40 }
  - { offset: 0x8461F, size: 0x8, addend: 0x0, symName: '__ZN4core3ptr86drop_in_place$LT$pyo3..pyclass_init..PyClassInitializer$LT$snid_native..PySgid$GT$$GT$17he560291f70fd8338E', symObjAddr: 0x143C, symBinAddr: 0x24E04, symSize: 0x24 }
  - { offset: 0x8464E, size: 0x8, addend: 0x0, symName: '__ZN4core3ptr86drop_in_place$LT$pyo3..pyclass_init..PyClassInitializer$LT$snid_native..PySnid$GT$$GT$17h8a389c419e47a376E', symObjAddr: 0x1460, symBinAddr: 0x24E28, symSize: 0x24 }
  - { offset: 0x8467D, size: 0x8, addend: 0x0, symName: '__ZN4core3ptr87drop_in_place$LT$core..result..Result$LT$snid_native..PySgid$C$pyo3..err..PyErr$GT$$GT$17h92c16e5565de0d20E', symObjAddr: 0x1484, symBinAddr: 0x24E4C, symSize: 0x40 }
  - { offset: 0x846AC, size: 0x8, addend: 0x0, symName: '__ZN4core3ptr87drop_in_place$LT$core..result..Result$LT$snid_native..PySnid$C$pyo3..err..PyErr$GT$$GT$17h0981a0ec28f63eb6E', symObjAddr: 0x14C4, symBinAddr: 0x24E8C, symSize: 0x40 }
  - { offset: 0x846DB, size: 0x8, addend: 0x0, symName: '__ZN4core3ptr89drop_in_place$LT$core..result..Result$LT$alloc..string..String$C$pyo3..err..PyErr$GT$$GT$17hf6ea361936f195e2E', symObjAddr: 0x1504, symBinAddr: 0x24ECC, symSize: 0x50 }
  - { offset: 0x8470A, size: 0x8, addend: 0x0, symName: '__ZN4core3ptr89drop_in_place$LT$pyo3..pyclass_init..PyClassInitializerImpl$LT$snid_native..PyBid$GT$$GT$17h2cc2c6b5f0b004a9E', symObjAddr: 0x1554, symBinAddr: 0x24F1C, symSize: 0x40 }
  - { offset: 0x84739, size: 0x8, addend: 0x0, symName: '__ZN4core3ptr89drop_in_place$LT$pyo3..pyclass_init..PyClassInitializerImpl$LT$snid_native..PyEid$GT$$GT$17h6b64231f6ca28dc2E', symObjAddr: 0x1594, symBinAddr: 0x24F5C, symSize: 0x40 }
  - { offset: 0x84768, size: 0x8, addend: 0x0, symName: '__ZN4core3ptr89drop_in_place$LT$pyo3..pyclass_init..PyClassInitializerImpl$LT$snid_native..PyKid$GT$$GT$17hdf7ab632df24851eE', symObjAddr: 0x15D4, symBinAddr: 0x24F9C, symSize: 0x40 }
  - { offset: 0x84797, size: 0x8, addend: 0x0, symName: '__ZN4core3ptr89drop_in_place$LT$pyo3..pyclass_init..PyClassInitializerImpl$LT$snid_native..PyLid$GT$$GT$17h60e1dd28bc5a4a0cE', symObjAddr: 0x1614, symBinAddr: 0x24FDC, symSize: 0x40 }
  - { offset: 0x847C6, size: 0x8, addend: 0x0, symName: '__ZN4core3ptr89drop_in_place$LT$pyo3..pyclass_init..PyClassInitializerImpl$LT$snid_native..PyNid$GT$$GT$17hd4a12d4dec288a95E', symObjAddr: 0x1654, symBinAddr: 0x2501C, symSize: 0x40 }
  - { offset: 0x847F5, size: 0x8, addend: 0x0, symName: '__ZN4core3ptr89drop_in_place$LT$pyo3..pyclass_init..PyClassInitializerImpl$LT$snid_native..PyWid$GT$$GT$17h310c21f9105fcb95E', symObjAddr: 0x1694, symBinAddr: 0x2505C, symSize: 0x40 }
  - { offset: 0x84824, size: 0x8, addend: 0x0, symName: '__ZN4core3ptr89drop_in_place$LT$pyo3..pyclass_init..PyClassInitializerImpl$LT$snid_native..PyXid$GT$$GT$17hb18723243f759216E', symObjAddr: 0x16D4, symBinAddr: 0x2509C, symSize: 0x40 }
  - { offset: 0x84853, size: 0x8, addend: 0x0, symName: '__ZN4core3ptr90drop_in_place$LT$pyo3..pyclass_init..PyClassInitializerImpl$LT$snid_native..PySgid$GT$$GT$17h9b0686cd674e9c53E', symObjAddr: 0x1714, symBinAddr: 0x250DC, symSize: 0x40 }
  - { offset: 0x84882, size: 0x8, addend: 0x0, symName: '__ZN4core3ptr90drop_in_place$LT$pyo3..pyclass_init..PyClassInitializerImpl$LT$snid_native..PySnid$GT$$GT$17h89f832e94683f8a7E', symObjAddr: 0x1754, symBinAddr: 0x2511C, symSize: 0x40 }
  - { offset: 0x848B1, size: 0x8, addend: 0x0, symName: '__ZN4core3ptr93drop_in_place$LT$core..result..Result$LT$alloc..vec..Vec$LT$u8$GT$$C$pyo3..err..PyErr$GT$$GT$17h0afb86d009b21b76E', symObjAddr: 0x1794, symBinAddr: 0x2515C, symSize: 0x50 }
  - { offset: 0x848E0, size: 0x8, addend: 0x0, symName: '__ZN4core3ptr94drop_in_place$LT$$u5b$pyo3..instance..Bound$LT$pyo3..types..any..PyAny$GT$$u3b$$u20$4$u5d$$GT$17h8bf05ee9579ac4eaE', symObjAddr: 0x17E4, symBinAddr: 0x251AC, symSize: 0xA4 }
  - { offset: 0x8490F, size: 0x8, addend: 0x0, symName: '__ZN4core3ptr94drop_in_place$LT$$u5b$pyo3..instance..Bound$LT$pyo3..types..any..PyAny$GT$$u3b$$u20$7$u5d$$GT$17h9d1ae9810a4fa1dfE', symObjAddr: 0x1888, symBinAddr: 0x25250, symSize: 0xA4 }
  - { offset: 0x8493E, size: 0x8, addend: 0x0, symName: '__ZN4core3ptr94drop_in_place$LT$core..option..Option$LT$pyo3..pycell..PyRef$LT$snid_native..PyBid$GT$$GT$$GT$17hf293caa17fcd1985E', symObjAddr: 0x192C, symBinAddr: 0x252F4, symSize: 0x44 }
  - { offset: 0x8496D, size: 0x8, addend: 0x0, symName: '__ZN4core3ptr94drop_in_place$LT$core..option..Option$LT$pyo3..pycell..PyRef$LT$snid_native..PyEid$GT$$GT$$GT$17h0a6b8b7ecd5713deE', symObjAddr: 0x1970, symBinAddr: 0x25338, symSize: 0x44 }
  - { offset: 0x8499C, size: 0x8, addend: 0x0, symName: '__ZN4core3ptr94drop_in_place$LT$core..option..Option$LT$pyo3..pycell..PyRef$LT$snid_native..PyKid$GT$$GT$$GT$17h450344796c6676b2E', symObjAddr: 0x19B4, symBinAddr: 0x2537C, symSize: 0x44 }
  - { offset: 0x849CB, size: 0x8, addend: 0x0, symName: '__ZN4core3ptr94drop_in_place$LT$core..option..Option$LT$pyo3..pycell..PyRef$LT$snid_native..PyLid$GT$$GT$$GT$17h7f82b0c1434b1aebE', symObjAddr: 0x19F8, symBinAddr: 0x253C0, symSize: 0x44 }
  - { offset: 0x849FA, size: 0x8, addend: 0x0, symName: '__ZN4core3ptr94drop_in_place$LT$core..option..Option$LT$pyo3..pycell..PyRef$LT$snid_native..PyNid$GT$$GT$$GT$17h604674a85a73fde3E', symObjAddr: 0x1A3C, symBinAddr: 0x25404, symSize: 0x44 }
  - { offset: 0x84A29, size: 0x8, addend: 0x0, symName: '__ZN4core3ptr94drop_in_place$LT$core..option..Option$LT$pyo3..pycell..PyRef$LT$snid_native..PyWid$GT$$GT$$GT$17hb33c6cec4eaddd63E', symObjAddr: 0x1A80, symBinAddr: 0x25448, symSize: 0x44 }
  - { offset: 0x84A58, size: 0x8, addend: 0x0, symName: '__ZN4core3ptr94drop_in_place$LT$core..option..Option$LT$pyo3..pycell..PyRef$LT$snid_native..PyXid$GT$$GT$$GT$17h062de340101e1411E', symObjAddr: 0x1AC4, symBinAddr: 0x2548C, symSize: 0x44 }
  - { offset: 0x84A87, size: 0x8, addend: 0x0, symName: '__ZN4core3ptr94drop_in_place$LT$core..result..Result$LT$alloc..vec..Vec$LT$u64$GT$$C$pyo3..err..PyErr$GT$$GT$17h295eaac09d5ea7dbE', symObjAddr: 0x1B08, symBinAddr: 0x254D0, symSize: 0x50 }
  - { offset: 0x84AB6, size: 0x8, addend: 0x0, symName: '__ZN4core3ptr95drop_in_place$LT$core..option..Option$LT$pyo3..pycell..PyRef$LT$snid_native..PySgid$GT$$GT$$GT$17he248dde0c12c58f9E', symObjAddr: 0x1B7C, symBinAddr: 0x25520, symSize: 0x44 }
  - { offset: 0x84AE5, size: 0x8, addend: 0x0, symName: '__ZN4core3ptr95drop_in_place$LT$core..option..Option$LT$pyo3..pycell..PyRef$LT$snid_native..PySnid$GT$$GT$$GT$17h4a63f3dc72178ce6E', symObjAddr: 0x1BC0, symBinAddr: 0x25564, symSize: 0x44 }
  - { offset: 0x84B14, size: 0x8, addend: 0x0, symName: '__ZN4core3ptr97drop_in_place$LT$core..option..Option$LT$alloc..borrow..Cow$LT$core..ffi..c_str..CStr$GT$$GT$$GT$17h910299d16c5fd687E', symObjAddr: 0x1C64, symBinAddr: 0x255A8, symSize: 0x44 }
  - { offset: 0x84B43, size: 0x8, addend: 0x0, symName: '__ZN4core3ptr97drop_in_place$LT$core..result..Result$LT$$LP$i64$C$i64$C$i64$C$i64$RP$$C$pyo3..err..PyErr$GT$$GT$17hb5001fb1de9158ccE', symObjAddr: 0x1CA8, symBinAddr: 0x255EC, symSize: 0x40 }
  - { offset: 0x84B72, size: 0x8, addend: 0x0, symName: '__ZN4core3ptr99drop_in_place$LT$core..result..Result$LT$core..option..Option$LT$u64$GT$$C$pyo3..err..PyErr$GT$$GT$17hd50ba50d91948e3cE', symObjAddr: 0x1CE8, symBinAddr: 0x2562C, symSize: 0x40 }
  - { offset: 0x84D43, size: 0x8, addend: 0x0, symName: '__ZN4core3ops8function6FnOnce40call_once$u7b$$u7b$vtable.shim$u7d$$u7d$17h213552e1c3dee90eE', symObjAddr: 0x88, symBinAddr: 0x23DC8, symSize: 0x30 }
  - { offset: 0x84D83, size: 0x8, addend: 0x0, symName: __ZN4core3ops8function6FnOnce9call_once17h0a98475f59ecc0d3E, symObjAddr: 0xB8, symBinAddr: 0x23DF8, symSize: 0x24 }
  - { offset: 0x84DC7, size: 0x8, addend: 0x0, symName: __ZN4core3ops8function6FnOnce9call_once17h0c1735ea9763d22cE, symObjAddr: 0xDC, symBinAddr: 0x23E1C, symSize: 0x24 }
  - { offset: 0x84E0B, size: 0x8, addend: 0x0, symName: __ZN4core3ops8function6FnOnce9call_once17h1ff8482a0171dbf0E, symObjAddr: 0x100, symBinAddr: 0x23E40, symSize: 0x24 }
  - { offset: 0x84E4F, size: 0x8, addend: 0x0, symName: __ZN4core3ops8function6FnOnce9call_once17h239dd78f8cd54a17E, symObjAddr: 0x124, symBinAddr: 0x23E64, symSize: 0x48 }
  - { offset: 0x84E93, size: 0x8, addend: 0x0, symName: __ZN4core3ops8function6FnOnce9call_once17h4bb411eab37f2c22E, symObjAddr: 0x16C, symBinAddr: 0x23EAC, symSize: 0x24 }
  - { offset: 0x84ED7, size: 0x8, addend: 0x0, symName: __ZN4core3ops8function6FnOnce9call_once17h4cfb8d6f8b538802E, symObjAddr: 0x190, symBinAddr: 0x23ED0, symSize: 0x24 }
  - { offset: 0x84F1B, size: 0x8, addend: 0x0, symName: __ZN4core3ops8function6FnOnce9call_once17h7f8d0814b9a0260bE, symObjAddr: 0x1D8, symBinAddr: 0x23EF4, symSize: 0x28 }
  - { offset: 0x84F5F, size: 0x8, addend: 0x0, symName: __ZN4core3ops8function6FnOnce9call_once17he50ee7a40d8daf63E, symObjAddr: 0x200, symBinAddr: 0x23F1C, symSize: 0x4C }
  - { offset: 0x84F9F, size: 0x8, addend: 0x0, symName: __ZN4core3ops8function6FnOnce9call_once17hea20023cb57e4fa6E, symObjAddr: 0x24C, symBinAddr: 0x23F68, symSize: 0x3C }
  - { offset: 0x84FE3, size: 0x8, addend: 0x0, symName: __ZN4core3ops8function6FnOnce9call_once17heef97d3fce0cb7ddE, symObjAddr: 0x288, symBinAddr: 0x23FA4, symSize: 0x24 }
  - { offset: 0x8605E, size: 0x8, addend: 0x0, symName: '__ZN82_$LT$core..array..iter..IntoIter$LT$T$C$_$GT$$u20$as$u20$core..ops..drop..Drop$GT$4drop17h23f898e6cd59ea3aE', symObjAddr: 0x2D44, symBinAddr: 0x26554, symSize: 0x64 }
  - { offset: 0x860F1, size: 0x8, addend: 0x0, symName: '__ZN82_$LT$core..array..iter..IntoIter$LT$T$C$_$GT$$u20$as$u20$core..ops..drop..Drop$GT$4drop17hb74bf68589e85185E', symObjAddr: 0x2DA8, symBinAddr: 0x265B8, symSize: 0x68 }
  - { offset: 0x87726, size: 0x8, addend: 0x0, symName: '__ZN77_$LT$alloc..raw_vec..RawVec$LT$T$C$A$GT$$u20$as$u20$core..ops..drop..Drop$GT$4drop17h109bb44e1f5f8fbcE', symObjAddr: 0x2CE4, symBinAddr: 0x26524, symSize: 0x30 }
  - { offset: 0x877B0, size: 0x8, addend: 0x0, symName: '__ZN157_$LT$$LT$alloc..vec..into_iter..IntoIter$LT$T$C$A$GT$$u20$as$u20$core..ops..drop..Drop$GT$..drop..DropGuard$LT$T$C$A$GT$$u20$as$u20$core..ops..drop..Drop$GT$4drop17h0e0845d90f2cd611E', symObjAddr: 0x0, symBinAddr: 0x23D40, symSize: 0x88 }
  - { offset: 0x878E6, size: 0x8, addend: 0x0, symName: '__ZN86_$LT$alloc..vec..into_iter..IntoIter$LT$T$C$A$GT$$u20$as$u20$core..ops..drop..Drop$GT$4drop17h613317d8b1d6a18aE', symObjAddr: 0x2E10, symBinAddr: 0x26620, symSize: 0x8C }
  - { offset: 0x87A6C, size: 0x8, addend: 0x0, symName: '__ZN70_$LT$alloc..vec..Vec$LT$T$C$A$GT$$u20$as$u20$core..ops..drop..Drop$GT$4drop17ha3179c43d1f0d21fE', symObjAddr: 0x1E90, symBinAddr: 0x257D4, symSize: 0x3C }
  - { offset: 0x87D59, size: 0x8, addend: 0x0, symName: '__ZN69_$LT$pyo3..instance..Py$LT$T$GT$$u20$as$u20$core..ops..drop..Drop$GT$4drop17h2c7328e6e59e5731E', symObjAddr: 0x1D28, symBinAddr: 0x2566C, symSize: 0x28 }
  - { offset: 0x87D8C, size: 0x8, addend: 0x0, symName: '__ZN69_$LT$pyo3..instance..Py$LT$T$GT$$u20$as$u20$core..ops..drop..Drop$GT$4drop17h61e0171e37177785E', symObjAddr: 0x1D50, symBinAddr: 0x25694, symSize: 0x28 }
  - { offset: 0x87DBF, size: 0x8, addend: 0x0, symName: '__ZN69_$LT$pyo3..instance..Py$LT$T$GT$$u20$as$u20$core..ops..drop..Drop$GT$4drop17h630b719810a54c58E', symObjAddr: 0x1D78, symBinAddr: 0x256BC, symSize: 0x28 }
  - { offset: 0x87DF2, size: 0x8, addend: 0x0, symName: '__ZN69_$LT$pyo3..instance..Py$LT$T$GT$$u20$as$u20$core..ops..drop..Drop$GT$4drop17h68818f5651a0c9a8E', symObjAddr: 0x1DA0, symBinAddr: 0x256E4, symSize: 0x28 }
  - { offset: 0x87E25, size: 0x8, addend: 0x0, symName: '__ZN69_$LT$pyo3..instance..Py$LT$T$GT$$u20$as$u20$core..ops..drop..Drop$GT$4drop17h83dc28fc18596e25E', symObjAddr: 0x1DC8, symBinAddr: 0x2570C, symSize: 0x28 }
  - { offset: 0x87E58, size: 0x8, addend: 0x0, symName: '__ZN69_$LT$pyo3..instance..Py$LT$T$GT$$u20$as$u20$core..ops..drop..Drop$GT$4drop17ha39d568b04e6b974E', symObjAddr: 0x1DF0, symBinAddr: 0x25734, symSize: 0x28 }
  - { offset: 0x87E8B, size: 0x8, addend: 0x0, symName: '__ZN69_$LT$pyo3..instance..Py$LT$T$GT$$u20$as$u20$core..ops..drop..Drop$GT$4drop17hbe52324fa7c38143E', symObjAddr: 0x1E18, symBinAddr: 0x2575C, symSize: 0x28 }
  - { offset: 0x87EBE, size: 0x8, addend: 0x0, symName: '__ZN69_$LT$pyo3..instance..Py$LT$T$GT$$u20$as$u20$core..ops..drop..Drop$GT$4drop17hc599f6cd6bb66a20E', symObjAddr: 0x1E40, symBinAddr: 0x25784, symSize: 0x28 }
  - { offset: 0x87EF1, size: 0x8, addend: 0x0, symName: '__ZN69_$LT$pyo3..instance..Py$LT$T$GT$$u20$as$u20$core..ops..drop..Drop$GT$4drop17he4dd3d098d6797ccE', symObjAddr: 0x1E68, symBinAddr: 0x257AC, symSize: 0x28 }
  - { offset: 0x87F2A, size: 0x8, addend: 0x0, symName: '__ZN72_$LT$pyo3..instance..Bound$LT$T$GT$$u20$as$u20$core..ops..drop..Drop$GT$4drop17h08fbd7785c56bfe3E', symObjAddr: 0x2094, symBinAddr: 0x2599C, symSize: 0x148 }
  - { offset: 0x87F99, size: 0x8, addend: 0x0, symName: '__ZN72_$LT$pyo3..instance..Bound$LT$T$GT$$u20$as$u20$core..ops..drop..Drop$GT$4drop17h29438de231531d51E', symObjAddr: 0x21DC, symBinAddr: 0x25AE4, symSize: 0x148 }
  - { offset: 0x88008, size: 0x8, addend: 0x0, symName: '__ZN72_$LT$pyo3..instance..Bound$LT$T$GT$$u20$as$u20$core..ops..drop..Drop$GT$4drop17h2ee6bf609a608b17E', symObjAddr: 0x2324, symBinAddr: 0x25C2C, symSize: 0x148 }
  - { offset: 0x88077, size: 0x8, addend: 0x0, symName: '__ZN72_$LT$pyo3..instance..Bound$LT$T$GT$$u20$as$u20$core..ops..drop..Drop$GT$4drop17h334d5712b35bcffdE', symObjAddr: 0x246C, symBinAddr: 0x25D74, symSize: 0x148 }
  - { offset: 0x880E6, size: 0x8, addend: 0x0, symName: '__ZN72_$LT$pyo3..instance..Bound$LT$T$GT$$u20$as$u20$core..ops..drop..Drop$GT$4drop17h518db5c589f37971E', symObjAddr: 0x25B4, symBinAddr: 0x25EBC, symSize: 0x148 }
  - { offset: 0x88155, size: 0x8, addend: 0x0, symName: '__ZN72_$LT$pyo3..instance..Bound$LT$T$GT$$u20$as$u20$core..ops..drop..Drop$GT$4drop17h9d77b8b3c3fcb51bE', symObjAddr: 0x26FC, symBinAddr: 0x26004, symSize: 0x148 }
  - { offset: 0x881C4, size: 0x8, addend: 0x0, symName: '__ZN72_$LT$pyo3..instance..Bound$LT$T$GT$$u20$as$u20$core..ops..drop..Drop$GT$4drop17ha0aee72fdd7df65eE', symObjAddr: 0x2844, symBinAddr: 0x2614C, symSize: 0x148 }
  - { offset: 0x88233, size: 0x8, addend: 0x0, symName: '__ZN72_$LT$pyo3..instance..Bound$LT$T$GT$$u20$as$u20$core..ops..drop..Drop$GT$4drop17hc71fe8ac82b283feE', symObjAddr: 0x298C, symBinAddr: 0x26294, symSize: 0x148 }
  - { offset: 0x882A2, size: 0x8, addend: 0x0, symName: '__ZN72_$LT$pyo3..instance..Bound$LT$T$GT$$u20$as$u20$core..ops..drop..Drop$GT$4drop17hf7abd6a4fa3c879aE', symObjAddr: 0x2AD4, symBinAddr: 0x263DC, symSize: 0x148 }
  - { offset: 0x887B5, size: 0x8, addend: 0x0, symName: '__ZN70_$LT$pyo3..pycell..PyRef$LT$T$GT$$u20$as$u20$core..ops..drop..Drop$GT$4drop17h1d96d682856d2c3bE', symObjAddr: 0x1F08, symBinAddr: 0x25810, symSize: 0x2C }
  - { offset: 0x887E8, size: 0x8, addend: 0x0, symName: '__ZN70_$LT$pyo3..pycell..PyRef$LT$T$GT$$u20$as$u20$core..ops..drop..Drop$GT$4drop17h52caa141100695ebE', symObjAddr: 0x1F34, symBinAddr: 0x2583C, symSize: 0x2C }
  - { offset: 0x8881B, size: 0x8, addend: 0x0, symName: '__ZN70_$LT$pyo3..pycell..PyRef$LT$T$GT$$u20$as$u20$core..ops..drop..Drop$GT$4drop17h60734d2647f366c9E', symObjAddr: 0x1F60, symBinAddr: 0x25868, symSize: 0x2C }
  - { offset: 0x8884E, size: 0x8, addend: 0x0, symName: '__ZN70_$LT$pyo3..pycell..PyRef$LT$T$GT$$u20$as$u20$core..ops..drop..Drop$GT$4drop17h813bc07810ffd91bE', symObjAddr: 0x1F8C, symBinAddr: 0x25894, symSize: 0x2C }
  - { offset: 0x88881, size: 0x8, addend: 0x0, symName: '__ZN70_$LT$pyo3..pycell..PyRef$LT$T$GT$$u20$as$u20$core..ops..drop..Drop$GT$4drop17h91da577731df6567E', symObjAddr: 0x1FB8, symBinAddr: 0x258C0, symSize: 0x2C }
  - { offset: 0x888B4, size: 0x8, addend: 0x0, symName: '__ZN70_$LT$pyo3..pycell..PyRef$LT$T$GT$$u20$as$u20$core..ops..drop..Drop$GT$4drop17hb746ede69741d2e5E', symObjAddr: 0x1FE4, symBinAddr: 0x258EC, symSize: 0x2C }
  - { offset: 0x888E7, size: 0x8, addend: 0x0, symName: '__ZN70_$LT$pyo3..pycell..PyRef$LT$T$GT$$u20$as$u20$core..ops..drop..Drop$GT$4drop17hcfcc8b7cb8395407E', symObjAddr: 0x2010, symBinAddr: 0x25918, symSize: 0x2C }
  - { offset: 0x8891A, size: 0x8, addend: 0x0, symName: '__ZN70_$LT$pyo3..pycell..PyRef$LT$T$GT$$u20$as$u20$core..ops..drop..Drop$GT$4drop17he2f04f77e322dbadE', symObjAddr: 0x203C, symBinAddr: 0x25944, symSize: 0x2C }
  - { offset: 0x8894D, size: 0x8, addend: 0x0, symName: '__ZN70_$LT$pyo3..pycell..PyRef$LT$T$GT$$u20$as$u20$core..ops..drop..Drop$GT$4drop17hff4e4373bd820253E', symObjAddr: 0x2068, symBinAddr: 0x25970, symSize: 0x2C }
  - { offset: 0x8AACD, size: 0x8, addend: 0x0, symName: __ZN4pyo310conversion15IntoPyObjectExt17into_bound_py_any17h86a0c31f04ca4b93E, symObjAddr: 0x0, symBinAddr: 0x266AC, symSize: 0xAC }
  - { offset: 0x8C37C, size: 0x8, addend: 0x0, symName: __ZN4pyo310conversion15IntoPyObjectExt17into_bound_py_any17h86a0c31f04ca4b93E, symObjAddr: 0x0, symBinAddr: 0x266AC, symSize: 0xAC }
  - { offset: 0x8C40B, size: 0x8, addend: 0x0, symName: __ZN4pyo310conversion15IntoPyObjectExt17into_bound_py_any17hb55c7b54f7c6100fE, symObjAddr: 0xAC, symBinAddr: 0x26758, symSize: 0xAC }
  - { offset: 0x8C4A0, size: 0x8, addend: 0x0, symName: '__ZN57_$LT$T$u20$as$u20$pyo3..conversion..FromPyObjectBound$GT$20from_py_object_bound17h671b70d396ca4cd7E', symObjAddr: 0x218, symBinAddr: 0x268C4, symSize: 0x34 }
  - { offset: 0x8C4ED, size: 0x8, addend: 0x0, symName: '__ZN4pyo311conversions3std3vec85_$LT$impl$u20$pyo3..conversion..IntoPyObject$u20$for$u20$alloc..vec..Vec$LT$T$GT$$GT$13into_pyobject17h7577558eb72ee978E', symObjAddr: 0x158, symBinAddr: 0x26804, symSize: 0x1C }
  - { offset: 0x8C53B, size: 0x8, addend: 0x0, symName: '__ZN4pyo311conversions3std3vec85_$LT$impl$u20$pyo3..conversion..IntoPyObject$u20$for$u20$alloc..vec..Vec$LT$T$GT$$GT$13into_pyobject17h8a120348a43133f0E', symObjAddr: 0x174, symBinAddr: 0x26820, symSize: 0x1C }
  - { offset: 0x8C59C, size: 0x8, addend: 0x0, symName: '__ZN4pyo35types8sequence85_$LT$impl$u20$pyo3..conversion..FromPyObject$u20$for$u20$alloc..vec..Vec$LT$T$GT$$GT$13extract_bound17hcc5491c9146cb3dfE', symObjAddr: 0x190, symBinAddr: 0x2683C, symSize: 0x88 }
  - { offset: 0x8C600, size: 0x8, addend: 0x0, symName: '__ZN71_$LT$T$u20$as$u20$pyo3..impl_..extract_argument..PyFunctionArgument$GT$7extract17hf11475c44ee056c9E', symObjAddr: 0x374, symBinAddr: 0x26A20, symSize: 0x28 }
  - { offset: 0x8CD2C, size: 0x8, addend: 0x0, symName: '__ZN88_$LT$alloc..vec..Vec$LT$T$C$A$GT$$u20$as$u20$core..convert..AsRef$LT$$u5b$T$u5d$$GT$$GT$6as_ref17h08b2ebd517d364b8E', symObjAddr: 0x39C, symBinAddr: 0x26A48, symSize: 0x78 }
  - { offset: 0x8CF0A, size: 0x8, addend: 0x0, symName: '__ZN90_$LT$alloc..vec..Vec$LT$T$C$A$GT$$u20$as$u20$core..iter..traits..collect..IntoIterator$GT$9into_iter17h2f21999151fb521eE', symObjAddr: 0x414, symBinAddr: 0x26AC0, symSize: 0xF8 }
  - { offset: 0x8D2BD, size: 0x8, addend: 0x0, symName: '__ZN5alloc3vec12Vec$LT$T$GT$3new17h4e38df29e8171976E', symObjAddr: 0x24C, symBinAddr: 0x268F8, symSize: 0x28 }
  - { offset: 0x8D4CE, size: 0x8, addend: 0x0, symName: '__ZN5alloc3vec16Vec$LT$T$C$A$GT$4push17hcce268ec23081038E', symObjAddr: 0x274, symBinAddr: 0x26920, symSize: 0x100 }
  - { offset: 0x8E088, size: 0x8, addend: 0x0, symName: '__ZN4core3num21_$LT$impl$u20$i64$GT$13from_be_bytes17h5c1e6d3802150fbfE', symObjAddr: 0x0, symBinAddr: 0x26BB8, symSize: 0x30 }
  - { offset: 0x8E0FE, size: 0x8, addend: 0x0, symName: '__ZN4core3num21_$LT$impl$u20$i64$GT$13from_be_bytes17h5c1e6d3802150fbfE', symObjAddr: 0x0, symBinAddr: 0x26BB8, symSize: 0x30 }
  - { offset: 0x8E218, size: 0x8, addend: 0x0, symName: '__ZN4core3num23_$LT$impl$u20$usize$GT$13unchecked_add18precondition_check17h5aaeacd2e5756154E', symObjAddr: 0x30, symBinAddr: 0x26BE8, symSize: 0x4C }
  - { offset: 0x8E2BF, size: 0x8, addend: 0x0, symName: '__ZN4core3num23_$LT$impl$u20$usize$GT$13unchecked_sub18precondition_check17h2d5c2e54864048c0E', symObjAddr: 0x7C, symBinAddr: 0x26C34, symSize: 0x54 }
  - { offset: 0x8E392, size: 0x8, addend: 0x0, symName: __ZN4pyo36marker6Python19assume_gil_acquired17h109ef6216d7333f9E, symObjAddr: 0x0, symBinAddr: 0x26C88, symSize: 0x4 }
  - { offset: 0x8F612, size: 0x8, addend: 0x0, symName: __ZN4pyo36marker6Python19assume_gil_acquired17h109ef6216d7333f9E, symObjAddr: 0x0, symBinAddr: 0x26C88, symSize: 0x4 }
  - { offset: 0x8FA83, size: 0x8, addend: 0x0, symName: __ZN4pyo36marker6Python4None17h21093421b96f2afbE, symObjAddr: 0x4, symBinAddr: 0x26C8C, symSize: 0x28 }
  - { offset: 0x8FACF, size: 0x8, addend: 0x0, symName: '__ZN61_$LT$hex..error..FromHexError$u20$as$u20$core..fmt..Debug$GT$3fmt17h67e8a81a63402be0E', symObjAddr: 0x0, symBinAddr: 0x26CB4, symSize: 0x110 }
  - { offset: 0x8FC91, size: 0x8, addend: 0x0, symName: '__ZN61_$LT$hex..error..FromHexError$u20$as$u20$core..fmt..Debug$GT$3fmt17h67e8a81a63402be0E', symObjAddr: 0x0, symBinAddr: 0x26CB4, symSize: 0x110 }
  - { offset: 0x8FE0D, size: 0x8, addend: 0x0, symName: '__ZN4pyo311conversions3std6option90_$LT$impl$u20$pyo3..conversion..IntoPyObject$u20$for$u20$core..option..Option$LT$T$GT$$GT$13into_pyobject28_$u7b$$u7b$closure$u7d$$u7d$17h359ab4b73ca8b4cdE', symObjAddr: 0x0, symBinAddr: 0x26DC4, symSize: 0x34 }
  - { offset: 0x9101D, size: 0x8, addend: 0x0, symName: '__ZN4pyo311conversions3std6option90_$LT$impl$u20$pyo3..conversion..IntoPyObject$u20$for$u20$core..option..Option$LT$T$GT$$GT$13into_pyobject28_$u7b$$u7b$closure$u7d$$u7d$17h359ab4b73ca8b4cdE', symObjAddr: 0x0, symBinAddr: 0x26DC4, symSize: 0x34 }
  - { offset: 0x9106A, size: 0x8, addend: 0x0, symName: '__ZN4pyo311conversions3std6option90_$LT$impl$u20$pyo3..conversion..IntoPyObject$u20$for$u20$core..option..Option$LT$T$GT$$GT$13into_pyobject28_$u7b$$u7b$closure$u7d$$u7d$17h4d980c2205919fbfE', symObjAddr: 0x34, symBinAddr: 0x26DF8, symSize: 0x34 }
  - { offset: 0x910B7, size: 0x8, addend: 0x0, symName: '__ZN4pyo311conversions3std6option90_$LT$impl$u20$pyo3..conversion..IntoPyObject$u20$for$u20$core..option..Option$LT$T$GT$$GT$13into_pyobject28_$u7b$$u7b$closure$u7d$$u7d$17h4f778d2a2d1e7591E', symObjAddr: 0x68, symBinAddr: 0x26E2C, symSize: 0x34 }
  - { offset: 0x91104, size: 0x8, addend: 0x0, symName: '__ZN4pyo311conversions3std6option90_$LT$impl$u20$pyo3..conversion..IntoPyObject$u20$for$u20$core..option..Option$LT$T$GT$$GT$13into_pyobject28_$u7b$$u7b$closure$u7d$$u7d$17h76c2e9c8b7a23730E', symObjAddr: 0x9C, symBinAddr: 0x26E60, symSize: 0x2C }
  - { offset: 0x91143, size: 0x8, addend: 0x0, symName: '__ZN4pyo311conversions3std6option90_$LT$impl$u20$pyo3..conversion..IntoPyObject$u20$for$u20$core..option..Option$LT$T$GT$$GT$13into_pyobject28_$u7b$$u7b$closure$u7d$$u7d$17h9ef175e00f4b347eE', symObjAddr: 0xC8, symBinAddr: 0x26E8C, symSize: 0x2C }
  - { offset: 0x91182, size: 0x8, addend: 0x0, symName: '__ZN4pyo311conversions3std6option90_$LT$impl$u20$pyo3..conversion..IntoPyObject$u20$for$u20$core..option..Option$LT$T$GT$$GT$13into_pyobject28_$u7b$$u7b$closure$u7d$$u7d$17hc2cf69e8ab1c095cE', symObjAddr: 0xF4, symBinAddr: 0x26EB8, symSize: 0x2C }
  - { offset: 0x911C1, size: 0x8, addend: 0x0, symName: '__ZN4pyo311conversions3std6option90_$LT$impl$u20$pyo3..conversion..IntoPyObject$u20$for$u20$core..option..Option$LT$T$GT$$GT$13into_pyobject28_$u7b$$u7b$closure$u7d$$u7d$17hc2f27ca1229aaaccE', symObjAddr: 0x120, symBinAddr: 0x26EE4, symSize: 0x2C }
  - { offset: 0x91200, size: 0x8, addend: 0x0, symName: '__ZN4pyo311conversions3std6option90_$LT$impl$u20$pyo3..conversion..IntoPyObject$u20$for$u20$core..option..Option$LT$T$GT$$GT$13into_pyobject28_$u7b$$u7b$closure$u7d$$u7d$17he057b8fc78180809E', symObjAddr: 0x14C, symBinAddr: 0x26F10, symSize: 0x34 }
  - { offset: 0x918C5, size: 0x8, addend: 0x0, symName: __ZN5alloc3fmt6format17h1a55c15cdba35d68E, symObjAddr: 0x0, symBinAddr: 0x26F44, symSize: 0xD4 }
  - { offset: 0x91EE0, size: 0x8, addend: 0x0, symName: __ZN5alloc3fmt6format17h1a55c15cdba35d68E, symObjAddr: 0x0, symBinAddr: 0x26F44, symSize: 0xD4 }
  - { offset: 0x9204E, size: 0x8, addend: 0x0, symName: '__ZN4pyo311conversions3std3num63_$LT$impl$u20$pyo3..conversion..IntoPyObject$u20$for$u20$u8$GT$28owned_sequence_into_pyobject17he0b43e80fba732eeE', symObjAddr: 0x0, symBinAddr: 0x27018, symSize: 0x94 }
  - { offset: 0x934E1, size: 0x8, addend: 0x0, symName: '__ZN4pyo311conversions3std3num63_$LT$impl$u20$pyo3..conversion..IntoPyObject$u20$for$u20$u8$GT$28owned_sequence_into_pyobject17he0b43e80fba732eeE', symObjAddr: 0x0, symBinAddr: 0x27018, symSize: 0x94 }
  - { offset: 0x93ECD, size: 0x8, addend: 0x0, symName: '__ZN96_$LT$pyo3..pycell..impl_..BorrowChecker$u20$as$u20$pyo3..pycell..impl_..PyClassBorrowChecker$GT$3new17had34ab977702c40bE', symObjAddr: 0x0, symBinAddr: 0x270AC, symSize: 0x40 }
  - { offset: 0x93EEE, size: 0x8, addend: 0x0, symName: '__ZN96_$LT$pyo3..pycell..impl_..BorrowChecker$u20$as$u20$pyo3..pycell..impl_..PyClassBorrowChecker$GT$3new17had34ab977702c40bE', symObjAddr: 0x0, symBinAddr: 0x270AC, symSize: 0x40 }
  - { offset: 0x93FA9, size: 0x8, addend: 0x0, symName: __ZN3std4sync4once4Once12is_completed17h6353ca6946127d06E, symObjAddr: 0x0, symBinAddr: 0x270EC, symSize: 0x54 }
  - { offset: 0x9415A, size: 0x8, addend: 0x0, symName: __ZN3std4sync4once4Once12is_completed17h6353ca6946127d06E, symObjAddr: 0x0, symBinAddr: 0x270EC, symSize: 0x54 }
  - { offset: 0x941CE, size: 0x8, addend: 0x0, symName: '__ZN4core3ptr7mut_ptr31_$LT$impl$u20$$BP$mut$u20$T$GT$6offset18precondition_check17hd2a2ea10aecd8cf7E', symObjAddr: 0x0, symBinAddr: 0x27140, symSize: 0xB8 }
  - { offset: 0x94283, size: 0x8, addend: 0x0, symName: '__ZN4core3ptr7mut_ptr31_$LT$impl$u20$$BP$mut$u20$T$GT$6offset18precondition_check17hd2a2ea10aecd8cf7E', symObjAddr: 0x0, symBinAddr: 0x27140, symSize: 0xB8 }
  - { offset: 0x946BF, size: 0x8, addend: 0x0, symName: '__ZN93_$LT$core..ops..index_range..IndexRange$u20$as$u20$core..iter..traits..iterator..Iterator$GT$4next17h0af067cb2e9ae990E', symObjAddr: 0x0, symBinAddr: 0x271F8, symSize: 0xEC }
  - { offset: 0x947AE, size: 0x8, addend: 0x0, symName: '__ZN93_$LT$core..ops..index_range..IndexRange$u20$as$u20$core..iter..traits..iterator..Iterator$GT$4next17h0af067cb2e9ae990E', symObjAddr: 0x0, symBinAddr: 0x271F8, symSize: 0xEC }
  - { offset: 0x949C4, size: 0x8, addend: 0x0, symName: '__ZN185_$LT$core..ops..control_flow..ControlFlow$LT$B$C$C$GT$$u20$as$u20$core..ops..try_trait..FromResidual$LT$core..ops..control_flow..ControlFlow$LT$B$C$core..convert..Infallible$GT$$GT$$GT$13from_residual17h06d52b1e39fdaaffE', symObjAddr: 0x0, symBinAddr: 0x272E4, symSize: 0x48 }
  - { offset: 0x9519E, size: 0x8, addend: 0x0, symName: '__ZN185_$LT$core..ops..control_flow..ControlFlow$LT$B$C$C$GT$$u20$as$u20$core..ops..try_trait..FromResidual$LT$core..ops..control_flow..ControlFlow$LT$B$C$core..convert..Infallible$GT$$GT$$GT$13from_residual17h06d52b1e39fdaaffE', symObjAddr: 0x0, symBinAddr: 0x272E4, symSize: 0x48 }
  - { offset: 0x95200, size: 0x8, addend: 0x0, symName: '__ZN95_$LT$core..ops..control_flow..ControlFlow$LT$B$C$C$GT$$u20$as$u20$core..ops..try_trait..Try$GT$11from_output17hbf1993e11dd62fbfE', symObjAddr: 0x48, symBinAddr: 0x2732C, symSize: 0x20 }
  - { offset: 0x9523E, size: 0x8, addend: 0x0, symName: '__ZN95_$LT$core..ops..control_flow..ControlFlow$LT$B$C$C$GT$$u20$as$u20$core..ops..try_trait..Try$GT$6branch17hc1fe5d8488c85862E', symObjAddr: 0x68, symBinAddr: 0x2734C, symSize: 0x98 }
  - { offset: 0x9678E, size: 0x8, addend: 0x0, symName: __ZN4pyo35types4none6PyNone3get17h14053ea0abbf8773E, symObjAddr: 0x0, symBinAddr: 0x273E4, symSize: 0x2C }
  - { offset: 0x97ECF, size: 0x8, addend: 0x0, symName: __ZN4pyo35types4none6PyNone3get17h14053ea0abbf8773E, symObjAddr: 0x0, symBinAddr: 0x273E4, symSize: 0x2C }
  - { offset: 0x97F19, size: 0x8, addend: 0x0, symName: __ZN4pyo37pyclass18create_type_object18create_type_object17h229908b9f62ed721E, symObjAddr: 0x0, symBinAddr: 0x27410, symSize: 0x15C }
  - { offset: 0x9950D, size: 0x8, addend: 0x0, symName: __ZN4pyo37pyclass18create_type_object18create_type_object17h229908b9f62ed721E, symObjAddr: 0x0, symBinAddr: 0x27410, symSize: 0x15C }
  - { offset: 0x9956A, size: 0x8, addend: 0x0, symName: __ZN4pyo37pyclass18create_type_object18create_type_object17h2888ee7ed874e9f8E, symObjAddr: 0x15C, symBinAddr: 0x2756C, symSize: 0x15C }
  - { offset: 0x995C7, size: 0x8, addend: 0x0, symName: __ZN4pyo37pyclass18create_type_object18create_type_object17h35f6ab6b57bfd35dE, symObjAddr: 0x2B8, symBinAddr: 0x276C8, symSize: 0x15C }
  - { offset: 0x99624, size: 0x8, addend: 0x0, symName: __ZN4pyo37pyclass18create_type_object18create_type_object17h3b36286edaa14838E, symObjAddr: 0x414, symBinAddr: 0x27824, symSize: 0x15C }
  - { offset: 0x99681, size: 0x8, addend: 0x0, symName: __ZN4pyo37pyclass18create_type_object18create_type_object17h58e549afb5d29aa0E, symObjAddr: 0x570, symBinAddr: 0x27980, symSize: 0x15C }
  - { offset: 0x996DE, size: 0x8, addend: 0x0, symName: __ZN4pyo37pyclass18create_type_object18create_type_object17hb4671034664f0062E, symObjAddr: 0x6CC, symBinAddr: 0x27ADC, symSize: 0x15C }
  - { offset: 0x9973B, size: 0x8, addend: 0x0, symName: __ZN4pyo37pyclass18create_type_object18create_type_object17hb76709081eabc2c0E, symObjAddr: 0x828, symBinAddr: 0x27C38, symSize: 0x15C }
  - { offset: 0x99798, size: 0x8, addend: 0x0, symName: __ZN4pyo37pyclass18create_type_object18create_type_object17hc2a60697720c7ac6E, symObjAddr: 0x984, symBinAddr: 0x27D94, symSize: 0x15C }
  - { offset: 0x997F5, size: 0x8, addend: 0x0, symName: __ZN4pyo37pyclass18create_type_object18create_type_object17hfbdaef7c9e587fe8E, symObjAddr: 0xAE0, symBinAddr: 0x27EF0, symSize: 0x15C }
  - { offset: 0x9A475, size: 0x8, addend: 0x0, symName: '__ZN5alloc7raw_vec19RawVec$LT$T$C$A$GT$8grow_one17hf2e50abde66d13e0E', symObjAddr: 0x0, symBinAddr: 0x2804C, symSize: 0x88 }
  - { offset: 0x9A9D8, size: 0x8, addend: 0x0, symName: '__ZN5alloc7raw_vec19RawVec$LT$T$C$A$GT$8grow_one17hf2e50abde66d13e0E', symObjAddr: 0x0, symBinAddr: 0x2804C, symSize: 0x88 }
  - { offset: 0x9AA5F, size: 0x8, addend: 0x0, symName: __ZN4core4iter6traits8iterator8Iterator9enumerate17h3e1c490eda70061bE, symObjAddr: 0x0, symBinAddr: 0x280D4, symSize: 0x38 }
  - { offset: 0x9B2FF, size: 0x8, addend: 0x0, symName: __ZN4core4iter6traits8iterator8Iterator9enumerate17h3e1c490eda70061bE, symObjAddr: 0x0, symBinAddr: 0x280D4, symSize: 0x38 }
  - { offset: 0x9B356, size: 0x8, addend: 0x0, symName: __ZN4core4iter6traits8iterator8Iterator9enumerate17h5c9394872ee4f3dbE, symObjAddr: 0x38, symBinAddr: 0x2810C, symSize: 0x38 }
  - { offset: 0x9B4A2, size: 0x8, addend: 0x0, symName: '__ZN99_$LT$core..array..iter..IntoIter$LT$T$C$_$GT$$u20$as$u20$core..iter..traits..iterator..Iterator$GT$4next17h071ab1e7ab640ecfE', symObjAddr: 0x70, symBinAddr: 0x28144, symSize: 0xB8 }
  - { offset: 0x9B60F, size: 0x8, addend: 0x0, symName: '__ZN99_$LT$core..array..iter..IntoIter$LT$T$C$_$GT$$u20$as$u20$core..iter..traits..iterator..Iterator$GT$4next17h845d100c52c97d3cE', symObjAddr: 0x128, symBinAddr: 0x281FC, symSize: 0xBC }
  - { offset: 0x9CD0B, size: 0x8, addend: 0x0, symName: __ZN4core4sync6atomic11AtomicUsize3new17h096863604f1ce6b3E, symObjAddr: 0x0, symBinAddr: 0x282B8, symSize: 0x18 }
  - { offset: 0x9CD80, size: 0x8, addend: 0x0, symName: __ZN4core4sync6atomic11AtomicUsize3new17h096863604f1ce6b3E, symObjAddr: 0x0, symBinAddr: 0x282B8, symSize: 0x18 }
  - { offset: 0x9CDC1, size: 0x8, addend: 0x0, symName: '__ZN102_$LT$core..iter..adapters..zip..Zip$LT$A$C$B$GT$$u20$as$u20$core..iter..traits..iterator..Iterator$GT$4next17hec27c6576310bdb3E', symObjAddr: 0x0, symBinAddr: 0x282D0, symSize: 0x24 }
  - { offset: 0x9D5BE, size: 0x8, addend: 0x0, symName: '__ZN102_$LT$core..iter..adapters..zip..Zip$LT$A$C$B$GT$$u20$as$u20$core..iter..traits..iterator..Iterator$GT$4next17hec27c6576310bdb3E', symObjAddr: 0x0, symBinAddr: 0x282D0, symSize: 0x24 }
  - { offset: 0x9D602, size: 0x8, addend: 0x0, symName: '__ZN111_$LT$core..iter..adapters..zip..Zip$LT$A$C$B$GT$$u20$as$u20$core..iter..adapters..zip..ZipImpl$LT$A$C$B$GT$$GT$3new17h6d7343a27dcc9be6E', symObjAddr: 0x24, symBinAddr: 0x282F4, symSize: 0x40 }
  - { offset: 0x9D64E, size: 0x8, addend: 0x0, symName: '__ZN111_$LT$core..iter..adapters..zip..Zip$LT$A$C$B$GT$$u20$as$u20$core..iter..adapters..zip..ZipImpl$LT$A$C$B$GT$$GT$4next17h1ecc5fd4d16b486fE', symObjAddr: 0x64, symBinAddr: 0x28334, symSize: 0xE0 }
  - { offset: 0x9D889, size: 0x8, addend: 0x0, symName: '__ZN63_$LT$I$u20$as$u20$core..iter..traits..collect..IntoIterator$GT$9into_iter17h3b1e80ac20fc805cE', symObjAddr: 0x144, symBinAddr: 0x28414, symSize: 0x30 }
  - { offset: 0x9D8C1, size: 0x8, addend: 0x0, symName: '__ZN63_$LT$I$u20$as$u20$core..iter..traits..collect..IntoIterator$GT$9into_iter17hd38ad74b114c485eE', symObjAddr: 0x174, symBinAddr: 0x28444, symSize: 0x30 }
  - { offset: 0x9ED52, size: 0x8, addend: 0x0, symName: '__ZN4core3mem13manually_drop21ManuallyDrop$LT$T$GT$4drop17h08b92c4bbdf63c15E', symObjAddr: 0x0, symBinAddr: 0x28474, symSize: 0x10 }
  - { offset: 0x9F222, size: 0x8, addend: 0x0, symName: '__ZN4core3mem13manually_drop21ManuallyDrop$LT$T$GT$4drop17h08b92c4bbdf63c15E', symObjAddr: 0x0, symBinAddr: 0x28474, symSize: 0x10 }
  - { offset: 0x9F25A, size: 0x8, addend: 0x0, symName: '__ZN4core3mem13manually_drop21ManuallyDrop$LT$T$GT$4drop17h3c66f2b52679ea93E', symObjAddr: 0x10, symBinAddr: 0x28484, symSize: 0x10 }
  - { offset: 0x9F29F, size: 0x8, addend: 0x0, symName: '__ZN4core3mem13manually_drop21ManuallyDrop$LT$T$GT$4drop17h544d05789991aed9E', symObjAddr: 0x20, symBinAddr: 0x28494, symSize: 0x10 }
  - { offset: 0x9F2D7, size: 0x8, addend: 0x0, symName: '__ZN4core3mem13manually_drop21ManuallyDrop$LT$T$GT$4drop17h700baf86c336b35cE', symObjAddr: 0x30, symBinAddr: 0x284A4, symSize: 0x10 }
  - { offset: 0x9F30F, size: 0x8, addend: 0x0, symName: '__ZN4core3mem13manually_drop21ManuallyDrop$LT$T$GT$4drop17h9f02256762ce185cE', symObjAddr: 0x40, symBinAddr: 0x284B4, symSize: 0x10 }
  - { offset: 0x9F347, size: 0x8, addend: 0x0, symName: '__ZN4core3mem13manually_drop21ManuallyDrop$LT$T$GT$4drop17hcb4c761c1e494d28E', symObjAddr: 0x50, symBinAddr: 0x284C4, symSize: 0x10 }
  - { offset: 0x9F386, size: 0x8, addend: 0x0, symName: '__ZN4core3mem13manually_drop21ManuallyDrop$LT$T$GT$4drop17hcb4cd2644454fc3fE', symObjAddr: 0x60, symBinAddr: 0x284D4, symSize: 0x10 }
  - { offset: 0x9F3BE, size: 0x8, addend: 0x0, symName: '__ZN4core3mem13manually_drop21ManuallyDrop$LT$T$GT$4drop17hcd8c4eee179b0462E', symObjAddr: 0x70, symBinAddr: 0x284E4, symSize: 0x10 }
  - { offset: 0x9F3F6, size: 0x8, addend: 0x0, symName: '__ZN4core3mem13manually_drop21ManuallyDrop$LT$T$GT$4drop17hf5972beb9456e6fbE', symObjAddr: 0x80, symBinAddr: 0x284F4, symSize: 0x10 }
  - { offset: 0x9F43F, size: 0x8, addend: 0x0, symName: '__ZN106_$LT$core..ops..range..Range$LT$usize$GT$$u20$as$u20$core..slice..index..SliceIndex$LT$$u5b$T$u5d$$GT$$GT$9index_mut17he409b12606cbb69bE', symObjAddr: 0x0, symBinAddr: 0x28504, symSize: 0xC8 }
  - { offset: 0xA0674, size: 0x8, addend: 0x0, symName: '__ZN106_$LT$core..ops..range..Range$LT$usize$GT$$u20$as$u20$core..slice..index..SliceIndex$LT$$u5b$T$u5d$$GT$$GT$9index_mut17he409b12606cbb69bE', symObjAddr: 0x0, symBinAddr: 0x28504, symSize: 0xC8 }
  - { offset: 0xA07AA, size: 0x8, addend: 0x0, symName: '__ZN108_$LT$core..ops..range..RangeTo$LT$usize$GT$$u20$as$u20$core..slice..index..SliceIndex$LT$$u5b$T$u5d$$GT$$GT$9index_mut17h9a2440ca77fa055dE', symObjAddr: 0xC8, symBinAddr: 0x285CC, symSize: 0x54 }
  - { offset: 0xA082A, size: 0x8, addend: 0x0, symName: '__ZN110_$LT$core..ops..range..RangeFrom$LT$usize$GT$$u20$as$u20$core..slice..index..SliceIndex$LT$$u5b$T$u5d$$GT$$GT$5index17hb572c9de24393a31E', symObjAddr: 0x11C, symBinAddr: 0x28620, symSize: 0x90 }
  - { offset: 0xA1151, size: 0x8, addend: 0x0, symName: __ZN4core4iter6traits8iterator8Iterator6copied17h034ac2bac1256819E, symObjAddr: 0x0, symBinAddr: 0x286B0, symSize: 0x1C }
  - { offset: 0xA194E, size: 0x8, addend: 0x0, symName: __ZN4core4iter6traits8iterator8Iterator6copied17h034ac2bac1256819E, symObjAddr: 0x0, symBinAddr: 0x286B0, symSize: 0x1C }
  - { offset: 0xA28B9, size: 0x8, addend: 0x0, symName: '__ZN91_$LT$core..slice..iter..Iter$LT$T$GT$$u20$as$u20$core..iter..traits..iterator..Iterator$GT$4next17h5a7fb478299a4742E', symObjAddr: 0x6C, symBinAddr: 0x2871C, symSize: 0xCC }
  - { offset: 0xA2A1A, size: 0x8, addend: 0x0, symName: '__ZN91_$LT$core..slice..iter..Iter$LT$T$GT$$u20$as$u20$core..iter..traits..iterator..Iterator$GT$4next17h653f080a0984b28cE', symObjAddr: 0x138, symBinAddr: 0x287E8, symSize: 0xCC }
  - { offset: 0xA2B7B, size: 0x8, addend: 0x0, symName: '__ZN91_$LT$core..slice..iter..Iter$LT$T$GT$$u20$as$u20$core..iter..traits..iterator..Iterator$GT$8position17h3f3517ed26d1d433E', symObjAddr: 0x204, symBinAddr: 0x288B4, symSize: 0x1C8 }
  - { offset: 0xA2CBB, size: 0x8, addend: 0x0, symName: '__ZN91_$LT$core..slice..iter..Iter$LT$T$GT$$u20$as$u20$core..iter..traits..iterator..Iterator$GT$8position17h662b8c837c965e07E', symObjAddr: 0x3CC, symBinAddr: 0x28A7C, symSize: 0x1C8 }
  - { offset: 0xA35DA, size: 0x8, addend: 0x0, symName: '__ZN4core5slice4iter13Iter$LT$T$GT$3new17h3e128b18921dc16dE', symObjAddr: 0x1C, symBinAddr: 0x286CC, symSize: 0x50 }
  - { offset: 0xA399E, size: 0x8, addend: 0x0, symName: __ZN4pyo35impl_5panic9PanicTrap3new17hf94cdff8e3808390E, symObjAddr: 0x0, symBinAddr: 0x28C44, symSize: 0x18 }
  - { offset: 0xA3A2D, size: 0x8, addend: 0x0, symName: __ZN4pyo35impl_5panic9PanicTrap3new17hf94cdff8e3808390E, symObjAddr: 0x0, symBinAddr: 0x28C44, symSize: 0x18 }
  - { offset: 0xA3A4F, size: 0x8, addend: 0x0, symName: __ZN4pyo35impl_5panic9PanicTrap6disarm17h4365df20f1ebd6a8E, symObjAddr: 0x18, symBinAddr: 0x28C5C, symSize: 0x28 }
  - { offset: 0xA3A8F, size: 0x8, addend: 0x0, symName: __ZN4pyo35types8sequence16extract_sequence17hc3d58cd9e27cbadcE, symObjAddr: 0x0, symBinAddr: 0x28C84, symSize: 0x394 }
  - { offset: 0xA507B, size: 0x8, addend: 0x0, symName: __ZN4pyo35types8sequence16extract_sequence17hc3d58cd9e27cbadcE, symObjAddr: 0x0, symBinAddr: 0x28C84, symSize: 0x394 }
  - { offset: 0xA5BDE, size: 0x8, addend: 0x0, symName: '__ZN97_$LT$alloc..ffi..c_str..CString$u20$as$u20$core..borrow..Borrow$LT$core..ffi..c_str..CStr$GT$$GT$6borrow17he09cf111078165a7E', symObjAddr: 0x0, symBinAddr: 0x29018, symSize: 0x28 }
  - { offset: 0xA5C4E, size: 0x8, addend: 0x0, symName: '__ZN97_$LT$alloc..ffi..c_str..CString$u20$as$u20$core..borrow..Borrow$LT$core..ffi..c_str..CStr$GT$$GT$6borrow17he09cf111078165a7E', symObjAddr: 0x0, symBinAddr: 0x29018, symSize: 0x28 }
  - { offset: 0xA5DA2, size: 0x8, addend: 0x0, symName: '__ZN104_$LT$core..iter..adapters..copied..Copied$LT$I$GT$$u20$as$u20$core..iter..traits..iterator..Iterator$GT$4next17h59e662a2f37f4c3bE', symObjAddr: 0x0, symBinAddr: 0x29040, symSize: 0x5C }
  - { offset: 0xA7009, size: 0x8, addend: 0x0, symName: '__ZN104_$LT$core..iter..adapters..copied..Copied$LT$I$GT$$u20$as$u20$core..iter..traits..iterator..Iterator$GT$4next17h59e662a2f37f4c3bE', symObjAddr: 0x0, symBinAddr: 0x29040, symSize: 0x5C }
  - { offset: 0xA70AA, size: 0x8, addend: 0x0, symName: '__ZN63_$LT$I$u20$as$u20$core..iter..traits..collect..IntoIterator$GT$9into_iter17hd4f04f05c9ab8e43E', symObjAddr: 0x5C, symBinAddr: 0x2909C, symSize: 0x1C }
  - { offset: 0xA7766, size: 0x8, addend: 0x0, symName: '__ZN4core3ops8function5impls80_$LT$impl$u20$core..ops..function..FnOnce$LT$A$GT$$u20$for$u20$$RF$mut$u20$F$GT$9call_once17hc9169f456f993c92E', symObjAddr: 0x0, symBinAddr: 0x290B8, symSize: 0x2C }
  - { offset: 0xA7F6A, size: 0x8, addend: 0x0, symName: '__ZN4core3ops8function5impls80_$LT$impl$u20$core..ops..function..FnOnce$LT$A$GT$$u20$for$u20$$RF$mut$u20$F$GT$9call_once17hc9169f456f993c92E', symObjAddr: 0x0, symBinAddr: 0x290B8, symSize: 0x2C }
  - { offset: 0xA8EAF, size: 0x8, addend: 0x0, symName: __ZN4pyo310conversion12IntoPyObject28owned_sequence_into_pyobject17h30a84682c7733670E, symObjAddr: 0x2C, symBinAddr: 0x290E4, symSize: 0xA4 }
  - { offset: 0xA8F48, size: 0x8, addend: 0x0, symName: '__ZN4pyo310conversion12IntoPyObject28owned_sequence_into_pyobject28_$u7b$$u7b$closure$u7d$$u7d$17h6d267c9d3338c458E', symObjAddr: 0xD0, symBinAddr: 0x29188, symSize: 0x2C }
  - { offset: 0xA8FB8, size: 0x8, addend: 0x0, symName: __ZN4pyo310conversion15IntoPyObjectExt17into_bound_py_any17h21af03b426303f11E, symObjAddr: 0xFC, symBinAddr: 0x291B4, symSize: 0xBC }
  - { offset: 0xA9046, size: 0x8, addend: 0x0, symName: __ZN4pyo310conversion15IntoPyObjectExt17into_bound_py_any17h3e9c402cf3444429E, symObjAddr: 0x1B8, symBinAddr: 0x29270, symSize: 0x4C }
  - { offset: 0xA90B5, size: 0x8, addend: 0x0, symName: __ZN4pyo310conversion15IntoPyObjectExt17into_bound_py_any17h43619d3d09394bb2E, symObjAddr: 0x204, symBinAddr: 0x292BC, symSize: 0x4C }
  - { offset: 0xA9124, size: 0x8, addend: 0x0, symName: __ZN4pyo310conversion15IntoPyObjectExt17into_bound_py_any17hd53b4056cc4c7cb9E, symObjAddr: 0x250, symBinAddr: 0x29308, symSize: 0xAC }
  - { offset: 0xA91B3, size: 0x8, addend: 0x0, symName: __ZN4pyo310conversion15IntoPyObjectExt17into_bound_py_any17he743626afd202a11E, symObjAddr: 0x2FC, symBinAddr: 0x293B4, symSize: 0x4C }
  - { offset: 0xA9228, size: 0x8, addend: 0x0, symName: '__ZN57_$LT$T$u20$as$u20$pyo3..conversion..FromPyObjectBound$GT$20from_py_object_bound17h2054a161d120d380E', symObjAddr: 0x348, symBinAddr: 0x29400, symSize: 0x34 }
  - { offset: 0xA9F01, size: 0x8, addend: 0x0, symName: _PyInit_snid_native, symObjAddr: 0x0, symBinAddr: 0x29434, symSize: 0x34 }
  - { offset: 0xA9F26, size: 0x8, addend: 0x0, symName: __ZN11snid_native11snid_native9_PYO3_DEF17h6d95f76322e3d863E, symObjAddr: 0x58, symBinAddr: 0x1146E0, symSize: 0x0 }
  - { offset: 0xA9F33, size: 0x8, addend: 0x0, symName: _PyInit_snid_native, symObjAddr: 0x0, symBinAddr: 0x29434, symSize: 0x34 }
  - { offset: 0xABEE4, size: 0x8, addend: 0x0, symName: __ZN4core5slice3raw14from_raw_parts18precondition_check17hdca700607619f8b7E, symObjAddr: 0x0, symBinAddr: 0x29468, symSize: 0x164 }
  - { offset: 0xAC3E9, size: 0x8, addend: 0x0, symName: __ZN4core5slice3raw14from_raw_parts18precondition_check17hdca700607619f8b7E, symObjAddr: 0x0, symBinAddr: 0x29468, symSize: 0x164 }
  - { offset: 0xAC6FA, size: 0x8, addend: 0x0, symName: '__ZN106_$LT$core..ops..range..Range$LT$usize$GT$$u20$as$u20$core..slice..index..SliceIndex$LT$$u5b$T$u5d$$GT$$GT$13get_unchecked18precondition_check17h59ab4717e81dc0faE', symObjAddr: 0x0, symBinAddr: 0x295CC, symSize: 0x60 }
  - { offset: 0xAC720, size: 0x8, addend: 0x0, symName: '__ZN106_$LT$core..ops..range..Range$LT$usize$GT$$u20$as$u20$core..slice..index..SliceIndex$LT$$u5b$T$u5d$$GT$$GT$13get_unchecked18precondition_check17h59ab4717e81dc0faE', symObjAddr: 0x0, symBinAddr: 0x295CC, symSize: 0x60 }
  - { offset: 0xAC770, size: 0x8, addend: 0x0, symName: '__ZN75_$LT$usize$u20$as$u20$core..slice..index..SliceIndex$LT$$u5b$T$u5d$$GT$$GT$13get_unchecked18precondition_check17he4d116346f120681E', symObjAddr: 0x60, symBinAddr: 0x2962C, symSize: 0x40 }
  - { offset: 0xAC7D0, size: 0x8, addend: 0x0, symName: '__ZN128_$LT$pyo3..impl_..pyclass_init..PyNativeTypeInitializer$LT$T$GT$$u20$as$u20$pyo3..impl_..pyclass_init..PyObjectInit$LT$T$GT$$GT$15into_new_object17h8a88a531767f9504E', symObjAddr: 0x0, symBinAddr: 0x2966C, symSize: 0x3C }
  - { offset: 0xADBD4, size: 0x8, addend: 0x0, symName: '__ZN128_$LT$pyo3..impl_..pyclass_init..PyNativeTypeInitializer$LT$T$GT$$u20$as$u20$pyo3..impl_..pyclass_init..PyObjectInit$LT$T$GT$$GT$15into_new_object17h8a88a531767f9504E', symObjAddr: 0x0, symBinAddr: 0x2966C, symSize: 0x3C }
  - { offset: 0xADC56, size: 0x8, addend: 0x0, symName: '__ZN128_$LT$pyo3..impl_..pyclass_init..PyNativeTypeInitializer$LT$T$GT$$u20$as$u20$pyo3..impl_..pyclass_init..PyObjectInit$LT$T$GT$$GT$17can_be_subclassed17h90d1a1460f6d2836E', symObjAddr: 0x3C, symBinAddr: 0x296A8, symSize: 0x18 }
  - { offset: 0xAE4FF, size: 0x8, addend: 0x0, symName: '__ZN42_$LT$$RF$T$u20$as$u20$core..fmt..Debug$GT$3fmt17hd208eb20278fb17dE', symObjAddr: 0x0, symBinAddr: 0x296C0, symSize: 0x30 }
  - { offset: 0xAE545, size: 0x8, addend: 0x0, symName: '__ZN42_$LT$$RF$T$u20$as$u20$core..fmt..Debug$GT$3fmt17hd208eb20278fb17dE', symObjAddr: 0x0, symBinAddr: 0x296C0, symSize: 0x30 }
  - { offset: 0xAE810, size: 0x8, addend: 0x0, symName: __ZN4core3ptr5write17h0db118feb66ed9efE, symObjAddr: 0x0, symBinAddr: 0x296F0, symSize: 0x2C }
  - { offset: 0xAE827, size: 0x8, addend: 0x0, symName: __ZN4core3ptr5write17h0db118feb66ed9efE, symObjAddr: 0x0, symBinAddr: 0x296F0, symSize: 0x2C }
  - { offset: 0xAE86A, size: 0x8, addend: 0x0, symName: __ZN4core3ptr5write17h217d916fbbed2025E, symObjAddr: 0x2C, symBinAddr: 0x2971C, symSize: 0x2C }
  - { offset: 0xAE8AD, size: 0x8, addend: 0x0, symName: __ZN4core3ptr5write17h437124452f3b01eaE, symObjAddr: 0x58, symBinAddr: 0x29748, symSize: 0x24 }
  - { offset: 0xAE8EF, size: 0x8, addend: 0x0, symName: __ZN4core3ptr5write17h732bce3f1af6acd1E, symObjAddr: 0x7C, symBinAddr: 0x2976C, symSize: 0x2C }
  - { offset: 0xAE932, size: 0x8, addend: 0x0, symName: __ZN4core3ptr5write17h844dfe391467fd70E, symObjAddr: 0xA8, symBinAddr: 0x29798, symSize: 0x2C }
  - { offset: 0xAE975, size: 0x8, addend: 0x0, symName: __ZN4core3ptr5write17ha39de2be0231bf8cE, symObjAddr: 0xD4, symBinAddr: 0x297C4, symSize: 0x24 }
  - { offset: 0xAE9B7, size: 0x8, addend: 0x0, symName: __ZN4core3ptr5write17hc5ee232753e38d00E, symObjAddr: 0xF8, symBinAddr: 0x297E8, symSize: 0x1C }
  - { offset: 0xAE9F9, size: 0x8, addend: 0x0, symName: __ZN4core3ptr5write17hd79028272c70c5caE, symObjAddr: 0x114, symBinAddr: 0x29804, symSize: 0x2C }
  - { offset: 0xAEA3C, size: 0x8, addend: 0x0, symName: __ZN4core3ptr5write17hde2d4d5c29b5399cE, symObjAddr: 0x140, symBinAddr: 0x29830, symSize: 0x2C }
  - { offset: 0xAF3F8, size: 0x8, addend: 0x0, symName: '__ZN50_$LT$T$u20$as$u20$core..convert..Into$LT$U$GT$$GT$4into17h6b83ee2f35a76743E', symObjAddr: 0x0, symBinAddr: 0x2985C, symSize: 0x24 }
  - { offset: 0xAFBF2, size: 0x8, addend: 0x0, symName: '__ZN50_$LT$T$u20$as$u20$core..convert..Into$LT$U$GT$$GT$4into17h6b83ee2f35a76743E', symObjAddr: 0x0, symBinAddr: 0x2985C, symSize: 0x24 }
  - { offset: 0xB0BBE, size: 0x8, addend: 0x0, symName: __ZN3std5panic12catch_unwind17h679fad65f0bd9715E, symObjAddr: 0x0, symBinAddr: 0x29880, symSize: 0xDC }
  - { offset: 0xB2638, size: 0x8, addend: 0x0, symName: __ZN3std5panic12catch_unwind17h679fad65f0bd9715E, symObjAddr: 0x0, symBinAddr: 0x29880, symSize: 0xDC }
  - { offset: 0xB26E1, size: 0x8, addend: 0x0, symName: __ZN3std5panic12catch_unwind17h8af960666ead5008E, symObjAddr: 0xDC, symBinAddr: 0x2995C, symSize: 0xCC }
  - { offset: 0xB278A, size: 0x8, addend: 0x0, symName: __ZN3std5panic12catch_unwind17hc007c905adc5536dE, symObjAddr: 0x1A8, symBinAddr: 0x29A28, symSize: 0xF0 }
  - { offset: 0xB2854, size: 0x8, addend: 0x0, symName: __ZN3std5panic12catch_unwind17he8c8c69f54921bb7E, symObjAddr: 0x298, symBinAddr: 0x29B18, symSize: 0xDC }
  - { offset: 0xB3335, size: 0x8, addend: 0x0, symName: '__ZN67_$LT$core..array..TryFromSliceError$u20$as$u20$core..fmt..Debug$GT$3fmt17h5c9b3e5576509185E', symObjAddr: 0x0, symBinAddr: 0x29C48, symSize: 0x54 }
  - { offset: 0xB33E8, size: 0x8, addend: 0x0, symName: '__ZN67_$LT$core..array..TryFromSliceError$u20$as$u20$core..fmt..Debug$GT$3fmt17h5c9b3e5576509185E', symObjAddr: 0x0, symBinAddr: 0x29C48, symSize: 0x54 }
  - { offset: 0xB35CB, size: 0x8, addend: 0x0, symName: '__ZN110_$LT$core..iter..adapters..enumerate..Enumerate$LT$I$GT$$u20$as$u20$core..iter..traits..iterator..Iterator$GT$4next17h34e3c0de17151a53E', symObjAddr: 0x0, symBinAddr: 0x29C9C, symSize: 0xEC }
  - { offset: 0xB4A2A, size: 0x8, addend: 0x0, symName: '__ZN110_$LT$core..iter..adapters..enumerate..Enumerate$LT$I$GT$$u20$as$u20$core..iter..traits..iterator..Iterator$GT$4next17h34e3c0de17151a53E', symObjAddr: 0x0, symBinAddr: 0x29C9C, symSize: 0xEC }
  - { offset: 0xB4B0B, size: 0x8, addend: 0x0, symName: '__ZN110_$LT$core..iter..adapters..enumerate..Enumerate$LT$I$GT$$u20$as$u20$core..iter..traits..iterator..Iterator$GT$4next17hb05a08f77b8dfb70E', symObjAddr: 0xEC, symBinAddr: 0x29D88, symSize: 0xEC }
  - { offset: 0xB4C52, size: 0x8, addend: 0x0, symName: '__ZN63_$LT$I$u20$as$u20$core..iter..traits..collect..IntoIterator$GT$9into_iter17h04ff49d74c20c109E', symObjAddr: 0x1D8, symBinAddr: 0x29E74, symSize: 0x30 }
  - { offset: 0xB4C8A, size: 0x8, addend: 0x0, symName: '__ZN63_$LT$I$u20$as$u20$core..iter..traits..collect..IntoIterator$GT$9into_iter17h9472d9da91dff3deE', symObjAddr: 0x208, symBinAddr: 0x29EA4, symSize: 0x30 }
  - { offset: 0xB534C, size: 0x8, addend: 0x0, symName: __ZN4pyo310conversion15IntoPyObjectExt17into_bound_py_any17h0a8cb609fd06a2bfE, symObjAddr: 0x0, symBinAddr: 0x29ED4, symSize: 0xAC }
  - { offset: 0xB6A90, size: 0x8, addend: 0x0, symName: __ZN4pyo310conversion15IntoPyObjectExt17into_bound_py_any17h0a8cb609fd06a2bfE, symObjAddr: 0x0, symBinAddr: 0x29ED4, symSize: 0xAC }
  - { offset: 0xB6B1F, size: 0x8, addend: 0x0, symName: __ZN4pyo310conversion15IntoPyObjectExt17into_bound_py_any17hf03b73bc709881a0E, symObjAddr: 0xAC, symBinAddr: 0x29F80, symSize: 0xAC }
  - { offset: 0xB6BBF, size: 0x8, addend: 0x0, symName: '__ZN4pyo35types5tuple101_$LT$impl$u20$pyo3..conversion..IntoPyObject$u20$for$u20$$LP$T0$C$T1$C$T2$C$T3$C$T4$C$T5$C$T6$RP$$GT$13into_pyobject17h003cc43d409be166E', symObjAddr: 0x158, symBinAddr: 0x2A02C, symSize: 0x958 }
  - { offset: 0xB6DD5, size: 0x8, addend: 0x0, symName: '__ZN4pyo35types5tuple86_$LT$impl$u20$pyo3..conversion..IntoPyObject$u20$for$u20$$LP$T0$C$T1$C$T2$C$T3$RP$$GT$13into_pyobject17h94a6dfff64c72076E', symObjAddr: 0xAB0, symBinAddr: 0x2A984, symSize: 0x420 }
  - { offset: 0xB79A1, size: 0x8, addend: 0x0, symName: __ZN5alloc5slice4hack8into_vec17h9658d3c63d0ad335E, symObjAddr: 0x0, symBinAddr: 0x2ADB8, symSize: 0xB8 }
  - { offset: 0xB7D37, size: 0x8, addend: 0x0, symName: __ZN5alloc5slice4hack8into_vec17h9658d3c63d0ad335E, symObjAddr: 0x0, symBinAddr: 0x2ADB8, symSize: 0xB8 }
  - { offset: 0xB8113, size: 0x8, addend: 0x0, symName: '__ZN118_$LT$digest..core_api..ct_variable..CtVariableCoreWrapper$LT$T$C$OutSize$C$O$GT$$u20$as$u20$core..default..Default$GT$7default17h782b240b30b2129eE', symObjAddr: 0x0, symBinAddr: 0x2AE70, symSize: 0xAC }
  - { offset: 0xB814A, size: 0x8, addend: 0x0, symName: '__ZN118_$LT$digest..core_api..ct_variable..CtVariableCoreWrapper$LT$T$C$OutSize$C$O$GT$$u20$as$u20$core..default..Default$GT$7default17h782b240b30b2129eE', symObjAddr: 0x0, symBinAddr: 0x2AE70, symSize: 0xAC }
  - { offset: 0xB81BD, size: 0x8, addend: 0x0, symName: '__ZN124_$LT$digest..core_api..ct_variable..CtVariableCoreWrapper$LT$T$C$OutSize$C$O$GT$$u20$as$u20$digest..core_api..UpdateCore$GT$13update_blocks17h44d091a8a6d116baE', symObjAddr: 0xAC, symBinAddr: 0x2AF1C, symSize: 0x30 }
  - { offset: 0xB8214, size: 0x8, addend: 0x0, symName: '__ZN129_$LT$digest..core_api..ct_variable..CtVariableCoreWrapper$LT$T$C$OutSize$C$O$GT$$u20$as$u20$digest..core_api..FixedOutputCore$GT$19finalize_fixed_core17h1e1424c391b8e7feE', symObjAddr: 0xDC, symBinAddr: 0x2AF4C, symSize: 0x2E8 }
  - { offset: 0xB8F2D, size: 0x8, addend: 0x0, symName: '__ZN104_$LT$core..ops..index_range..IndexRange$u20$as$u20$core..slice..index..SliceIndex$LT$$u5b$T$u5d$$GT$$GT$17get_unchecked_mut17h86c249e87ed1a240E', symObjAddr: 0x0, symBinAddr: 0x2B234, symSize: 0xC8 }
  - { offset: 0xB9107, size: 0x8, addend: 0x0, symName: '__ZN104_$LT$core..ops..index_range..IndexRange$u20$as$u20$core..slice..index..SliceIndex$LT$$u5b$T$u5d$$GT$$GT$17get_unchecked_mut17h86c249e87ed1a240E', symObjAddr: 0x0, symBinAddr: 0x2B234, symSize: 0xC8 }
  - { offset: 0xB9302, size: 0x8, addend: 0x0, symName: '__ZN4core3num21_$LT$impl$u20$i64$GT$11to_be_bytes17hafcbb13ae446fdd3E', symObjAddr: 0x0, symBinAddr: 0x2B2FC, symSize: 0x2C }
  - { offset: 0xB9378, size: 0x8, addend: 0x0, symName: '__ZN4core3num21_$LT$impl$u20$i64$GT$11to_be_bytes17hafcbb13ae446fdd3E', symObjAddr: 0x0, symBinAddr: 0x2B2FC, symSize: 0x2C }
  - { offset: 0xB9478, size: 0x8, addend: 0x0, symName: '__ZN4core3num21_$LT$impl$u20$i64$GT$13from_be_bytes17heb419616432f65ebE', symObjAddr: 0x2C, symBinAddr: 0x2B328, symSize: 0x30 }
  - { offset: 0xB95BA, size: 0x8, addend: 0x0, symName: '__ZN4core3num21_$LT$impl$u20$u64$GT$11to_be_bytes17h96adcf914d1b251aE', symObjAddr: 0xB4, symBinAddr: 0x2B3B0, symSize: 0x28 }
  - { offset: 0xB969C, size: 0x8, addend: 0x0, symName: '__ZN4core3num21_$LT$impl$u20$u64$GT$13from_be_bytes17h65e4153c8e585eeaE', symObjAddr: 0xDC, symBinAddr: 0x2B3D8, symSize: 0x2C }
  - { offset: 0xB9742, size: 0x8, addend: 0x0, symName: '__ZN4core3num21_$LT$impl$u20$u64$GT$13from_le_bytes17hbae98e6644b7ef37E', symObjAddr: 0x108, symBinAddr: 0x2B404, symSize: 0x20 }
  - { offset: 0xB97EE, size: 0x8, addend: 0x0, symName: '__ZN4core3num21_$LT$impl$u20$u16$GT$13from_be_bytes17ha579f5825e9ab2c9E', symObjAddr: 0x5C, symBinAddr: 0x2B358, symSize: 0x30 }
  - { offset: 0xB98D6, size: 0x8, addend: 0x0, symName: '__ZN4core3num21_$LT$impl$u20$u32$GT$11to_be_bytes17h98f61c3a52673cceE', symObjAddr: 0x8C, symBinAddr: 0x2B388, symSize: 0x28 }
  - { offset: 0xB9987, size: 0x8, addend: 0x0, symName: '__ZN4core3num23_$LT$impl$u20$isize$GT$13unchecked_neg18precondition_check17hddaf7f8f8545cd57E', symObjAddr: 0x128, symBinAddr: 0x2B424, symSize: 0x4C }
  - { offset: 0xB9A1E, size: 0x8, addend: 0x0, symName: '__ZN4core3num23_$LT$impl$u20$usize$GT$13unchecked_add18precondition_check17h71fc9d09d26a984aE', symObjAddr: 0x174, symBinAddr: 0x2B470, symSize: 0x4C }
  - { offset: 0xB9AC5, size: 0x8, addend: 0x0, symName: '__ZN4core3num23_$LT$impl$u20$usize$GT$13unchecked_sub18precondition_check17h569fadd56b06337dE', symObjAddr: 0x1C0, symBinAddr: 0x2B4BC, symSize: 0x54 }
  - { offset: 0xB9BAC, size: 0x8, addend: 0x0, symName: '__ZN4core3num23_$LT$impl$u20$usize$GT$14saturating_mul17hc1dc80a192b5daa7E', symObjAddr: 0x214, symBinAddr: 0x2B510, symSize: 0x74 }
  - { offset: 0xB9DBE, size: 0x8, addend: 0x0, symName: __ZN9getrandom16getrandom_uninit17hc6670b3826cb22a8E, symObjAddr: 0x0, symBinAddr: 0x2B584, symSize: 0xA4 }
  - { offset: 0xB9DD0, size: 0x8, addend: 0x0, symName: __ZN9getrandom16getrandom_uninit17hc6670b3826cb22a8E, symObjAddr: 0x0, symBinAddr: 0x2B584, symSize: 0xA4 }
  - { offset: 0xB9E1B, size: 0x8, addend: 0x0, symName: __ZN9getrandom9getrandom17h1e8c6fec2e9cca30E, symObjAddr: 0xA4, symBinAddr: 0x2B628, symSize: 0x98 }
  - { offset: 0xBA13A, size: 0x8, addend: 0x0, symName: '__ZN104_$LT$core..ops..index_range..IndexRange$u20$as$u20$core..slice..index..SliceIndex$LT$$u5b$T$u5d$$GT$$GT$17get_unchecked_mut18precondition_check17h5013cbb55337889cE', symObjAddr: 0x0, symBinAddr: 0x2B6C0, symSize: 0x40 }
  - { offset: 0xBA160, size: 0x8, addend: 0x0, symName: '__ZN104_$LT$core..ops..index_range..IndexRange$u20$as$u20$core..slice..index..SliceIndex$LT$$u5b$T$u5d$$GT$$GT$17get_unchecked_mut18precondition_check17h5013cbb55337889cE', symObjAddr: 0x0, symBinAddr: 0x2B6C0, symSize: 0x40 }
  - { offset: 0xBA1A2, size: 0x8, addend: 0x0, symName: '__ZN106_$LT$core..ops..range..Range$LT$usize$GT$$u20$as$u20$core..slice..index..SliceIndex$LT$$u5b$T$u5d$$GT$$GT$17get_unchecked_mut18precondition_check17hee908bb55148bfecE', symObjAddr: 0x40, symBinAddr: 0x2B700, symSize: 0x60 }
  - { offset: 0xBA1F2, size: 0x8, addend: 0x0, symName: '__ZN75_$LT$usize$u20$as$u20$core..slice..index..SliceIndex$LT$$u5b$T$u5d$$GT$$GT$13get_unchecked18precondition_check17h706ea0c14ab06d02E', symObjAddr: 0xA0, symBinAddr: 0x2B760, symSize: 0x40 }
  - { offset: 0xBA252, size: 0x8, addend: 0x0, symName: __ZN4core5slice3raw14from_raw_parts18precondition_check17h82b7ad28ef545a99E, symObjAddr: 0x0, symBinAddr: 0x2B7A0, symSize: 0x164 }
  - { offset: 0xBA86F, size: 0x8, addend: 0x0, symName: __ZN4core5slice3raw14from_raw_parts18precondition_check17h82b7ad28ef545a99E, symObjAddr: 0x0, symBinAddr: 0x2B7A0, symSize: 0x164 }
  - { offset: 0xBA9C9, size: 0x8, addend: 0x0, symName: __ZN4core5slice3raw18from_raw_parts_mut18precondition_check17h40f0292457752227E, symObjAddr: 0x164, symBinAddr: 0x2B904, symSize: 0x164 }
  - { offset: 0xBACEE, size: 0x8, addend: 0x0, symName: '__ZN47_$LT$str$u20$as$u20$alloc..string..ToString$GT$9to_string17h5523b1168c796c0bE', symObjAddr: 0x0, symBinAddr: 0x2BA68, symSize: 0x50 }
  - { offset: 0xBAFC4, size: 0x8, addend: 0x0, symName: '__ZN47_$LT$str$u20$as$u20$alloc..string..ToString$GT$9to_string17h5523b1168c796c0bE', symObjAddr: 0x0, symBinAddr: 0x2BA68, symSize: 0x50 }
  - { offset: 0xBB134, size: 0x8, addend: 0x0, symName: '__ZN65_$LT$alloc..string..String$u20$as$u20$core..ops..deref..Deref$GT$5deref17hc6c5340e038b19ffE', symObjAddr: 0x4E0, symBinAddr: 0x2BDC8, symSize: 0x24 }
  - { offset: 0xBB168, size: 0x8, addend: 0x0, symName: '__ZN60_$LT$alloc..string..String$u20$as$u20$core..fmt..Display$GT$3fmt17h570887e6b31df6b9E', symObjAddr: 0x3C0, symBinAddr: 0x2BCA8, symSize: 0x98 }
  - { offset: 0xBB347, size: 0x8, addend: 0x0, symName: '__ZN65_$LT$alloc..string..FromUtf8Error$u20$as$u20$core..fmt..Debug$GT$3fmt17h730c7e851adb3047E', symObjAddr: 0x458, symBinAddr: 0x2BD40, symSize: 0x88 }
  - { offset: 0xBBBA8, size: 0x8, addend: 0x0, symName: __ZN5alloc6string6String6as_str17h2c0cd61ce55015c0E, symObjAddr: 0x1D0, symBinAddr: 0x2BAB8, symSize: 0x88 }
  - { offset: 0xBBE51, size: 0x8, addend: 0x0, symName: __ZN5alloc6string6String9from_utf817h8c03c854a4b98bb3E, symObjAddr: 0x258, symBinAddr: 0x2BB40, symSize: 0x168 }
  - { offset: 0xBC186, size: 0x8, addend: 0x0, symName: '__ZN4core3str6traits66_$LT$impl$u20$core..ops..index..Index$LT$I$GT$$u20$for$u20$str$GT$5index17h524181fc47895a1aE', symObjAddr: 0x0, symBinAddr: 0x2BDEC, symSize: 0x44 }
  - { offset: 0xBC1A7, size: 0x8, addend: 0x0, symName: '__ZN4core3str6traits66_$LT$impl$u20$core..ops..index..Index$LT$I$GT$$u20$for$u20$str$GT$5index17h524181fc47895a1aE', symObjAddr: 0x0, symBinAddr: 0x2BDEC, symSize: 0x44 }
  - { offset: 0xBC1EA, size: 0x8, addend: 0x0, symName: '__ZN4core3str6traits66_$LT$impl$u20$core..ops..index..Index$LT$I$GT$$u20$for$u20$str$GT$5index17hdc853ae1f4754711E', symObjAddr: 0x44, symBinAddr: 0x2BE30, symSize: 0x44 }
  - { offset: 0xBC2CC, size: 0x8, addend: 0x0, symName: '__ZN4core5slice29_$LT$impl$u20$$u5b$T$u5d$$GT$22split_at_mut_unchecked18precondition_check17ha1d3578fe80b948eE', symObjAddr: 0x0, symBinAddr: 0x2BE74, symSize: 0x40 }
  - { offset: 0xBC2ED, size: 0x8, addend: 0x0, symName: '__ZN4core5slice29_$LT$impl$u20$$u5b$T$u5d$$GT$22split_at_mut_unchecked18precondition_check17ha1d3578fe80b948eE', symObjAddr: 0x0, symBinAddr: 0x2BE74, symSize: 0x40 }
  - { offset: 0xBC34C, size: 0x8, addend: 0x0, symName: __ZN4core4hint16assert_unchecked18precondition_check17hed84a2b2110467d3E, symObjAddr: 0x0, symBinAddr: 0x2BEB4, symSize: 0x38 }
  - { offset: 0xBC368, size: 0x8, addend: 0x0, symName: __ZN4core4hint16assert_unchecked18precondition_check17hed84a2b2110467d3E, symObjAddr: 0x0, symBinAddr: 0x2BEB4, symSize: 0x38 }
  - { offset: 0xBC396, size: 0x8, addend: 0x0, symName: __ZN4core4hint21unreachable_unchecked18precondition_check17hb5791dc7ade0a4a8E, symObjAddr: 0x38, symBinAddr: 0x2BEEC, symSize: 0x1C }
  - { offset: 0xBC3D7, size: 0x8, addend: 0x0, symName: '__ZN78_$LT$sha2..core_api..Sha256VarCore$u20$as$u20$digest..core_api..UpdateCore$GT$13update_blocks17h87c0e1c224ad1540E', symObjAddr: 0x0, symBinAddr: 0x2BF08, symSize: 0x70 }
  - { offset: 0xBC3F3, size: 0x8, addend: 0x0, symName: '__ZN78_$LT$sha2..core_api..Sha256VarCore$u20$as$u20$digest..core_api..UpdateCore$GT$13update_blocks17h87c0e1c224ad1540E', symObjAddr: 0x0, symBinAddr: 0x2BF08, symSize: 0x70 }
  - { offset: 0xBC42F, size: 0x8, addend: 0x0, symName: '__ZN86_$LT$sha2..core_api..Sha256VarCore$u20$as$u20$digest..core_api..VariableOutputCore$GT$22finalize_variable_core17h7ce9f9ae7364f4c8E', symObjAddr: 0x70, symBinAddr: 0x2BF78, symSize: 0x22C }
  - { offset: 0xBC536, size: 0x8, addend: 0x0, symName: '__ZN86_$LT$sha2..core_api..Sha256VarCore$u20$as$u20$digest..core_api..VariableOutputCore$GT$3new17ha8968df1908ea354E', symObjAddr: 0x29C, symBinAddr: 0x2C1A4, symSize: 0xD4 }
  - { offset: 0xBCD46, size: 0x8, addend: 0x0, symName: '__ZN13generic_array5impls93_$LT$impl$u20$core..default..Default$u20$for$u20$generic_array..GenericArray$LT$T$C$N$GT$$GT$7default28_$u7b$$u7b$closure$u7d$$u7d$17h01d8ffd0b386bd5bE', symObjAddr: 0x0, symBinAddr: 0x2C278, symSize: 0x18 }
  - { offset: 0xBCD67, size: 0x8, addend: 0x0, symName: '__ZN13generic_array5impls93_$LT$impl$u20$core..default..Default$u20$for$u20$generic_array..GenericArray$LT$T$C$N$GT$$GT$7default28_$u7b$$u7b$closure$u7d$$u7d$17h01d8ffd0b386bd5bE', symObjAddr: 0x0, symBinAddr: 0x2C278, symSize: 0x18 }
  - { offset: 0xBCDAB, size: 0x8, addend: 0x0, symName: '__ZN13generic_array5impls93_$LT$impl$u20$core..default..Default$u20$for$u20$generic_array..GenericArray$LT$T$C$N$GT$$GT$7default28_$u7b$$u7b$closure$u7d$$u7d$17h36cc6651d20ac2d9E', symObjAddr: 0x18, symBinAddr: 0x2C290, symSize: 0x18 }
  - { offset: 0xBCFD6, size: 0x8, addend: 0x0, symName: '__ZN63_$LT$I$u20$as$u20$core..iter..traits..collect..IntoIterator$GT$9into_iter17h07e7a6f53a212ca5E', symObjAddr: 0x0, symBinAddr: 0x2C2A8, symSize: 0x1C }
  - { offset: 0xBCFFC, size: 0x8, addend: 0x0, symName: '__ZN63_$LT$I$u20$as$u20$core..iter..traits..collect..IntoIterator$GT$9into_iter17h07e7a6f53a212ca5E', symObjAddr: 0x0, symBinAddr: 0x2C2A8, symSize: 0x1C }
  - { offset: 0xBD045, size: 0x8, addend: 0x0, symName: '__ZN98_$LT$core..iter..adapters..rev..Rev$LT$I$GT$$u20$as$u20$core..iter..traits..iterator..Iterator$GT$4next17haa68c8424cc3be01E', symObjAddr: 0x1C, symBinAddr: 0x2C2C4, symSize: 0x24 }
  - { offset: 0xBE846, size: 0x8, addend: 0x0, symName: '__ZN9snid_core9GENERATOR29_$u7b$$u7b$constant$u7d$$u7d$28_$u7b$$u7b$closure$u7d$$u7d$3VAL17h0e3239fb461d1c59E', symObjAddr: 0x7C26, symBinAddr: 0x114888, symSize: 0x0 }
  - { offset: 0xBE856, size: 0x8, addend: 0x0, symName: __ZN9snid_core9GENERATOR6__init17hd6427ff0fcbadd91E, symObjAddr: 0x5D0C, symBinAddr: 0x30E30, symSize: 0x34 }
  - { offset: 0xBEC85, size: 0x8, addend: 0x0, symName: __ZN9snid_core15current_time_ms17h30aeeeeb816c60b7E, symObjAddr: 0x2528, symBinAddr: 0x2E4D4, symSize: 0x74 }
  - { offset: 0xBECA3, size: 0x8, addend: 0x0, symName: __ZN9snid_core10splitmix6417h8fa25a9a8720acdcE, symObjAddr: 0x259C, symBinAddr: 0x2E548, symSize: 0xA4 }
  - { offset: 0xBED61, size: 0x8, addend: 0x0, symName: __ZN9snid_core20expand_hash_material17h18fdd74c35a1b624E, symObjAddr: 0x2640, symBinAddr: 0x2E5EC, symSize: 0x150 }
  - { offset: 0xBF117, size: 0x8, addend: 0x0, symName: __ZN9snid_core4crc817hf570f2a221639532E, symObjAddr: 0x4BE0, symBinAddr: 0x2FD04, symSize: 0xF4 }
  - { offset: 0xBF186, size: 0x8, addend: 0x0, symName: __ZN9snid_core14encode_payload17h965e504451c7d45bE, symObjAddr: 0x4CD4, symBinAddr: 0x2FDF8, symSize: 0x688 }
  - { offset: 0xBF368, size: 0x8, addend: 0x0, symName: __ZN9snid_core14decode_payload17h82766cd1b1bb046aE, symObjAddr: 0x535C, symBinAddr: 0x30480, symSize: 0x3B4 }
  - { offset: 0xBF4AB, size: 0x8, addend: 0x0, symName: __ZN9snid_core19encode_fixed64_pair17h9622b68da7de525fE, symObjAddr: 0x5710, symBinAddr: 0x30834, symSize: 0xF4 }
  - { offset: 0xBF505, size: 0x8, addend: 0x0, symName: __ZN9snid_core19decode_fixed64_pair17h332330f73e6c150aE, symObjAddr: 0x5804, symBinAddr: 0x30928, symSize: 0x2AC }
  - { offset: 0xBF7C1, size: 0x8, addend: 0x0, symName: __ZN9snid_core10split_wire17hf6b273c45872622cE, symObjAddr: 0x5AB0, symBinAddr: 0x30BD4, symSize: 0x25C }
  - { offset: 0xBF838, size: 0x8, addend: 0x0, symName: '__ZN55_$LT$snid_core..Kid$u20$as$u20$core..cmp..PartialEq$GT$2eq17hffe5f16bda2f3c8fE', symObjAddr: 0x5D40, symBinAddr: 0x30E64, symSize: 0x2C }
  - { offset: 0xBFCFF, size: 0x8, addend: 0x0, symName: __ZN9snid_core4Snid8new_fast17h03dffe3e1d918408E, symObjAddr: 0x118, symBinAddr: 0x2C2E8, symSize: 0x1C }
  - { offset: 0xBFD12, size: 0x8, addend: 0x0, symName: __ZN9snid_core4Snid10from_bytes17hceb8bf65e74649eaE, symObjAddr: 0x134, symBinAddr: 0x2C304, symSize: 0xC }
  - { offset: 0xBFD34, size: 0x8, addend: 0x0, symName: __ZN9snid_core4Snid8to_bytes17hfce00c738006a3ccE, symObjAddr: 0x140, symBinAddr: 0x2C310, symSize: 0xC }
  - { offset: 0xC0132, size: 0x8, addend: 0x0, symName: __ZN9snid_core4Snid14canonical_atom17ha217096ca7a465f8E, symObjAddr: 0x2D8, symBinAddr: 0x2C31C, symSize: 0x780 }
  - { offset: 0xC01CC, size: 0x8, addend: 0x0, symName: __ZN9snid_core4Snid7to_wire17he4aa2e265b130276E, symObjAddr: 0xA58, symBinAddr: 0x2CA9C, symSize: 0x210 }
  - { offset: 0xC0381, size: 0x8, addend: 0x0, symName: __ZN9snid_core4Snid10parse_wire17h255927cdac573c69E, symObjAddr: 0xC68, symBinAddr: 0x2CCAC, symSize: 0x210 }
  - { offset: 0xC046A, size: 0x8, addend: 0x0, symName: __ZN9snid_core4Snid16timestamp_millis17h4e5adc46ca3f3a17E, symObjAddr: 0xE78, symBinAddr: 0x2CEBC, symSize: 0x74 }
  - { offset: 0xC0522, size: 0x8, addend: 0x0, symName: __ZN9snid_core4Snid15to_tensor_words17h6fcafadff087e047E, symObjAddr: 0xEEC, symBinAddr: 0x2CF30, symSize: 0x170 }
  - { offset: 0xC05AC, size: 0x8, addend: 0x0, symName: __ZN9snid_core4Snid8sequence17h997ac867661387f0E, symObjAddr: 0x105C, symBinAddr: 0x2D0A0, symSize: 0x188 }
  - { offset: 0xC0670, size: 0x8, addend: 0x0, symName: __ZN9snid_core4Snid16machine_or_shard17h00cc9c58447595c6E, symObjAddr: 0x11E4, symBinAddr: 0x2D228, symSize: 0xBC }
  - { offset: 0xC06C6, size: 0x8, addend: 0x0, symName: __ZN9snid_core4Snid13to_llm_format17h38d19ca8b25b2f20E, symObjAddr: 0x12A0, symBinAddr: 0x2D2E4, symSize: 0x168 }
  - { offset: 0xC0733, size: 0x8, addend: 0x0, symName: __ZN9snid_core4Snid16to_llm_format_v217h9e5bccb926a3483dE, symObjAddr: 0x1408, symBinAddr: 0x2D44C, symSize: 0x3A4 }
  - { offset: 0xC07AF, size: 0x8, addend: 0x0, symName: __ZN9snid_core4Snid8time_bin17h4a82db54e6989507E, symObjAddr: 0x17AC, symBinAddr: 0x2D7F0, symSize: 0xDC }
  - { offset: 0xC07F5, size: 0x8, addend: 0x0, symName: __ZN9snid_core4Snid10is_ghosted17hbf4f8431a6d89fa5E, symObjAddr: 0x1888, symBinAddr: 0x2D8CC, symSize: 0xB8 }
  - { offset: 0xC084B, size: 0x8, addend: 0x0, symName: __ZN9snid_core4Snid14with_ghost_bit17h22a9e1cac1044263E, symObjAddr: 0x1940, symBinAddr: 0x2D984, symSize: 0x158 }
  - { offset: 0xC08EB, size: 0x8, addend: 0x0, symName: __ZN9snid_core4Snid24from_hash_with_timestamp17h46ae90b7445ae9c6E, symObjAddr: 0x1A98, symBinAddr: 0x2DADC, symSize: 0x1F8 }
  - { offset: 0xC09E6, size: 0x8, addend: 0x0, symName: __ZN9snid_core4Snid7h3_cell17h54d8d4f750ca83b3E, symObjAddr: 0x1C90, symBinAddr: 0x2DCD4, symSize: 0xFC }
  - { offset: 0xC0A27, size: 0x8, addend: 0x0, symName: __ZN9snid_core4Snid18from_spatial_parts17h6e38c9ac4cd4b6d4E, symObjAddr: 0x1D8C, symBinAddr: 0x2DDD0, symSize: 0x160 }
  - { offset: 0xC0A94, size: 0x8, addend: 0x0, symName: __ZN9snid_core4Snid17h3_feature_vector17hbe6da9e97491e702E, symObjAddr: 0x1EEC, symBinAddr: 0x2DF30, symSize: 0x44 }
  - { offset: 0xC0AB8, size: 0x8, addend: 0x0, symName: __ZN9snid_core4Snid21generate_binary_batch17h4a0e44143ef4a877E, symObjAddr: 0x1F30, symBinAddr: 0x2DF74, symSize: 0x98 }
  - { offset: 0xC0AF1, size: 0x8, addend: 0x0, symName: __ZN9snid_core4Snid30generate_tensor_batch_be_bytes17hfaef48a95473327eE, symObjAddr: 0x2060, symBinAddr: 0x2E00C, symSize: 0x98 }
  - { offset: 0xC0B2A, size: 0x8, addend: 0x0, symName: __ZN9snid_core14GeneratorState4init17h299c9e536f910754E, symObjAddr: 0x20F8, symBinAddr: 0x2E0A4, symSize: 0x134 }
  - { offset: 0xC0BC1, size: 0x8, addend: 0x0, symName: __ZN9snid_core14GeneratorState4next17h213cc9bc0d2f5bb7E, symObjAddr: 0x222C, symBinAddr: 0x2E1D8, symSize: 0x2FC }
  - { offset: 0xC0D85, size: 0x8, addend: 0x0, symName: __ZN9snid_core3Nid10from_parts17he3e67b1cff2e74fcE, symObjAddr: 0x2790, symBinAddr: 0x2E73C, symSize: 0xB0 }
  - { offset: 0xC1470, size: 0x8, addend: 0x0, symName: __ZN9snid_core3Lid10from_parts17h3d37ffc37e569821E, symObjAddr: 0x2E78, symBinAddr: 0x2E7EC, symSize: 0x30C }
  - { offset: 0xC16C6, size: 0x8, addend: 0x0, symName: __ZN9snid_core3Wid10from_parts17h8fb3fd08d9e786acE, symObjAddr: 0x3508, symBinAddr: 0x2EAF8, symSize: 0xB0 }
  - { offset: 0xC1724, size: 0x8, addend: 0x0, symName: __ZN9snid_core3Wid18to_tensor256_words17hea2e44c7f8699c71E, symObjAddr: 0x3634, symBinAddr: 0x2EBA8, symSize: 0x308 }
  - { offset: 0xC181F, size: 0x8, addend: 0x0, symName: __ZN9snid_core3Xid10from_parts17hb2c583d92837a93dE, symObjAddr: 0x393C, symBinAddr: 0x2EEB0, symSize: 0xB0 }
  - { offset: 0xC187D, size: 0x8, addend: 0x0, symName: __ZN9snid_core3Xid18to_tensor256_words17h8f3ac5617c164cf6E, symObjAddr: 0x3A68, symBinAddr: 0x2EF60, symSize: 0x308 }
  - { offset: 0xC1978, size: 0x8, addend: 0x0, symName: __ZN9snid_core3Kid10from_parts17h93e124a2def7901dE, symObjAddr: 0x3D70, symBinAddr: 0x2F268, symSize: 0x32C }
  - { offset: 0xC1BFC, size: 0x8, addend: 0x0, symName: __ZN9snid_core3Kid4head17h36b1527d3e122057E, symObjAddr: 0x409C, symBinAddr: 0x2F594, symSize: 0x7C }
  - { offset: 0xC1C3C, size: 0x8, addend: 0x0, symName: __ZN9snid_core3Kid6verify17he1f00a7d31a05dffE, symObjAddr: 0x4118, symBinAddr: 0x2F610, symSize: 0xC8 }
  - { offset: 0xC1C9E, size: 0x8, addend: 0x0, symName: __ZN9snid_core3Kid18to_tensor256_words17hd8a9d5d9f223d207E, symObjAddr: 0x41E0, symBinAddr: 0x2F6D8, symSize: 0x308 }
  - { offset: 0xC1D99, size: 0x8, addend: 0x0, symName: __ZN9snid_core3Eid10from_parts17h5f1048dcf140003cE, symObjAddr: 0x44E8, symBinAddr: 0x2F9E0, symSize: 0x20 }
  - { offset: 0xC1DCB, size: 0x8, addend: 0x0, symName: __ZN9snid_core3Eid8to_bytes17h7e04ca2c8ab1c54aE, symObjAddr: 0x4508, symBinAddr: 0x2FA00, symSize: 0x30 }
  - { offset: 0xC1DEE, size: 0x8, addend: 0x0, symName: __ZN9snid_core3Eid7counter17h189922315580c516E, symObjAddr: 0x4538, symBinAddr: 0x2FA30, symSize: 0x10 }
  - { offset: 0xC1E11, size: 0x8, addend: 0x0, symName: __ZN9snid_core3Eid16timestamp_millis17hd83392891c79a26cE, symObjAddr: 0x4548, symBinAddr: 0x2FA40, symSize: 0x14 }
  - { offset: 0xC1E34, size: 0x8, addend: 0x0, symName: __ZN9snid_core3Bid10from_parts17habd78459a2f3e9d7E, symObjAddr: 0x455C, symBinAddr: 0x2FA54, symSize: 0x1C }
  - { offset: 0xC1E66, size: 0x8, addend: 0x0, symName: __ZN9snid_core3Bid4wire17h467598c6522e7472E, symObjAddr: 0x4578, symBinAddr: 0x2FA70, symSize: 0x1F4 }
  - { offset: 0xC1FA2, size: 0x8, addend: 0x0, symName: __ZN9snid_core3Bid6r2_key17hbb04f9c86c628963E, symObjAddr: 0x4B40, symBinAddr: 0x2FC64, symSize: 0xA0 }
  - { offset: 0xC20C3, size: 0x8, addend: 0x0, symName: __ZN4core5alloc6layout6Layout25from_size_align_unchecked18precondition_check17h3dd4f75e09e69bc8E, symObjAddr: 0x0, symBinAddr: 0x30E90, symSize: 0x50 }
  - { offset: 0xC20E9, size: 0x8, addend: 0x0, symName: __ZN4core5alloc6layout6Layout25from_size_align_unchecked18precondition_check17h3dd4f75e09e69bc8E, symObjAddr: 0x0, symBinAddr: 0x30E90, symSize: 0x50 }
  - { offset: 0xC2149, size: 0x8, addend: 0x0, symName: '__ZN5alloc5slice29_$LT$impl$u20$$u5b$T$u5d$$GT$6to_vec17h172b647c5dd84eb3E', symObjAddr: 0x0, symBinAddr: 0x30EE0, symSize: 0x28 }
  - { offset: 0xC21E0, size: 0x8, addend: 0x0, symName: '__ZN5alloc5slice29_$LT$impl$u20$$u5b$T$u5d$$GT$6to_vec17h172b647c5dd84eb3E', symObjAddr: 0x0, symBinAddr: 0x30EE0, symSize: 0x28 }
  - { offset: 0xC2263, size: 0x8, addend: 0x0, symName: '__ZN5alloc5slice29_$LT$impl$u20$$u5b$T$u5d$$GT$8into_vec17h981d35745d9a60e5E', symObjAddr: 0x28, symBinAddr: 0x30F08, symSize: 0x28 }
  - { offset: 0xC24EF, size: 0x8, addend: 0x0, symName: __ZN5alloc5alloc12alloc_zeroed17hd84f425f80ab758aE, symObjAddr: 0x0, symBinAddr: 0x30F30, symSize: 0x80 }
  - { offset: 0xC2EA9, size: 0x8, addend: 0x0, symName: __ZN5alloc5alloc12alloc_zeroed17hd84f425f80ab758aE, symObjAddr: 0x0, symBinAddr: 0x30F30, symSize: 0x80 }
  - { offset: 0xC2F9F, size: 0x8, addend: 0x0, symName: __ZN5alloc5alloc15exchange_malloc17h6d42a8e202e15805E, symObjAddr: 0x80, symBinAddr: 0x30FB0, symSize: 0xA8 }
  - { offset: 0xC30AE, size: 0x8, addend: 0x0, symName: __ZN5alloc5alloc5alloc17h48972ec866676a67E, symObjAddr: 0x128, symBinAddr: 0x31058, symSize: 0x80 }
  - { offset: 0xC3390, size: 0x8, addend: 0x0, symName: __ZN5alloc5alloc6Global10alloc_impl17h438d58554fce7891E, symObjAddr: 0x1A8, symBinAddr: 0x310D8, symSize: 0x1BC }
  - { offset: 0xC3753, size: 0x8, addend: 0x0, symName: '__ZN4core5array8equality103_$LT$impl$u20$core..cmp..PartialEq$LT$$u5b$U$u3b$$u20$N$u5d$$GT$$u20$for$u20$$u5b$T$u3b$$u20$N$u5d$$GT$2eq17h61dc7c8ae772a76eE', symObjAddr: 0x0, symBinAddr: 0x31294, symSize: 0x2C }
  - { offset: 0xC3774, size: 0x8, addend: 0x0, symName: '__ZN4core5array8equality103_$LT$impl$u20$core..cmp..PartialEq$LT$$u5b$U$u3b$$u20$N$u5d$$GT$$u20$for$u20$$u5b$T$u3b$$u20$N$u5d$$GT$2eq17h61dc7c8ae772a76eE', symObjAddr: 0x0, symBinAddr: 0x31294, symSize: 0x2C }
  - { offset: 0xC37C6, size: 0x8, addend: 0x0, symName: '__ZN69_$LT$T$u20$as$u20$core..array..equality..SpecArrayEq$LT$U$C$_$GT$$GT$7spec_eq17h43524148ea12e263E', symObjAddr: 0x2C, symBinAddr: 0x312C0, symSize: 0x48 }
  - { offset: 0xC3863, size: 0x8, addend: 0x0, symName: '__ZN4core4cell16RefCell$LT$T$GT$10borrow_mut17h3dbf9c00c8648746E', symObjAddr: 0x0, symBinAddr: 0x31308, symSize: 0x60 }
  - { offset: 0xC3ACC, size: 0x8, addend: 0x0, symName: '__ZN74_$LT$core..cell..RefMut$LT$T$GT$$u20$as$u20$core..ops..deref..DerefMut$GT$9deref_mut17h1ced41856602057dE', symObjAddr: 0x194, symBinAddr: 0x3149C, symSize: 0x24 }
  - { offset: 0xC3E59, size: 0x8, addend: 0x0, symName: '__ZN4core4cell16RefCell$LT$T$GT$10borrow_mut17h3dbf9c00c8648746E', symObjAddr: 0x0, symBinAddr: 0x31308, symSize: 0x60 }
  - { offset: 0xC3FAA, size: 0x8, addend: 0x0, symName: '__ZN4core4cell16RefCell$LT$T$GT$14try_borrow_mut17h3f03dc7df6e82b67E', symObjAddr: 0x60, symBinAddr: 0x31368, symSize: 0xDC }
  - { offset: 0xC4191, size: 0x8, addend: 0x0, symName: '__ZN4core4cell16RefCell$LT$T$GT$3new17h8e1578f1bb41bda4E', symObjAddr: 0x13C, symBinAddr: 0x31444, symSize: 0x58 }
  - { offset: 0xC426D, size: 0x8, addend: 0x0, symName: '__ZN86_$LT$sha2..core_api..Sha256VarCore$u20$as$u20$digest..core_api..VariableOutputCore$GT$22finalize_variable_core28_$u7b$$u7b$closure$u7d$$u7d$17hac51d77a9ff9ef76E', symObjAddr: 0x0, symBinAddr: 0x314C0, symSize: 0x58 }
  - { offset: 0xC428E, size: 0x8, addend: 0x0, symName: '__ZN86_$LT$sha2..core_api..Sha256VarCore$u20$as$u20$digest..core_api..VariableOutputCore$GT$22finalize_variable_core28_$u7b$$u7b$closure$u7d$$u7d$17hac51d77a9ff9ef76E', symObjAddr: 0x0, symBinAddr: 0x314C0, symSize: 0x58 }
  - { offset: 0xC46ED, size: 0x8, addend: 0x0, symName: __ZN4core4time8Duration9as_millis17h663b3aa3808eff0eE, symObjAddr: 0x0, symBinAddr: 0x31518, symSize: 0x5C }
  - { offset: 0xC4774, size: 0x8, addend: 0x0, symName: __ZN4core4time8Duration9as_millis17h663b3aa3808eff0eE, symObjAddr: 0x0, symBinAddr: 0x31518, symSize: 0x5C }
  - { offset: 0xC47B5, size: 0x8, addend: 0x0, symName: '__ZN4core3cmp5impls55_$LT$impl$u20$core..cmp..PartialEq$u20$for$u20$char$GT$2eq17ha43c463b9446a604E', symObjAddr: 0x0, symBinAddr: 0x31574, symSize: 0x2C }
  - { offset: 0xC47D6, size: 0x8, addend: 0x0, symName: '__ZN4core3cmp5impls55_$LT$impl$u20$core..cmp..PartialEq$u20$for$u20$char$GT$2eq17ha43c463b9446a604E', symObjAddr: 0x0, symBinAddr: 0x31574, symSize: 0x2C }
  - { offset: 0xC4850, size: 0x8, addend: 0x0, symName: __ZN4core3ptr13read_volatile18precondition_check17h5701ed22a7f530e0E, symObjAddr: 0x0, symBinAddr: 0x315A0, symSize: 0xEC }
  - { offset: 0xC4C86, size: 0x8, addend: 0x0, symName: __ZN4core3ptr13read_volatile18precondition_check17h5701ed22a7f530e0E, symObjAddr: 0x0, symBinAddr: 0x315A0, symSize: 0xEC }
  - { offset: 0xC4D91, size: 0x8, addend: 0x0, symName: __ZN4core3ptr7replace18precondition_check17h208d07a7afefe9c7E, symObjAddr: 0xEC, symBinAddr: 0x3168C, symSize: 0xEC }
  - { offset: 0xC51CB, size: 0x8, addend: 0x0, symName: __ZN5alloc3fmt6format17h3220923497f20ddcE, symObjAddr: 0x0, symBinAddr: 0x31778, symSize: 0xD4 }
  - { offset: 0xC57E6, size: 0x8, addend: 0x0, symName: __ZN5alloc3fmt6format17h3220923497f20ddcE, symObjAddr: 0x0, symBinAddr: 0x31778, symSize: 0xD4 }
  - { offset: 0xC5954, size: 0x8, addend: 0x0, symName: '__ZN81_$LT$core..str..iter..Bytes$u20$as$u20$core..iter..traits..iterator..Iterator$GT$4next17h3f96ede2765696faE', symObjAddr: 0x0, symBinAddr: 0x3184C, symSize: 0x90 }
  - { offset: 0xC5C41, size: 0x8, addend: 0x0, symName: '__ZN81_$LT$core..str..iter..Bytes$u20$as$u20$core..iter..traits..iterator..Iterator$GT$4next17h3f96ede2765696faE', symObjAddr: 0x0, symBinAddr: 0x3184C, symSize: 0x90 }
  - { offset: 0xC5CEF, size: 0x8, addend: 0x0, symName: '__ZN81_$LT$core..str..iter..Chars$u20$as$u20$core..iter..traits..iterator..Iterator$GT$4next17h9545b1808ac40991E', symObjAddr: 0x90, symBinAddr: 0x318DC, symSize: 0x70 }
  - { offset: 0xC6236, size: 0x8, addend: 0x0, symName: '__ZN153_$LT$core..result..Result$LT$T$C$F$GT$$u20$as$u20$core..ops..try_trait..FromResidual$LT$core..result..Result$LT$core..convert..Infallible$C$E$GT$$GT$$GT$13from_residual17h1e8cd2dfa7b9ab29E', symObjAddr: 0x5C, symBinAddr: 0x3194C, symSize: 0x30 }
  - { offset: 0xC62BB, size: 0x8, addend: 0x0, symName: '__ZN153_$LT$core..result..Result$LT$T$C$F$GT$$u20$as$u20$core..ops..try_trait..FromResidual$LT$core..result..Result$LT$core..convert..Infallible$C$E$GT$$GT$$GT$13from_residual17h30f6c2e981fa7f35E', symObjAddr: 0x8C, symBinAddr: 0x3197C, symSize: 0x30 }
  - { offset: 0xC6340, size: 0x8, addend: 0x0, symName: '__ZN153_$LT$core..result..Result$LT$T$C$F$GT$$u20$as$u20$core..ops..try_trait..FromResidual$LT$core..result..Result$LT$core..convert..Infallible$C$E$GT$$GT$$GT$13from_residual17h3631ffff4ca69800E', symObjAddr: 0xBC, symBinAddr: 0x319AC, symSize: 0x24 }
  - { offset: 0xC63A6, size: 0x8, addend: 0x0, symName: '__ZN153_$LT$core..result..Result$LT$T$C$F$GT$$u20$as$u20$core..ops..try_trait..FromResidual$LT$core..result..Result$LT$core..convert..Infallible$C$E$GT$$GT$$GT$13from_residual17h78133e8ae6294bbeE', symObjAddr: 0x154, symBinAddr: 0x319D0, symSize: 0x30 }
  - { offset: 0xC642B, size: 0x8, addend: 0x0, symName: '__ZN153_$LT$core..result..Result$LT$T$C$F$GT$$u20$as$u20$core..ops..try_trait..FromResidual$LT$core..result..Result$LT$core..convert..Infallible$C$E$GT$$GT$$GT$13from_residual17hb448e58d7b8e1253E', symObjAddr: 0x1D8, symBinAddr: 0x31A00, symSize: 0x30 }
  - { offset: 0xC64B0, size: 0x8, addend: 0x0, symName: '__ZN153_$LT$core..result..Result$LT$T$C$F$GT$$u20$as$u20$core..ops..try_trait..FromResidual$LT$core..result..Result$LT$core..convert..Infallible$C$E$GT$$GT$$GT$13from_residual17hb594d9bd7b1fec9dE', symObjAddr: 0x208, symBinAddr: 0x31A30, symSize: 0x30 }
  - { offset: 0xC6535, size: 0x8, addend: 0x0, symName: '__ZN153_$LT$core..result..Result$LT$T$C$F$GT$$u20$as$u20$core..ops..try_trait..FromResidual$LT$core..result..Result$LT$core..convert..Infallible$C$E$GT$$GT$$GT$13from_residual17hb6ff46fead66f03dE', symObjAddr: 0x238, symBinAddr: 0x31A60, symSize: 0x18 }
  - { offset: 0xC659B, size: 0x8, addend: 0x0, symName: '__ZN153_$LT$core..result..Result$LT$T$C$F$GT$$u20$as$u20$core..ops..try_trait..FromResidual$LT$core..result..Result$LT$core..convert..Infallible$C$E$GT$$GT$$GT$13from_residual17hd350d5f353484814E', symObjAddr: 0x250, symBinAddr: 0x31A78, symSize: 0x30 }
  - { offset: 0xC6620, size: 0x8, addend: 0x0, symName: '__ZN153_$LT$core..result..Result$LT$T$C$F$GT$$u20$as$u20$core..ops..try_trait..FromResidual$LT$core..result..Result$LT$core..convert..Infallible$C$E$GT$$GT$$GT$13from_residual17hfc536be8b9c0f861E', symObjAddr: 0x280, symBinAddr: 0x31AA8, symSize: 0x30 }
  - { offset: 0xC6C53, size: 0x8, addend: 0x0, symName: '__ZN79_$LT$core..result..Result$LT$T$C$E$GT$$u20$as$u20$core..ops..try_trait..Try$GT$6branch17h33f141a18917fe33E', symObjAddr: 0x79C, symBinAddr: 0x31F40, symSize: 0xA4 }
  - { offset: 0xC6CD0, size: 0x8, addend: 0x0, symName: '__ZN79_$LT$core..result..Result$LT$T$C$E$GT$$u20$as$u20$core..ops..try_trait..Try$GT$6branch17h52b28611caca2318E', symObjAddr: 0x840, symBinAddr: 0x31FE4, symSize: 0x94 }
  - { offset: 0xC6D4D, size: 0x8, addend: 0x0, symName: '__ZN79_$LT$core..result..Result$LT$T$C$E$GT$$u20$as$u20$core..ops..try_trait..Try$GT$6branch17h59f43704394f4c69E', symObjAddr: 0x8D4, symBinAddr: 0x32078, symSize: 0x6C }
  - { offset: 0xC6DCA, size: 0x8, addend: 0x0, symName: '__ZN79_$LT$core..result..Result$LT$T$C$E$GT$$u20$as$u20$core..ops..try_trait..Try$GT$6branch17h680de7a18093a0beE', symObjAddr: 0x940, symBinAddr: 0x320E4, symSize: 0x48 }
  - { offset: 0xC6E44, size: 0x8, addend: 0x0, symName: '__ZN79_$LT$core..result..Result$LT$T$C$E$GT$$u20$as$u20$core..ops..try_trait..Try$GT$6branch17h7485defb0683d6d4E', symObjAddr: 0x988, symBinAddr: 0x3212C, symSize: 0x74 }
  - { offset: 0xC6EC1, size: 0x8, addend: 0x0, symName: '__ZN79_$LT$core..result..Result$LT$T$C$E$GT$$u20$as$u20$core..ops..try_trait..Try$GT$6branch17h7ee28a90674f72d3E', symObjAddr: 0x9FC, symBinAddr: 0x321A0, symSize: 0x74 }
  - { offset: 0xC6F3D, size: 0x8, addend: 0x0, symName: '__ZN79_$LT$core..result..Result$LT$T$C$E$GT$$u20$as$u20$core..ops..try_trait..Try$GT$6branch17ha9b73994425976c7E', symObjAddr: 0xAF8, symBinAddr: 0x32214, symSize: 0x7C }
  - { offset: 0xC6FB9, size: 0x8, addend: 0x0, symName: '__ZN79_$LT$core..result..Result$LT$T$C$E$GT$$u20$as$u20$core..ops..try_trait..Try$GT$6branch17habd2a3a7e947a0eeE', symObjAddr: 0xB74, symBinAddr: 0x32290, symSize: 0x6C }
  - { offset: 0xC8540, size: 0x8, addend: 0x0, symName: '__ZN4core6result19Result$LT$T$C$E$GT$3map17h60245c38b94cb214E', symObjAddr: 0x2B0, symBinAddr: 0x31AD8, symSize: 0x94 }
  - { offset: 0xC85DF, size: 0x8, addend: 0x0, symName: '__ZN4core6result19Result$LT$T$C$E$GT$6expect17h09c7708e246705b2E', symObjAddr: 0x344, symBinAddr: 0x31B6C, symSize: 0xA0 }
  - { offset: 0xC864F, size: 0x8, addend: 0x0, symName: '__ZN4core6result19Result$LT$T$C$E$GT$6expect17h0b7a40e4bbd726f5E', symObjAddr: 0x3E4, symBinAddr: 0x31C0C, symSize: 0x8C }
  - { offset: 0xC86B1, size: 0x8, addend: 0x0, symName: '__ZN4core6result19Result$LT$T$C$E$GT$6expect17h85453b1385c77ea7E', symObjAddr: 0x470, symBinAddr: 0x31C98, symSize: 0x88 }
  - { offset: 0xC8712, size: 0x8, addend: 0x0, symName: '__ZN4core6result19Result$LT$T$C$E$GT$6expect17h9fca5781d57d99b2E', symObjAddr: 0x4F8, symBinAddr: 0x31D20, symSize: 0x78 }
  - { offset: 0xC8C8E, size: 0x8, addend: 0x0, symName: '__ZN4core6result19Result$LT$T$C$E$GT$7map_err17h4a0b9182ced9ef71E', symObjAddr: 0x570, symBinAddr: 0x31D98, symSize: 0x8C }
  - { offset: 0xC8D20, size: 0x8, addend: 0x0, symName: '__ZN4core6result19Result$LT$T$C$E$GT$7map_err17h83d21dd01069c73fE', symObjAddr: 0x5FC, symBinAddr: 0x31E24, symSize: 0x8C }
  - { offset: 0xC8DB2, size: 0x8, addend: 0x0, symName: '__ZN4core6result19Result$LT$T$C$E$GT$9unwrap_or17h3973a8ed64290bfbE', symObjAddr: 0x688, symBinAddr: 0x31EB0, symSize: 0x90 }
  - { offset: 0xC8EA5, size: 0x8, addend: 0x0, symName: __ZN4core5slice3raw14from_raw_parts17hcb00568600385770E, symObjAddr: 0x0, symBinAddr: 0x322FC, symSize: 0x54 }
  - { offset: 0xC8EC1, size: 0x8, addend: 0x0, symName: __ZN4core5slice3raw14from_raw_parts17hcb00568600385770E, symObjAddr: 0x0, symBinAddr: 0x322FC, symSize: 0x54 }
  - { offset: 0xC8F04, size: 0x8, addend: 0x0, symName: __ZN4core5slice3raw18from_raw_parts_mut17h451ea2127f746547E, symObjAddr: 0x54, symBinAddr: 0x32350, symSize: 0x50 }
  - { offset: 0xC8F47, size: 0x8, addend: 0x0, symName: __ZN4core5slice3raw8from_ref17h552d8e6612bd08f3E, symObjAddr: 0xA4, symBinAddr: 0x323A0, symSize: 0x1C }
  - { offset: 0xC93C1, size: 0x8, addend: 0x0, symName: '__ZN9snid_core4Snid8new_fast28_$u7b$$u7b$closure$u7d$$u7d$17h7084fdd51dc4edd9E', symObjAddr: 0x0, symBinAddr: 0x323BC, symSize: 0x8C }
  - { offset: 0xC9642, size: 0x8, addend: 0x0, symName: '__ZN9snid_core4Snid8new_fast28_$u7b$$u7b$closure$u7d$$u7d$17h7084fdd51dc4edd9E', symObjAddr: 0x0, symBinAddr: 0x323BC, symSize: 0x8C }
  - { offset: 0xC9685, size: 0x8, addend: 0x0, symName: '__ZN9snid_core4Snid17h3_feature_vector28_$u7b$$u7b$closure$u7d$$u7d$17h07998e52d1266e5fE', symObjAddr: 0x8C, symBinAddr: 0x32448, symSize: 0x7C }
  - { offset: 0xC96CB, size: 0x8, addend: 0x0, symName: '__ZN9snid_core4Snid21generate_binary_batch28_$u7b$$u7b$closure$u7d$$u7d$17hf024b732a8900f4fE', symObjAddr: 0x108, symBinAddr: 0x324C4, symSize: 0x148 }
  - { offset: 0xC974E, size: 0x8, addend: 0x0, symName: '__ZN9snid_core4Snid30generate_tensor_batch_be_bytes28_$u7b$$u7b$closure$u7d$$u7d$17h5c6275adf700c2c7E', symObjAddr: 0x3B8, symBinAddr: 0x3260C, symSize: 0x1D0 }
  - { offset: 0xC9806, size: 0x8, addend: 0x0, symName: '__ZN9snid_core3Lid10from_parts28_$u7b$$u7b$closure$u7d$$u7d$17hcf2e8f90956a47b1E', symObjAddr: 0x5FC, symBinAddr: 0x327DC, symSize: 0x18 }
  - { offset: 0xC984E, size: 0x8, addend: 0x0, symName: '__ZN9snid_core3Kid10from_parts28_$u7b$$u7b$closure$u7d$$u7d$17hc996ee576ae72a62E', symObjAddr: 0x614, symBinAddr: 0x327F4, symSize: 0x18 }
  - { offset: 0xC9890, size: 0x8, addend: 0x0, symName: '__ZN9snid_core3Kid6verify28_$u7b$$u7b$closure$u7d$$u7d$17he93e9fe7d0c0c565E', symObjAddr: 0x62C, symBinAddr: 0x3280C, symSize: 0x2C }
  - { offset: 0xC98D6, size: 0x8, addend: 0x0, symName: '__ZN9snid_core14decode_payload28_$u7b$$u7b$closure$u7d$$u7d$17h5ce1d1717d38eb1fE', symObjAddr: 0x658, symBinAddr: 0x32838, symSize: 0x30 }
  - { offset: 0xC9920, size: 0x8, addend: 0x0, symName: '__ZN9snid_core9GENERATOR29_$u7b$$u7b$constant$u7d$$u7d$28_$u7b$$u7b$closure$u7d$$u7d$17hd9e5b5ce3dfea799E', symObjAddr: 0x688, symBinAddr: 0x32868, symSize: 0x3C }
  - { offset: 0xCA31B, size: 0x8, addend: 0x0, symName: '__ZN110_$LT$generic_array..GenericArray$LT$T$C$N$GT$$u20$as$u20$generic_array..sequence..GenericSequence$LT$T$GT$$GT$8generate17h74740d4225b9ecb3E', symObjAddr: 0x0, symBinAddr: 0x328A4, symSize: 0x108 }
  - { offset: 0xCA332, size: 0x8, addend: 0x0, symName: '__ZN110_$LT$generic_array..GenericArray$LT$T$C$N$GT$$u20$as$u20$generic_array..sequence..GenericSequence$LT$T$GT$$GT$8generate17h74740d4225b9ecb3E', symObjAddr: 0x0, symBinAddr: 0x328A4, symSize: 0x108 }
  - { offset: 0xCA3C0, size: 0x8, addend: 0x0, symName: '__ZN110_$LT$generic_array..GenericArray$LT$T$C$N$GT$$u20$as$u20$generic_array..sequence..GenericSequence$LT$T$GT$$GT$8generate17h836d3cb166ac7a48E', symObjAddr: 0x108, symBinAddr: 0x329AC, symSize: 0x110 }
  - { offset: 0xCA453, size: 0x8, addend: 0x0, symName: '__ZN110_$LT$generic_array..GenericArray$LT$T$C$N$GT$$u20$as$u20$generic_array..sequence..GenericSequence$LT$T$GT$$GT$8generate28_$u7b$$u7b$closure$u7d$$u7d$17h4c49da1ad84a7c2fE', symObjAddr: 0x218, symBinAddr: 0x32ABC, symSize: 0x94 }
  - { offset: 0xCA4DF, size: 0x8, addend: 0x0, symName: '__ZN110_$LT$generic_array..GenericArray$LT$T$C$N$GT$$u20$as$u20$generic_array..sequence..GenericSequence$LT$T$GT$$GT$8generate28_$u7b$$u7b$closure$u7d$$u7d$17h6aea130a75b49d53E', symObjAddr: 0x2AC, symBinAddr: 0x32B50, symSize: 0x94 }
  - { offset: 0xCAB0B, size: 0x8, addend: 0x0, symName: '__ZN4core5slice29_$LT$impl$u20$$u5b$T$u5d$$GT$8is_empty17h1cf70905637bdc15E', symObjAddr: 0x5D0, symBinAddr: 0x32E74, symSize: 0x1C }
  - { offset: 0xCAD97, size: 0x8, addend: 0x0, symName: '__ZN13generic_array25ArrayBuilder$LT$T$C$N$GT$10into_inner17h748d4a0059004c9aE', symObjAddr: 0x340, symBinAddr: 0x32BE4, symSize: 0xCC }
  - { offset: 0xCAE5B, size: 0x8, addend: 0x0, symName: '__ZN13generic_array25ArrayBuilder$LT$T$C$N$GT$10into_inner17he7f5c5e0ff546446E', symObjAddr: 0x40C, symBinAddr: 0x32CB0, symSize: 0xBC }
  - { offset: 0xCAF71, size: 0x8, addend: 0x0, symName: '__ZN13generic_array25ArrayBuilder$LT$T$C$N$GT$13iter_position17h2df5cff675d4c503E', symObjAddr: 0x4C8, symBinAddr: 0x32D6C, symSize: 0x58 }
  - { offset: 0xCAFDC, size: 0x8, addend: 0x0, symName: '__ZN13generic_array25ArrayBuilder$LT$T$C$N$GT$13iter_position17hf4c46d94d875a48bE', symObjAddr: 0x520, symBinAddr: 0x32DC4, symSize: 0x58 }
  - { offset: 0xCB02D, size: 0x8, addend: 0x0, symName: '__ZN13generic_array25ArrayBuilder$LT$T$C$N$GT$3new17h68c48b7383431d28E', symObjAddr: 0x578, symBinAddr: 0x32E1C, symSize: 0x20 }
  - { offset: 0xCB053, size: 0x8, addend: 0x0, symName: '__ZN13generic_array25ArrayBuilder$LT$T$C$N$GT$3new17hfce4884b01947ffdE', symObjAddr: 0x598, symBinAddr: 0x32E3C, symSize: 0x38 }
  - { offset: 0xCB0E3, size: 0x8, addend: 0x0, symName: '__ZN42_$LT$$RF$T$u20$as$u20$core..fmt..Debug$GT$3fmt17hb517751c1145b630E', symObjAddr: 0x0, symBinAddr: 0x32E90, symSize: 0x30 }
  - { offset: 0xCB129, size: 0x8, addend: 0x0, symName: '__ZN42_$LT$$RF$T$u20$as$u20$core..fmt..Debug$GT$3fmt17hb517751c1145b630E', symObjAddr: 0x0, symBinAddr: 0x32E90, symSize: 0x30 }
  - { offset: 0xCB3B3, size: 0x8, addend: 0x0, symName: '__ZN4core3str6traits108_$LT$impl$u20$core..slice..index..SliceIndex$LT$str$GT$$u20$for$u20$core..ops..range..Range$LT$usize$GT$$GT$13get_unchecked18precondition_check17h866bfbd527e8b332E', symObjAddr: 0x0, symBinAddr: 0x32EC0, symSize: 0x60 }
  - { offset: 0xCB3D9, size: 0x8, addend: 0x0, symName: '__ZN4core3str6traits108_$LT$impl$u20$core..slice..index..SliceIndex$LT$str$GT$$u20$for$u20$core..ops..range..Range$LT$usize$GT$$GT$13get_unchecked18precondition_check17h866bfbd527e8b332E', symObjAddr: 0x0, symBinAddr: 0x32EC0, symSize: 0x60 }
  - { offset: 0xCB424, size: 0x8, addend: 0x0, symName: '__ZN4core3str6traits54_$LT$impl$u20$core..cmp..PartialEq$u20$for$u20$str$GT$2eq17he358005e73feab70E', symObjAddr: 0x60, symBinAddr: 0x32F20, symSize: 0x64 }
  - { offset: 0xCB629, size: 0x8, addend: 0x0, symName: '__ZN4core5slice29_$LT$impl$u20$$u5b$T$u5d$$GT$16chunks_exact_mut17hdacf485f72836b04E', symObjAddr: 0x0, symBinAddr: 0x32F84, symSize: 0x114 }
  - { offset: 0xCBBD6, size: 0x8, addend: 0x0, symName: '__ZN4core5slice29_$LT$impl$u20$$u5b$T$u5d$$GT$16chunks_exact_mut17hdacf485f72836b04E', symObjAddr: 0x0, symBinAddr: 0x32F84, symSize: 0x114 }
  - { offset: 0xCBCC2, size: 0x8, addend: 0x0, symName: '__ZN4core5slice29_$LT$impl$u20$$u5b$T$u5d$$GT$22split_at_mut_unchecked17h6cefb3d1931b1d2bE', symObjAddr: 0x114, symBinAddr: 0x33098, symSize: 0xE8 }
  - { offset: 0xCBE24, size: 0x8, addend: 0x0, symName: '__ZN4core5slice29_$LT$impl$u20$$u5b$T$u5d$$GT$4iter17heeb53db651cb8f07E', symObjAddr: 0x224, symBinAddr: 0x33180, symSize: 0x28 }
  - { offset: 0xCBE5B, size: 0x8, addend: 0x0, symName: '__ZN4core5slice29_$LT$impl$u20$$u5b$T$u5d$$GT$8is_empty17h13e64f93f183527dE', symObjAddr: 0x24C, symBinAddr: 0x331A8, symSize: 0x1C }
  - { offset: 0xCBE90, size: 0x8, addend: 0x0, symName: '__ZN4core5slice29_$LT$impl$u20$$u5b$T$u5d$$GT$8iter_mut17hc7d1f88afd141eb1E', symObjAddr: 0x268, symBinAddr: 0x331C4, symSize: 0x28 }
  - { offset: 0xCC225, size: 0x8, addend: 0x0, symName: '__ZN4core4iter6traits8iterator8Iterator8for_each4call28_$u7b$$u7b$closure$u7d$$u7d$17h574a519bb52be25dE', symObjAddr: 0x2C, symBinAddr: 0x331EC, symSize: 0x30 }
  - { offset: 0xCC27D, size: 0x8, addend: 0x0, symName: '__ZN4core4iter6traits8iterator8Iterator8for_each4call28_$u7b$$u7b$closure$u7d$$u7d$17hd6cf0afaa2316ad0E', symObjAddr: 0x84, symBinAddr: 0x3321C, symSize: 0x30 }
  - { offset: 0xCC3E3, size: 0x8, addend: 0x0, symName: '__ZN4core3ptr8non_null16NonNull$LT$T$GT$13new_unchecked18precondition_check17h300f0e270b6630beE', symObjAddr: 0x0, symBinAddr: 0x3324C, symSize: 0x40 }
  - { offset: 0xCC490, size: 0x8, addend: 0x0, symName: '__ZN4core3ptr8non_null16NonNull$LT$T$GT$13new_unchecked18precondition_check17h300f0e270b6630beE', symObjAddr: 0x0, symBinAddr: 0x3324C, symSize: 0x40 }
  - { offset: 0xCC5E7, size: 0x8, addend: 0x0, symName: '__ZN4core5array4iter94_$LT$impl$u20$core..iter..traits..collect..IntoIterator$u20$for$u20$$u5b$T$u3b$$u20$N$u5d$$GT$9into_iter17hbae4868760ce49adE', symObjAddr: 0x2C, symBinAddr: 0x3328C, symSize: 0x30 }
  - { offset: 0xCC69C, size: 0x8, addend: 0x0, symName: '__ZN99_$LT$core..array..iter..IntoIter$LT$T$C$_$GT$$u20$as$u20$core..iter..traits..iterator..Iterator$GT$4next17h754fb2de306d1bfeE', symObjAddr: 0xBC, symBinAddr: 0x332BC, symSize: 0xC4 }
  - { offset: 0xCCCCF, size: 0x8, addend: 0x0, symName: __ZN4core4char7convert18from_u32_unchecked18precondition_check17hb3d90ed66708362fE, symObjAddr: 0x0, symBinAddr: 0x33380, symSize: 0x98 }
  - { offset: 0xCCD57, size: 0x8, addend: 0x0, symName: __ZN4core4char7convert18from_u32_unchecked18precondition_check17hb3d90ed66708362fE, symObjAddr: 0x0, symBinAddr: 0x33380, symSize: 0x98 }
  - { offset: 0xCCEF6, size: 0x8, addend: 0x0, symName: __ZN4core3ptr4read17h7ef0fd1c553e9740E, symObjAddr: 0x0, symBinAddr: 0x33418, symSize: 0x38 }
  - { offset: 0xCCF0D, size: 0x8, addend: 0x0, symName: __ZN4core3ptr4read17h7ef0fd1c553e9740E, symObjAddr: 0x0, symBinAddr: 0x33418, symSize: 0x38 }
  - { offset: 0xCCF44, size: 0x8, addend: 0x0, symName: __ZN4core3ptr4read17hb86c66a1b93270a4E, symObjAddr: 0x38, symBinAddr: 0x33450, symSize: 0x24 }
  - { offset: 0xCCF7B, size: 0x8, addend: 0x0, symName: __ZN4core3ptr5write17h55e12f883e2175ceE, symObjAddr: 0x5C, symBinAddr: 0x33474, symSize: 0x1C }
  - { offset: 0xCD476, size: 0x8, addend: 0x0, symName: '__ZN12block_buffer35BlockBuffer$LT$BlockSize$C$Kind$GT$13digest_blocks17h3cc4b8e8150b36c0E', symObjAddr: 0x0, symBinAddr: 0x33490, symSize: 0x5DC }
  - { offset: 0xCD6EB, size: 0x8, addend: 0x0, symName: '__ZN92_$LT$block_buffer..BlockBuffer$LT$BlockSize$C$Kind$GT$$u20$as$u20$core..default..Default$GT$7default17ha859c171dee71af0E', symObjAddr: 0x16A0, symBinAddr: 0x34B30, symSize: 0x48 }
  - { offset: 0xCDFF3, size: 0x8, addend: 0x0, symName: '__ZN12block_buffer35BlockBuffer$LT$BlockSize$C$Kind$GT$13digest_blocks17h3cc4b8e8150b36c0E', symObjAddr: 0x0, symBinAddr: 0x33490, symSize: 0x5DC }
  - { offset: 0xCE3C8, size: 0x8, addend: 0x0, symName: '__ZN12block_buffer35BlockBuffer$LT$BlockSize$C$Kind$GT$13digest_blocks17h5f1dcaf6eb2e0ea6E', symObjAddr: 0x5DC, symBinAddr: 0x33A6C, symSize: 0x5DC }
  - { offset: 0xCE7B7, size: 0x8, addend: 0x0, symName: '__ZN12block_buffer35BlockBuffer$LT$BlockSize$C$Kind$GT$13digest_blocks17heb5b288dfc896432E', symObjAddr: 0xBB8, symBinAddr: 0x34048, symSize: 0x5DC }
  - { offset: 0xCEC53, size: 0x8, addend: 0x0, symName: '__ZN12block_buffer50BlockBuffer$LT$BlockSize$C$block_buffer..Eager$GT$16len64_padding_be17hf180925554d199d6E', symObjAddr: 0x1194, symBinAddr: 0x34624, symSize: 0x50C }
  - { offset: 0xCEEFB, size: 0x8, addend: 0x0, symName: '__ZN4core3str21_$LT$impl$u20$str$GT$16split_at_checked17hc9d076ac4a4f70daE', symObjAddr: 0x0, symBinAddr: 0x34B78, symSize: 0x1C0 }
  - { offset: 0xCEFB9, size: 0x8, addend: 0x0, symName: '__ZN4core3str21_$LT$impl$u20$str$GT$16split_at_checked17hc9d076ac4a4f70daE', symObjAddr: 0x0, symBinAddr: 0x34B78, symSize: 0x1C0 }
  - { offset: 0xCF27B, size: 0x8, addend: 0x0, symName: '__ZN4core3str21_$LT$impl$u20$str$GT$3len17h3796d2502ac43cd9E', symObjAddr: 0x1C0, symBinAddr: 0x34D38, symSize: 0x1C }
  - { offset: 0xCF2C5, size: 0x8, addend: 0x0, symName: '__ZN4core3str21_$LT$impl$u20$str$GT$5bytes17h34e51de33c0d943fE', symObjAddr: 0x1DC, symBinAddr: 0x34D54, symSize: 0x40 }
  - { offset: 0xCF42B, size: 0x8, addend: 0x0, symName: '__ZN4core3str21_$LT$impl$u20$str$GT$5chars17hffe5ef2a9e94dc5fE', symObjAddr: 0x21C, symBinAddr: 0x34D94, symSize: 0x38 }
  - { offset: 0xCF55C, size: 0x8, addend: 0x0, symName: '__ZN4core3str21_$LT$impl$u20$str$GT$8split_at17h1221a0f20e20d7bfE', symObjAddr: 0x254, symBinAddr: 0x34DCC, symSize: 0x84 }
  - { offset: 0xCFCEC, size: 0x8, addend: 0x0, symName: '__ZN93_$LT$core..ops..index_range..IndexRange$u20$as$u20$core..iter..traits..iterator..Iterator$GT$4next17h5be833a8260ddf3fE', symObjAddr: 0x0, symBinAddr: 0x34E50, symSize: 0xEC }
  - { offset: 0xCFDDB, size: 0x8, addend: 0x0, symName: '__ZN93_$LT$core..ops..index_range..IndexRange$u20$as$u20$core..iter..traits..iterator..Iterator$GT$4next17h5be833a8260ddf3fE', symObjAddr: 0x0, symBinAddr: 0x34E50, symSize: 0xEC }
  - { offset: 0xCFFF1, size: 0x8, addend: 0x0, symName: __ZN4hmac11get_der_key17h9d6d696fe7fa904aE, symObjAddr: 0x0, symBinAddr: 0x34F3C, symSize: 0x3B8 }
  - { offset: 0xD07EA, size: 0x8, addend: 0x0, symName: __ZN4hmac11get_der_key17h9d6d696fe7fa904aE, symObjAddr: 0x0, symBinAddr: 0x34F3C, symSize: 0x3B8 }
  - { offset: 0xD0C65, size: 0x8, addend: 0x0, symName: '__ZN4core5array85_$LT$impl$u20$core..ops..index..Index$LT$I$GT$$u20$for$u20$$u5b$T$u3b$$u20$N$u5d$$GT$5index17h66d1768511a9425eE', symObjAddr: 0x0, symBinAddr: 0x352F4, symSize: 0x50 }
  - { offset: 0xD0F30, size: 0x8, addend: 0x0, symName: '__ZN4core5array85_$LT$impl$u20$core..ops..index..Index$LT$I$GT$$u20$for$u20$$u5b$T$u3b$$u20$N$u5d$$GT$5index17h66d1768511a9425eE', symObjAddr: 0x0, symBinAddr: 0x352F4, symSize: 0x50 }
  - { offset: 0xD0FA5, size: 0x8, addend: 0x0, symName: '__ZN4core5array85_$LT$impl$u20$core..ops..index..Index$LT$I$GT$$u20$for$u20$$u5b$T$u3b$$u20$N$u5d$$GT$5index17ha20601b11f37d04dE', symObjAddr: 0x50, symBinAddr: 0x35344, symSize: 0xBC }
  - { offset: 0xD110E, size: 0x8, addend: 0x0, symName: '__ZN4core5array85_$LT$impl$u20$core..ops..index..Index$LT$I$GT$$u20$for$u20$$u5b$T$u3b$$u20$N$u5d$$GT$5index17ha3ae86a30b28a767E', symObjAddr: 0x10C, symBinAddr: 0x35400, symSize: 0x50 }
  - { offset: 0xD1183, size: 0x8, addend: 0x0, symName: '__ZN4core5array85_$LT$impl$u20$core..ops..index..Index$LT$I$GT$$u20$for$u20$$u5b$T$u3b$$u20$N$u5d$$GT$5index17hc86eb76bc207306dE', symObjAddr: 0x15C, symBinAddr: 0x35450, symSize: 0xBC }
  - { offset: 0xD12EC, size: 0x8, addend: 0x0, symName: '__ZN4core5array85_$LT$impl$u20$core..ops..index..Index$LT$I$GT$$u20$for$u20$$u5b$T$u3b$$u20$N$u5d$$GT$5index17hce1341136df79200E', symObjAddr: 0x218, symBinAddr: 0x3550C, symSize: 0xD8 }
  - { offset: 0xD142C, size: 0x8, addend: 0x0, symName: '__ZN4core5array88_$LT$impl$u20$core..ops..index..IndexMut$LT$I$GT$$u20$for$u20$$u5b$T$u3b$$u20$N$u5d$$GT$9index_mut17h1377a156376b348dE', symObjAddr: 0x340, symBinAddr: 0x355E4, symSize: 0x50 }
  - { offset: 0xD14A1, size: 0x8, addend: 0x0, symName: '__ZN4core5array88_$LT$impl$u20$core..ops..index..IndexMut$LT$I$GT$$u20$for$u20$$u5b$T$u3b$$u20$N$u5d$$GT$9index_mut17h2b35adcd4e0740c1E', symObjAddr: 0x390, symBinAddr: 0x35634, symSize: 0x50 }
  - { offset: 0xD1516, size: 0x8, addend: 0x0, symName: '__ZN4core5array88_$LT$impl$u20$core..ops..index..IndexMut$LT$I$GT$$u20$for$u20$$u5b$T$u3b$$u20$N$u5d$$GT$9index_mut17h3988847b5c957033E', symObjAddr: 0x3E0, symBinAddr: 0x35684, symSize: 0x50 }
  - { offset: 0xD158B, size: 0x8, addend: 0x0, symName: '__ZN4core5array88_$LT$impl$u20$core..ops..index..IndexMut$LT$I$GT$$u20$for$u20$$u5b$T$u3b$$u20$N$u5d$$GT$9index_mut17h9e517ecd408fbafaE', symObjAddr: 0x430, symBinAddr: 0x356D4, symSize: 0x50 }
  - { offset: 0xD17D9, size: 0x8, addend: 0x0, symName: '__ZN102_$LT$core..iter..adapters..zip..Zip$LT$A$C$B$GT$$u20$as$u20$core..iter..traits..iterator..Iterator$GT$4next17ha6a9e90b30dee504E', symObjAddr: 0x20, symBinAddr: 0x35724, symSize: 0x24 }
  - { offset: 0xD181D, size: 0x8, addend: 0x0, symName: '__ZN111_$LT$core..iter..adapters..zip..Zip$LT$A$C$B$GT$$u20$as$u20$core..iter..adapters..zip..ZipImpl$LT$A$C$B$GT$$GT$3new17h660f9d47e3505551E', symObjAddr: 0x100, symBinAddr: 0x35748, symSize: 0xE8 }
  - { offset: 0xD18F6, size: 0x8, addend: 0x0, symName: '__ZN111_$LT$core..iter..adapters..zip..Zip$LT$A$C$B$GT$$u20$as$u20$core..iter..adapters..zip..ZipImpl$LT$A$C$B$GT$$GT$4next17h2d71ad6bbde8f658E', symObjAddr: 0x3D4, symBinAddr: 0x35830, symSize: 0xDC }
  - { offset: 0xD19B5, size: 0x8, addend: 0x0, symName: '__ZN63_$LT$I$u20$as$u20$core..iter..traits..collect..IntoIterator$GT$9into_iter17hfdf1732e74b25dabE', symObjAddr: 0x558, symBinAddr: 0x3590C, symSize: 0x30 }
  - { offset: 0xD1C89, size: 0x8, addend: 0x0, symName: '__ZN110_$LT$core..iter..adapters..enumerate..Enumerate$LT$I$GT$$u20$as$u20$core..iter..traits..iterator..Iterator$GT$4fold17h0cfa826a1e5496bbE', symObjAddr: 0x0, symBinAddr: 0x3593C, symSize: 0x58 }
  - { offset: 0xD1D37, size: 0x8, addend: 0x0, symName: '__ZN110_$LT$core..iter..adapters..enumerate..Enumerate$LT$I$GT$$u20$as$u20$core..iter..traits..iterator..Iterator$GT$4fold9enumerate28_$u7b$$u7b$closure$u7d$$u7d$17h29ae73fc9aec1472E', symObjAddr: 0xB0, symBinAddr: 0x359EC, symSize: 0x8C }
  - { offset: 0xD1DBE, size: 0x8, addend: 0x0, symName: '__ZN110_$LT$core..iter..adapters..enumerate..Enumerate$LT$I$GT$$u20$as$u20$core..iter..traits..iterator..Iterator$GT$4fold9enumerate28_$u7b$$u7b$closure$u7d$$u7d$17hc8f727de5ab9efcdE', symObjAddr: 0x13C, symBinAddr: 0x35A78, symSize: 0x8C }
  - { offset: 0xD1E89, size: 0x8, addend: 0x0, symName: '__ZN110_$LT$core..iter..adapters..enumerate..Enumerate$LT$I$GT$$u20$as$u20$core..iter..traits..iterator..Iterator$GT$4fold17h0cfa826a1e5496bbE', symObjAddr: 0x0, symBinAddr: 0x3593C, symSize: 0x58 }
  - { offset: 0xD1F0E, size: 0x8, addend: 0x0, symName: '__ZN110_$LT$core..iter..adapters..enumerate..Enumerate$LT$I$GT$$u20$as$u20$core..iter..traits..iterator..Iterator$GT$4fold17h24828cc706f19cc0E', symObjAddr: 0x58, symBinAddr: 0x35994, symSize: 0x58 }
  - { offset: 0xD2001, size: 0x8, addend: 0x0, symName: __ZN4core4iter6traits8iterator8Iterator8for_each17hba461ef8027b2168E, symObjAddr: 0x408, symBinAddr: 0x35B04, symSize: 0x2C }
  - { offset: 0xD204D, size: 0x8, addend: 0x0, symName: __ZN4core4iter6traits8iterator8Iterator8for_each17hcd1140484a05e67dE, symObjAddr: 0x434, symBinAddr: 0x35B30, symSize: 0x2C }
  - { offset: 0xD223A, size: 0x8, addend: 0x0, symName: '__ZN108_$LT$core..ops..range..RangeTo$LT$usize$GT$$u20$as$u20$core..slice..index..SliceIndex$LT$$u5b$T$u5d$$GT$$GT$9index_mut17h8143665e9d589175E', symObjAddr: 0x0, symBinAddr: 0x35B5C, symSize: 0x54 }
  - { offset: 0xD225B, size: 0x8, addend: 0x0, symName: '__ZN108_$LT$core..ops..range..RangeTo$LT$usize$GT$$u20$as$u20$core..slice..index..SliceIndex$LT$$u5b$T$u5d$$GT$$GT$9index_mut17h8143665e9d589175E', symObjAddr: 0x0, symBinAddr: 0x35B5C, symSize: 0x54 }
  - { offset: 0xD22DB, size: 0x8, addend: 0x0, symName: '__ZN110_$LT$core..ops..range..RangeFrom$LT$usize$GT$$u20$as$u20$core..slice..index..SliceIndex$LT$$u5b$T$u5d$$GT$$GT$9index_mut17h44c3366561298b84E', symObjAddr: 0x54, symBinAddr: 0x35BB0, symSize: 0xA8 }
  - { offset: 0xD2C0C, size: 0x8, addend: 0x0, symName: '__ZN67_$LT$alloc..vec..Vec$LT$T$GT$$u20$as$u20$core..default..Default$GT$7default17hbb3fa0811b1c0a6bE', symObjAddr: 0xAD4, symBinAddr: 0x35C58, symSize: 0x28 }
  - { offset: 0xD307A, size: 0x8, addend: 0x0, symName: '__ZN101_$LT$core..slice..iter..ChunksExactMut$LT$T$GT$$u20$as$u20$core..iter..traits..iterator..Iterator$GT$24__iterator_get_unchecked17h91cad755bdf919e3E', symObjAddr: 0x0, symBinAddr: 0x35C80, symSize: 0x98 }
  - { offset: 0xD36D8, size: 0x8, addend: 0x0, symName: '__ZN101_$LT$core..slice..iter..ChunksExactMut$LT$T$GT$$u20$as$u20$core..iter..traits..iterator..Iterator$GT$24__iterator_get_unchecked17h91cad755bdf919e3E', symObjAddr: 0x0, symBinAddr: 0x35C80, symSize: 0x98 }
  - { offset: 0xD3796, size: 0x8, addend: 0x0, symName: '__ZN101_$LT$core..slice..iter..ChunksExactMut$LT$T$GT$$u20$as$u20$core..iter..traits..iterator..Iterator$GT$9size_hint17h30b0f562126167f9E', symObjAddr: 0x98, symBinAddr: 0x35D18, symSize: 0x90 }
  - { offset: 0xD38C7, size: 0x8, addend: 0x0, symName: '__ZN109_$LT$core..slice..iter..IterMut$LT$T$GT$$u20$as$u20$core..iter..traits..double_ended..DoubleEndedIterator$GT$9next_back17ha9ada0b31032c573E', symObjAddr: 0x128, symBinAddr: 0x35DA8, symSize: 0x110 }
  - { offset: 0xD3B03, size: 0x8, addend: 0x0, symName: '__ZN4core5slice4iter95_$LT$impl$u20$core..iter..traits..collect..IntoIterator$u20$for$u20$$RF$mut$u20$$u5b$T$u5d$$GT$9into_iter17hc6b249973591c2cbE', symObjAddr: 0x728, symBinAddr: 0x360B0, symSize: 0x50 }
  - { offset: 0xD3C3A, size: 0x8, addend: 0x0, symName: '__ZN91_$LT$core..slice..iter..Iter$LT$T$GT$$u20$as$u20$core..iter..traits..iterator..Iterator$GT$24__iterator_get_unchecked17h49fc5136144b651bE', symObjAddr: 0x7D8, symBinAddr: 0x36138, symSize: 0x28 }
  - { offset: 0xD3CC4, size: 0x8, addend: 0x0, symName: '__ZN91_$LT$core..slice..iter..Iter$LT$T$GT$$u20$as$u20$core..iter..traits..iterator..Iterator$GT$8position17hedbb8c5448f4b2e6E', symObjAddr: 0x8CC, symBinAddr: 0x36160, symSize: 0x1C8 }
  - { offset: 0xD3E04, size: 0x8, addend: 0x0, symName: '__ZN91_$LT$core..slice..iter..Iter$LT$T$GT$$u20$as$u20$core..iter..traits..iterator..Iterator$GT$9size_hint17hf1b402fd34259b6aE', symObjAddr: 0xA94, symBinAddr: 0x36328, symSize: 0xC0 }
  - { offset: 0xD3EEF, size: 0x8, addend: 0x0, symName: '__ZN94_$LT$core..slice..iter..IterMut$LT$T$GT$$u20$as$u20$core..iter..traits..iterator..Iterator$GT$4fold17h30ab4448882b4aa9E', symObjAddr: 0xC78, symBinAddr: 0x363E8, symSize: 0x1CC }
  - { offset: 0xD40D1, size: 0x8, addend: 0x0, symName: '__ZN94_$LT$core..slice..iter..IterMut$LT$T$GT$$u20$as$u20$core..iter..traits..iterator..Iterator$GT$4fold17h5368a0bdf0604090E', symObjAddr: 0xE44, symBinAddr: 0x365B4, symSize: 0x1CC }
  - { offset: 0xD42B3, size: 0x8, addend: 0x0, symName: '__ZN94_$LT$core..slice..iter..IterMut$LT$T$GT$$u20$as$u20$core..iter..traits..iterator..Iterator$GT$4next17h396c4d78df25d79aE', symObjAddr: 0x1010, symBinAddr: 0x36780, symSize: 0xCC }
  - { offset: 0xD452A, size: 0x8, addend: 0x0, symName: __ZN4core4iter6traits8iterator8Iterator3rev17h851c9d3db3acdad1E, symObjAddr: 0x238, symBinAddr: 0x35EB8, symSize: 0x1C }
  - { offset: 0xD4561, size: 0x8, addend: 0x0, symName: __ZN4core4iter6traits8iterator8Iterator3zip17h5b9e88fcca474ea5E, symObjAddr: 0x254, symBinAddr: 0x35ED4, symSize: 0xBC }
  - { offset: 0xD45D7, size: 0x8, addend: 0x0, symName: __ZN4core4iter6traits8iterator8Iterator9enumerate17h0e75038f37d3d023E, symObjAddr: 0x574, symBinAddr: 0x35F90, symSize: 0x28 }
  - { offset: 0xD466A, size: 0x8, addend: 0x0, symName: '__ZN63_$LT$I$u20$as$u20$core..iter..traits..collect..IntoIterator$GT$9into_iter17h6e6be7926fdf0f16E', symObjAddr: 0x778, symBinAddr: 0x36100, symSize: 0x1C }
  - { offset: 0xD46A1, size: 0x8, addend: 0x0, symName: '__ZN63_$LT$I$u20$as$u20$core..iter..traits..collect..IntoIterator$GT$9into_iter17hd6b6dbb236916f69E', symObjAddr: 0x794, symBinAddr: 0x3611C, symSize: 0x1C }
  - { offset: 0xD476D, size: 0x8, addend: 0x0, symName: __ZN4core4iter8adapters3zip27TrustedRandomAccessNoCoerce4size17h08d7bcc4bda673ccE, symObjAddr: 0x5B4, symBinAddr: 0x35FB8, symSize: 0x2C }
  - { offset: 0xD47A4, size: 0x8, addend: 0x0, symName: __ZN4core4iter8adapters3zip27TrustedRandomAccessNoCoerce4size17h46c00ad1f62cd548E, symObjAddr: 0x5E0, symBinAddr: 0x35FE4, symSize: 0x2C }
  - { offset: 0xD4CD7, size: 0x8, addend: 0x0, symName: '__ZN4core5slice4iter13Iter$LT$T$GT$3new17hce8d4469621a195bE', symObjAddr: 0x688, symBinAddr: 0x36010, symSize: 0x50 }
  - { offset: 0xD4E37, size: 0x8, addend: 0x0, symName: '__ZN4core5slice4iter16IterMut$LT$T$GT$3new17h4b1028dabcc6da57E', symObjAddr: 0x6D8, symBinAddr: 0x36060, symSize: 0x50 }
  - { offset: 0xD5351, size: 0x8, addend: 0x0, symName: '__ZN59_$LT$u8$u20$as$u20$core..ops..bit..BitXor$LT$$RF$u8$GT$$GT$6bitxor17hfba493185a4d6c5aE', symObjAddr: 0x24, symBinAddr: 0x3684C, symSize: 0x24 }
  - { offset: 0xD53E6, size: 0x8, addend: 0x0, symName: '__ZN3std6thread5local17LocalKey$LT$T$GT$4with17h66323474099db6d2E', symObjAddr: 0x0, symBinAddr: 0x36870, symSize: 0x50 }
  - { offset: 0xD6046, size: 0x8, addend: 0x0, symName: '__ZN3std6thread5local17LocalKey$LT$T$GT$4with17h66323474099db6d2E', symObjAddr: 0x0, symBinAddr: 0x36870, symSize: 0x50 }
  - { offset: 0xD60B4, size: 0x8, addend: 0x0, symName: '__ZN3std6thread5local17LocalKey$LT$T$GT$4with17hde09b5439c115d36E', symObjAddr: 0xA0, symBinAddr: 0x368C0, symSize: 0x54 }
  - { offset: 0xD6101, size: 0x8, addend: 0x0, symName: '__ZN3std6thread5local17LocalKey$LT$T$GT$4with17hdf40804beae4e24dE', symObjAddr: 0xF4, symBinAddr: 0x36914, symSize: 0x50 }
  - { offset: 0xD61A2, size: 0x8, addend: 0x0, symName: '__ZN3std6thread5local17LocalKey$LT$T$GT$8try_with17h9fd6550a4dc8be0bE', symObjAddr: 0x144, symBinAddr: 0x36964, symSize: 0xE8 }
  - { offset: 0xD6334, size: 0x8, addend: 0x0, symName: '__ZN3std6thread5local17LocalKey$LT$T$GT$8try_with17hb5280479fd7eefabE', symObjAddr: 0x22C, symBinAddr: 0x36A4C, symSize: 0xE0 }
  - { offset: 0xD64C5, size: 0x8, addend: 0x0, symName: '__ZN3std6thread5local17LocalKey$LT$T$GT$8try_with17hca0624ab03bc5876E', symObjAddr: 0x3F4, symBinAddr: 0x36B2C, symSize: 0xE8 }
  - { offset: 0xD6635, size: 0x8, addend: 0x0, symName: '__ZN63_$LT$std..time..SystemTimeError$u20$as$u20$core..fmt..Debug$GT$3fmt17h6f98619e38c6ff28E', symObjAddr: 0x0, symBinAddr: 0x36C14, symSize: 0x54 }
  - { offset: 0xD682D, size: 0x8, addend: 0x0, symName: '__ZN63_$LT$std..time..SystemTimeError$u20$as$u20$core..fmt..Debug$GT$3fmt17h6f98619e38c6ff28E', symObjAddr: 0x0, symBinAddr: 0x36C14, symSize: 0x54 }
  - { offset: 0xD6B96, size: 0x8, addend: 0x0, symName: __ZN4core3ops8function6FnOnce9call_once17h05522fc308fe039eE, symObjAddr: 0x2C, symBinAddr: 0x36C68, symSize: 0x1C }
  - { offset: 0xD6BDA, size: 0x8, addend: 0x0, symName: __ZN4core3ops8function6FnOnce9call_once17h6d0e170a47e249d6E, symObjAddr: 0x48, symBinAddr: 0x36C84, symSize: 0x24 }
  - { offset: 0xD6C1E, size: 0x8, addend: 0x0, symName: __ZN4core3ops8function6FnOnce9call_once17ha60eef8648f4e4a3E, symObjAddr: 0x6C, symBinAddr: 0x36CA8, symSize: 0x4C }
  - { offset: 0xD6CD7, size: 0x8, addend: 0x0, symName: '__ZN4core3ptr357drop_in_place$LT$generic_array..ArrayBuilder$LT$u8$C$typenum..uint..UInt$LT$typenum..uint..UInt$LT$typenum..uint..UInt$LT$typenum..uint..UInt$LT$typenum..uint..UInt$LT$typenum..uint..UInt$LT$typenum..uint..UTerm$C$typenum..bit..B1$GT$$C$typenum..bit..B0$GT$$C$typenum..bit..B0$GT$$C$typenum..bit..B0$GT$$C$typenum..bit..B0$GT$$C$typenum..bit..B0$GT$$GT$$GT$17hfeb49ac851695318E', symObjAddr: 0xEC, symBinAddr: 0x36CF4, symSize: 0x24 }
  - { offset: 0xD6D06, size: 0x8, addend: 0x0, symName: '__ZN4core3ptr37drop_in_place$LT$snid_core..Error$GT$17h9c2b09e5656fe9fdE', symObjAddr: 0x110, symBinAddr: 0x36D18, symSize: 0x5C }
  - { offset: 0xD6D35, size: 0x8, addend: 0x0, symName: '__ZN4core3ptr403drop_in_place$LT$generic_array..ArrayBuilder$LT$u8$C$typenum..uint..UInt$LT$typenum..uint..UInt$LT$typenum..uint..UInt$LT$typenum..uint..UInt$LT$typenum..uint..UInt$LT$typenum..uint..UInt$LT$typenum..uint..UInt$LT$typenum..uint..UTerm$C$typenum..bit..B1$GT$$C$typenum..bit..B0$GT$$C$typenum..bit..B0$GT$$C$typenum..bit..B0$GT$$C$typenum..bit..B0$GT$$C$typenum..bit..B0$GT$$C$typenum..bit..B0$GT$$GT$$GT$17hfc08ac1bc6e909d5E', symObjAddr: 0x16C, symBinAddr: 0x36D74, symSize: 0x24 }
  - { offset: 0xD6D64, size: 0x8, addend: 0x0, symName: '__ZN4core3ptr45drop_in_place$LT$core..cell..BorrowRefMut$GT$17h40947f63b309b2d1E', symObjAddr: 0x1B0, symBinAddr: 0x36D98, symSize: 0x24 }
  - { offset: 0xD6D93, size: 0x8, addend: 0x0, symName: '__ZN4core3ptr69drop_in_place$LT$core..array..iter..IntoIter$LT$u8$C$16_usize$GT$$GT$17h23d7a0d877dee16fE', symObjAddr: 0x324, symBinAddr: 0x36DBC, symSize: 0x24 }
  - { offset: 0xD6DC2, size: 0x8, addend: 0x0, symName: '__ZN4core3ptr72drop_in_place$LT$core..cell..RefMut$LT$snid_core..GeneratorState$GT$$GT$17hb11495282fe79b2bE', symObjAddr: 0x348, symBinAddr: 0x36DE0, symSize: 0x24 }
  - { offset: 0xD6DF1, size: 0x8, addend: 0x0, symName: '__ZN4core3ptr72drop_in_place$LT$core..result..Result$LT$bool$C$snid_core..Error$GT$$GT$17h44e1505201fc5aecE', symObjAddr: 0x36C, symBinAddr: 0x36E04, symSize: 0x44 }
  - { offset: 0xD7069, size: 0x8, addend: 0x0, symName: '__ZN66_$LT$core..cell..BorrowRefMut$u20$as$u20$core..ops..drop..Drop$GT$4drop17h91ad6e4c55c75f57E', symObjAddr: 0x3B0, symBinAddr: 0x36E48, symSize: 0x60 }
  - { offset: 0xD741A, size: 0x8, addend: 0x0, symName: '__ZN82_$LT$core..array..iter..IntoIter$LT$T$C$_$GT$$u20$as$u20$core..ops..drop..Drop$GT$4drop17h48712b9a25fba8abE', symObjAddr: 0x4EC, symBinAddr: 0x36EA8, symSize: 0x5C }
  - { offset: 0xD7B01, size: 0x8, addend: 0x0, symName: '__ZN82_$LT$generic_array..ArrayBuilder$LT$T$C$N$GT$$u20$as$u20$core..ops..drop..Drop$GT$4drop17h795672e9102ccad6E', symObjAddr: 0x548, symBinAddr: 0x36F04, symSize: 0xBC }
  - { offset: 0xD7BBB, size: 0x8, addend: 0x0, symName: '__ZN82_$LT$generic_array..ArrayBuilder$LT$T$C$N$GT$$u20$as$u20$core..ops..drop..Drop$GT$4drop17hf1f9c52db30fb140E', symObjAddr: 0x604, symBinAddr: 0x36FC0, symSize: 0xBC }
  - { offset: 0xD853D, size: 0x8, addend: 0x0, symName: '__ZN4core3str6traits110_$LT$impl$u20$core..slice..index..SliceIndex$LT$str$GT$$u20$for$u20$core..ops..range..RangeTo$LT$usize$GT$$GT$3get17h3c809df00188e734E', symObjAddr: 0x0, symBinAddr: 0x3707C, symSize: 0x120 }
  - { offset: 0xD8617, size: 0x8, addend: 0x0, symName: '__ZN4core3str6traits110_$LT$impl$u20$core..slice..index..SliceIndex$LT$str$GT$$u20$for$u20$core..ops..range..RangeTo$LT$usize$GT$$GT$3get17h3c809df00188e734E', symObjAddr: 0x0, symBinAddr: 0x3707C, symSize: 0x120 }
  - { offset: 0xD87DF, size: 0x8, addend: 0x0, symName: '__ZN4core3str6traits110_$LT$impl$u20$core..slice..index..SliceIndex$LT$str$GT$$u20$for$u20$core..ops..range..RangeTo$LT$usize$GT$$GT$5index17hfb26729e0b898301E', symObjAddr: 0x120, symBinAddr: 0x3719C, symSize: 0x84 }
  - { offset: 0xD887A, size: 0x8, addend: 0x0, symName: '__ZN4core3str6traits112_$LT$impl$u20$core..slice..index..SliceIndex$LT$str$GT$$u20$for$u20$core..ops..range..RangeFrom$LT$usize$GT$$GT$3get17h66c9bbc926def7f4E', symObjAddr: 0x1A4, symBinAddr: 0x37220, symSize: 0x130 }
  - { offset: 0xD8A97, size: 0x8, addend: 0x0, symName: '__ZN4core3str6traits112_$LT$impl$u20$core..slice..index..SliceIndex$LT$str$GT$$u20$for$u20$core..ops..range..RangeFrom$LT$usize$GT$$GT$5index17hfa78c1f02dcd83e9E', symObjAddr: 0x2D4, symBinAddr: 0x37350, symSize: 0x88 }
  - { offset: 0xD90CC, size: 0x8, addend: 0x0, symName: __ZN4core3mem10needs_drop17h2c371deb821199caE, symObjAddr: 0x0, symBinAddr: 0x373D8, symSize: 0x18 }
  - { offset: 0xD90E3, size: 0x8, addend: 0x0, symName: __ZN4core3mem10needs_drop17h2c371deb821199caE, symObjAddr: 0x0, symBinAddr: 0x373D8, symSize: 0x18 }
  - { offset: 0xD910B, size: 0x8, addend: 0x0, symName: __ZN4core3mem6forget17h241be2c67918800fE, symObjAddr: 0x18, symBinAddr: 0x373F0, symSize: 0x4 }
  - { offset: 0xD9139, size: 0x8, addend: 0x0, symName: __ZN4core3mem6forget17h69835f3d2594a4c7E, symObjAddr: 0x1C, symBinAddr: 0x373F4, symSize: 0x4 }
  - { offset: 0xD9667, size: 0x8, addend: 0x0, symName: '__ZN62_$LT$digest..InvalidOutputSize$u20$as$u20$core..fmt..Debug$GT$3fmt17hc4a274f7fb18283fE', symObjAddr: 0x0, symBinAddr: 0x373F8, symSize: 0x40 }
  - { offset: 0xD9802, size: 0x8, addend: 0x0, symName: '__ZN62_$LT$digest..InvalidOutputSize$u20$as$u20$core..fmt..Debug$GT$3fmt17hc4a274f7fb18283fE', symObjAddr: 0x0, symBinAddr: 0x373F8, symSize: 0x40 }
  - { offset: 0xD98F3, size: 0x8, addend: 0x0, symName: '__ZN38_$LT$T$u20$as$u20$digest..mac..Mac$GT$6update17h233bba0961a6e8e8E', symObjAddr: 0x0, symBinAddr: 0x37438, symSize: 0x30 }
  - { offset: 0xD990F, size: 0x8, addend: 0x0, symName: '__ZN38_$LT$T$u20$as$u20$digest..mac..Mac$GT$6update17h233bba0961a6e8e8E', symObjAddr: 0x0, symBinAddr: 0x37438, symSize: 0x30 }
  - { offset: 0xD994E, size: 0x8, addend: 0x0, symName: '__ZN38_$LT$T$u20$as$u20$digest..mac..Mac$GT$8finalize17h4399cb4c67842046E', symObjAddr: 0x30, symBinAddr: 0x37468, symSize: 0x38 }
  - { offset: 0xD9A42, size: 0x8, addend: 0x0, symName: '__ZN82_$LT$digest..core_api..wrapper..CoreWrapper$LT$T$GT$$u20$as$u20$digest..Update$GT$6update17h8fa8fe4c930b8320E', symObjAddr: 0x2C8, symBinAddr: 0x37700, symSize: 0x40 }
  - { offset: 0xD9AAD, size: 0x8, addend: 0x0, symName: '__ZN82_$LT$digest..core_api..wrapper..CoreWrapper$LT$T$GT$$u20$as$u20$digest..Update$GT$6update17hd5847a2a6a8b6b39E', symObjAddr: 0x308, symBinAddr: 0x37740, symSize: 0x40 }
  - { offset: 0xD9B1D, size: 0x8, addend: 0x0, symName: '__ZN82_$LT$digest..core_api..wrapper..CoreWrapper$LT$T$GT$$u20$as$u20$digest..Update$GT$6update28_$u7b$$u7b$closure$u7d$$u7d$17h0bf778cc961e151cE', symObjAddr: 0x348, symBinAddr: 0x37780, symSize: 0x38 }
  - { offset: 0xD9B5F, size: 0x8, addend: 0x0, symName: '__ZN82_$LT$digest..core_api..wrapper..CoreWrapper$LT$T$GT$$u20$as$u20$digest..Update$GT$6update28_$u7b$$u7b$closure$u7d$$u7d$17h906b3bcb9c47dd85E', symObjAddr: 0x380, symBinAddr: 0x377B8, symSize: 0x48 }
  - { offset: 0xD9BCD, size: 0x8, addend: 0x0, symName: '__ZN87_$LT$digest..core_api..wrapper..CoreWrapper$LT$T$GT$$u20$as$u20$digest..FixedOutput$GT$13finalize_into17ha86ebbd9013e6668E', symObjAddr: 0x3C8, symBinAddr: 0x37800, symSize: 0x58 }
  - { offset: 0xD9C39, size: 0x8, addend: 0x0, symName: '__ZN87_$LT$digest..core_api..wrapper..CoreWrapper$LT$T$GT$$u20$as$u20$digest..FixedOutput$GT$13finalize_into17hdedbafde8b2e7d2aE', symObjAddr: 0x420, symBinAddr: 0x37858, symSize: 0x144 }
  - { offset: 0xD9D5E, size: 0x8, addend: 0x0, symName: '__ZN90_$LT$digest..core_api..wrapper..CoreWrapper$LT$T$GT$$u20$as$u20$core..default..Default$GT$7default17h92864554cc03673cE', symObjAddr: 0x564, symBinAddr: 0x3799C, symSize: 0x74 }
  - { offset: 0xD9D8B, size: 0x8, addend: 0x0, symName: '__ZN90_$LT$digest..core_api..wrapper..CoreWrapper$LT$T$GT$$u20$as$u20$crypto_common..KeyInit$GT$14new_from_slice17h05105ba71a51c45dE', symObjAddr: 0x5D8, symBinAddr: 0x37A10, symSize: 0x3F4 }
  - { offset: 0xD9F1A, size: 0x8, addend: 0x0, symName: '__ZN44_$LT$D$u20$as$u20$digest..digest..Digest$GT$6digest17h7f28354e0d7d6607E', symObjAddr: 0x68, symBinAddr: 0x374A0, symSize: 0xD4 }
  - { offset: 0xD9F6D, size: 0x8, addend: 0x0, symName: '__ZN44_$LT$D$u20$as$u20$digest..digest..Digest$GT$8finalize17h3372d3cb40b123cbE', symObjAddr: 0x13C, symBinAddr: 0x37574, symSize: 0x14 }
  - { offset: 0xD9FAA, size: 0x8, addend: 0x0, symName: __ZN6digest11FixedOutput14finalize_fixed17h5cb316bf9d46164eE, symObjAddr: 0x150, symBinAddr: 0x37588, symSize: 0xB8 }
  - { offset: 0xDA008, size: 0x8, addend: 0x0, symName: __ZN6digest11FixedOutput14finalize_fixed17ha09d6e228d6c06b8E, symObjAddr: 0x208, symBinAddr: 0x37640, symSize: 0xC0 }
  - { offset: 0xDAAED, size: 0x8, addend: 0x0, symName: '__ZN4core3ptr9const_ptr33_$LT$impl$u20$$BP$const$u20$T$GT$7sub_ptr18precondition_check17h3aa444a5e9f91c1cE', symObjAddr: 0x0, symBinAddr: 0x37E04, symSize: 0x40 }
  - { offset: 0xDAB13, size: 0x8, addend: 0x0, symName: '__ZN4core3ptr9const_ptr33_$LT$impl$u20$$BP$const$u20$T$GT$7sub_ptr18precondition_check17h3aa444a5e9f91c1cE', symObjAddr: 0x0, symBinAddr: 0x37E04, symSize: 0x40 }
  - { offset: 0xDAB80, size: 0x8, addend: 0x0, symName: '__ZN3std3sys12thread_local6native4lazy20Storage$LT$T$C$D$GT$10initialize17hdd4f289c788296ebE', symObjAddr: 0x0, symBinAddr: 0xAD80C, symSize: 0x290 }
  - { offset: 0xDB271, size: 0x8, addend: 0x0, symName: '__ZN78_$LT$$u21$$u20$as$u20$std..sys..thread_local..native..lazy..DestroyedState$GT$13register_dtor17h10d3ded347aaebd2E', symObjAddr: 0x35C, symBinAddr: 0x37F10, symSize: 0x10 }
  - { offset: 0xDB2FB, size: 0x8, addend: 0x0, symName: '__ZN3std3sys12thread_local6native4lazy20Storage$LT$T$C$D$GT$10initialize17hdd4f289c788296ebE', symObjAddr: 0x0, symBinAddr: 0xAD80C, symSize: 0x290 }
  - { offset: 0xDB584, size: 0x8, addend: 0x0, symName: '__ZN3std3sys12thread_local6native4lazy20Storage$LT$T$C$D$GT$11get_or_init17hd24a5fcc8b3be123E', symObjAddr: 0x290, symBinAddr: 0x37E44, symSize: 0xCC }
  - { offset: 0xDB6A1, size: 0x8, addend: 0x0, symName: __ZN4core3cmp9PartialEq2ne17h785f574219ec585bE, symObjAddr: 0x0, symBinAddr: 0x37F20, symSize: 0x30 }
  - { offset: 0xDB922, size: 0x8, addend: 0x0, symName: __ZN4core3cmp9PartialEq2ne17h785f574219ec585bE, symObjAddr: 0x0, symBinAddr: 0x37F20, symSize: 0x30 }
  - { offset: 0xDBC3A, size: 0x8, addend: 0x0, symName: '__ZN70_$LT$core..option..Option$LT$T$GT$$u20$as$u20$core..cmp..PartialEq$GT$2eq17h543bd628e3294a96E', symObjAddr: 0x2F8, symBinAddr: 0x38184, symSize: 0xB8 }
  - { offset: 0xDC0E2, size: 0x8, addend: 0x0, symName: '__ZN4core6option15Option$LT$T$GT$17unwrap_or_default17he7f9cd699c8ece23E', symObjAddr: 0x30, symBinAddr: 0x37F50, symSize: 0x70 }
  - { offset: 0xDC280, size: 0x8, addend: 0x0, symName: '__ZN4core6option15Option$LT$T$GT$3map17hca783c7c2ec82d44E', symObjAddr: 0xA0, symBinAddr: 0x37FC0, symSize: 0x68 }
  - { offset: 0xDC321, size: 0x8, addend: 0x0, symName: '__ZN4core6option15Option$LT$T$GT$4take17h6481e136a2bb9845E', symObjAddr: 0x108, symBinAddr: 0x38028, symSize: 0x5C }
  - { offset: 0xDC7AE, size: 0x8, addend: 0x0, symName: '__ZN4core6option15Option$LT$T$GT$5ok_or17h0d421d38bad5e6adE', symObjAddr: 0x164, symBinAddr: 0x38084, symSize: 0x74 }
  - { offset: 0xDC811, size: 0x8, addend: 0x0, symName: '__ZN4core6option15Option$LT$T$GT$5ok_or17hd7bd449e649daea4E', symObjAddr: 0x26C, symBinAddr: 0x380F8, symSize: 0x8C }
  - { offset: 0xDC8D9, size: 0x8, addend: 0x0, symName: '__ZN63_$LT$I$u20$as$u20$core..iter..traits..collect..IntoIterator$GT$9into_iter17h15f2a3b0a29f97e1E', symObjAddr: 0x48, symBinAddr: 0x3823C, symSize: 0x1C }
  - { offset: 0xDCA46, size: 0x8, addend: 0x0, symName: '__ZN67_$LT$core..array..TryFromSliceError$u20$as$u20$core..fmt..Debug$GT$3fmt17h93aacba308c4f7f1E', symObjAddr: 0x0, symBinAddr: 0x38258, symSize: 0x54 }
  - { offset: 0xDCAF9, size: 0x8, addend: 0x0, symName: '__ZN67_$LT$core..array..TryFromSliceError$u20$as$u20$core..fmt..Debug$GT$3fmt17h93aacba308c4f7f1E', symObjAddr: 0x0, symBinAddr: 0x38258, symSize: 0x54 }
  - { offset: 0xDCCDC, size: 0x8, addend: 0x0, symName: '__ZN84_$LT$hmac..optim..HmacCore$LT$D$GT$$u20$as$u20$digest..core_api..FixedOutputCore$GT$19finalize_fixed_core28_$u7b$$u7b$closure$u7d$$u7d$17h83df251e572b6f81E', symObjAddr: 0x0, symBinAddr: 0x382AC, symSize: 0x38 }
  - { offset: 0xDCCFD, size: 0x8, addend: 0x0, symName: '__ZN84_$LT$hmac..optim..HmacCore$LT$D$GT$$u20$as$u20$digest..core_api..FixedOutputCore$GT$19finalize_fixed_core28_$u7b$$u7b$closure$u7d$$u7d$17h83df251e572b6f81E', symObjAddr: 0x0, symBinAddr: 0x382AC, symSize: 0x38 }
  - { offset: 0xDD2A7, size: 0x8, addend: 0x0, symName: '__ZN110_$LT$core..iter..adapters..enumerate..Enumerate$LT$I$GT$$u20$as$u20$core..iter..traits..iterator..Iterator$GT$4next17h0ecfa879e3af1beaE', symObjAddr: 0x0, symBinAddr: 0x382E4, symSize: 0xE0 }
  - { offset: 0xDD33E, size: 0x8, addend: 0x0, symName: '__ZN65_$LT$alloc..string..FromUtf8Error$u20$as$u20$core..fmt..Debug$GT$3fmt17h3efecf6401775b28E', symObjAddr: 0x34D8, symBinAddr: 0x3B038, symSize: 0x88 }
  - { offset: 0xDD586, size: 0x8, addend: 0x0, symName: '__ZN65_$LT$alloc..vec..Vec$LT$T$C$A$GT$$u20$as$u20$core..fmt..Debug$GT$3fmt17h03efcca2d605b740E', symObjAddr: 0x3560, symBinAddr: 0x3B0C0, symSize: 0x88 }
  - { offset: 0xDD6F0, size: 0x8, addend: 0x0, symName: '__ZN70_$LT$alloc..vec..Vec$LT$T$C$A$GT$$u20$as$u20$core..ops..drop..Drop$GT$4drop17h09ff36882408b8feE', symObjAddr: 0x3680, symBinAddr: 0x3B1E0, symSize: 0x3C }
  - { offset: 0xDD839, size: 0x8, addend: 0x0, symName: '__ZN84_$LT$alloc..vec..Vec$LT$T$C$A$GT$$u20$as$u20$core..ops..index..IndexMut$LT$I$GT$$GT$9index_mut17h9c4529a671f3600dE', symObjAddr: 0x3798, symBinAddr: 0x3B2A8, symSize: 0x98 }
  - { offset: 0xDDA42, size: 0x8, addend: 0x0, symName: __ZN5alloc5alloc12alloc_zeroed17hda77fa55adee2432E, symObjAddr: 0x1D64, symBinAddr: 0x398C4, symSize: 0x80 }
  - { offset: 0xDDAE2, size: 0x8, addend: 0x0, symName: __ZN5alloc5alloc5alloc17hbc46374cfe89892cE, symObjAddr: 0x1DE4, symBinAddr: 0x39944, symSize: 0x80 }
  - { offset: 0xDDBB9, size: 0x8, addend: 0x0, symName: '__ZN63_$LT$alloc..alloc..Global$u20$as$u20$core..alloc..Allocator$GT$10deallocate17h408cf6e11bc37503E', symObjAddr: 0x3318, symBinAddr: 0x3AE78, symSize: 0x8C }
  - { offset: 0xDDC9D, size: 0x8, addend: 0x0, symName: '__ZN63_$LT$alloc..alloc..Global$u20$as$u20$core..alloc..Allocator$GT$15allocate_zeroed17h4757b3045eb775c2E', symObjAddr: 0x33A4, symBinAddr: 0x3AF04, symSize: 0x34 }
  - { offset: 0xDDCDA, size: 0x8, addend: 0x0, symName: '__ZN63_$LT$alloc..alloc..Global$u20$as$u20$core..alloc..Allocator$GT$4grow17h7069ac71cb583ac1E', symObjAddr: 0x33D8, symBinAddr: 0x3AF38, symSize: 0x44 }
  - { offset: 0xDDD35, size: 0x8, addend: 0x0, symName: '__ZN63_$LT$alloc..alloc..Global$u20$as$u20$core..alloc..Allocator$GT$8allocate17hfde7b18ff557a85bE', symObjAddr: 0x341C, symBinAddr: 0x3AF7C, symSize: 0x34 }
  - { offset: 0xDE157, size: 0x8, addend: 0x0, symName: __ZN5alloc7raw_vec11finish_grow17h1e207a3f8ffa1f36E, symObjAddr: 0x2624, symBinAddr: 0x3A184, symSize: 0x1F4 }
  - { offset: 0xDE4F4, size: 0x8, addend: 0x0, symName: '__ZN77_$LT$alloc..raw_vec..RawVec$LT$T$C$A$GT$$u20$as$u20$core..ops..drop..Drop$GT$4drop17hf18001ea823026bcE', symObjAddr: 0x3768, symBinAddr: 0x3B278, symSize: 0x30 }
  - { offset: 0xDE8B2, size: 0x8, addend: 0x0, symName: '__ZN4core3ptr8non_null16NonNull$LT$T$GT$13new_unchecked18precondition_check17h1ecff540bd726886E', symObjAddr: 0xF24, symBinAddr: 0x38E08, symSize: 0x40 }
  - { offset: 0xDF20A, size: 0x8, addend: 0x0, symName: __ZN4core3ptr13read_volatile18precondition_check17hf7c570e60261d36dE, symObjAddr: 0xCD4, symBinAddr: 0x38C78, symSize: 0xEC }
  - { offset: 0xDF310, size: 0x8, addend: 0x0, symName: '__ZN4core3ptr46drop_in_place$LT$alloc..vec..Vec$LT$u8$GT$$GT$17h2589da08154ac3deE', symObjAddr: 0xE60, symBinAddr: 0x38D64, symSize: 0x5C }
  - { offset: 0xDF33F, size: 0x8, addend: 0x0, symName: '__ZN4core3ptr49drop_in_place$LT$alloc..string..FromUtf8Error$GT$17h9a2029996b15b87fE', symObjAddr: 0xEBC, symBinAddr: 0x38DC0, symSize: 0x24 }
  - { offset: 0xDF36E, size: 0x8, addend: 0x0, symName: '__ZN4core3ptr53drop_in_place$LT$alloc..raw_vec..RawVec$LT$u8$GT$$GT$17h38040fbcdebb2251E', symObjAddr: 0xEF0, symBinAddr: 0x38DE4, symSize: 0x24 }
  - { offset: 0xDF67F, size: 0x8, addend: 0x0, symName: '__ZN64_$LT$core..str..error..Utf8Error$u20$as$u20$core..fmt..Debug$GT$3fmt17ha69f67b39d2f958cE', symObjAddr: 0x3450, symBinAddr: 0x3AFB0, symSize: 0x88 }
  - { offset: 0xDFA87, size: 0x8, addend: 0x0, symName: '__ZN66_$LT$core..option..Option$LT$T$GT$$u20$as$u20$core..fmt..Debug$GT$3fmt17h53eaec16aaf7fff0E', symObjAddr: 0x35E8, symBinAddr: 0x3B148, symSize: 0x98 }
  - { offset: 0xDFD2E, size: 0x8, addend: 0x0, symName: '__ZN42_$LT$$RF$T$u20$as$u20$core..fmt..Debug$GT$3fmt17h1327f9a219918499E', symObjAddr: 0xE0, symBinAddr: 0x383C4, symSize: 0x30 }
  - { offset: 0xDFD74, size: 0x8, addend: 0x0, symName: '__ZN42_$LT$$RF$T$u20$as$u20$core..fmt..Debug$GT$3fmt17hf600f2702dce827bE', symObjAddr: 0x110, symBinAddr: 0x383F4, symSize: 0x30 }
  - { offset: 0xDFDBA, size: 0x8, addend: 0x0, symName: '__ZN42_$LT$$RF$T$u20$as$u20$core..fmt..Debug$GT$3fmt17hffa925e26b2749dcE', symObjAddr: 0x140, symBinAddr: 0x38424, symSize: 0x30 }
  - { offset: 0xDFE06, size: 0x8, addend: 0x0, symName: '__ZN48_$LT$$u5b$T$u5d$$u20$as$u20$core..fmt..Debug$GT$3fmt17h786c33e25df8f377E', symObjAddr: 0x170, symBinAddr: 0x38454, symSize: 0x88 }
  - { offset: 0xE0019, size: 0x8, addend: 0x0, symName: '__ZN4core3fmt3num49_$LT$impl$u20$core..fmt..Debug$u20$for$u20$u8$GT$3fmt17h6a1a133fd4d258faE', symObjAddr: 0x730, symBinAddr: 0x389BC, symSize: 0x90 }
  - { offset: 0xE0093, size: 0x8, addend: 0x0, symName: '__ZN4core3fmt3num52_$LT$impl$u20$core..fmt..Debug$u20$for$u20$usize$GT$3fmt17h999fb1d703ba4758E', symObjAddr: 0x7C0, symBinAddr: 0x38A4C, symSize: 0x90 }
  - { offset: 0xE0218, size: 0x8, addend: 0x0, symName: '__ZN4core3cmp5impls50_$LT$impl$u20$core..cmp..Ord$u20$for$u20$usize$GT$3cmp17ha4f687ab128c4028E', symObjAddr: 0x570, symBinAddr: 0x387FC, symSize: 0x38 }
  - { offset: 0xE0287, size: 0x8, addend: 0x0, symName: __ZN4core3cmp6max_by17h4fc54086ed1fe0a8E, symObjAddr: 0x5A8, symBinAddr: 0x38834, symSize: 0xC0 }
  - { offset: 0xE02E5, size: 0x8, addend: 0x0, symName: __ZN4core3cmp6min_by17hbaa43acb4b27e92eE, symObjAddr: 0x668, symBinAddr: 0x388F4, symSize: 0xC8 }
  - { offset: 0xE076C, size: 0x8, addend: 0x0, symName: __ZN4core3ops8function6FnOnce9call_once17h8fd8618fdaf6eaf0E, symObjAddr: 0x9C0, symBinAddr: 0x38C4C, symSize: 0x2C }
  - { offset: 0xE08B8, size: 0x8, addend: 0x0, symName: '__ZN110_$LT$core..iter..adapters..enumerate..Enumerate$LT$I$GT$$u20$as$u20$core..iter..traits..iterator..Iterator$GT$4next17h0ecfa879e3af1beaE', symObjAddr: 0x0, symBinAddr: 0x382E4, symSize: 0xE0 }
  - { offset: 0xE09EE, size: 0x8, addend: 0x0, symName: '__ZN49_$LT$usize$u20$as$u20$core..iter..range..Step$GT$17forward_unchecked17h956d387445477df1E', symObjAddr: 0x1F8, symBinAddr: 0x384DC, symSize: 0x48 }
  - { offset: 0xE0A53, size: 0x8, addend: 0x0, symName: '__ZN4core4iter5range101_$LT$impl$u20$core..iter..traits..iterator..Iterator$u20$for$u20$core..ops..range..Range$LT$A$GT$$GT$4next17h46b1d4f6fe9096e5E', symObjAddr: 0xFD0, symBinAddr: 0x38E80, symSize: 0x24 }
  - { offset: 0xE0A90, size: 0x8, addend: 0x0, symName: '__ZN89_$LT$core..ops..range..Range$LT$T$GT$$u20$as$u20$core..iter..range..RangeIteratorImpl$GT$9spec_next17h74786700da8dfea1E', symObjAddr: 0x3830, symBinAddr: 0x3B340, symSize: 0x94 }
  - { offset: 0xE0B1C, size: 0x8, addend: 0x0, symName: __ZN4core4iter6traits8iterator8Iterator9enumerate17hf489f00a4d816e1eE, symObjAddr: 0xFF4, symBinAddr: 0x38EA4, symSize: 0x28 }
  - { offset: 0xE0B7D, size: 0x8, addend: 0x0, symName: '__ZN63_$LT$I$u20$as$u20$core..iter..traits..collect..IntoIterator$GT$9into_iter17h14e6693548124383E', symObjAddr: 0x32B8, symBinAddr: 0x3AE18, symSize: 0x18 }
  - { offset: 0xE0BB4, size: 0x8, addend: 0x0, symName: '__ZN63_$LT$I$u20$as$u20$core..iter..traits..collect..IntoIterator$GT$9into_iter17ha7cb41ac9d28dcacE', symObjAddr: 0x32D0, symBinAddr: 0x3AE30, symSize: 0x1C }
  - { offset: 0xE0BEB, size: 0x8, addend: 0x0, symName: '__ZN63_$LT$I$u20$as$u20$core..iter..traits..collect..IntoIterator$GT$9into_iter17hab17457fc76f22c8E', symObjAddr: 0x32EC, symBinAddr: 0x3AE4C, symSize: 0x18 }
  - { offset: 0xE0C22, size: 0x8, addend: 0x0, symName: '__ZN63_$LT$I$u20$as$u20$core..iter..traits..collect..IntoIterator$GT$9into_iter17hd6ab6e758f38e5acE', symObjAddr: 0x3304, symBinAddr: 0x3AE64, symSize: 0x14 }
  - { offset: 0xE0D5E, size: 0x8, addend: 0x0, symName: '__ZN91_$LT$core..slice..iter..Iter$LT$T$GT$$u20$as$u20$core..iter..traits..iterator..Iterator$GT$4next17hea5c5a7cff8fbb2aE', symObjAddr: 0x38C4, symBinAddr: 0x3B3D4, symSize: 0xCC }
  - { offset: 0xE0EC5, size: 0x8, addend: 0x0, symName: '__ZN93_$LT$core..slice..iter..Chunks$LT$T$GT$$u20$as$u20$core..iter..traits..iterator..Iterator$GT$4next17hd95422e75874bb4aE', symObjAddr: 0x3990, symBinAddr: 0x3B4A0, symSize: 0x158 }
  - { offset: 0xE103B, size: 0x8, addend: 0x0, symName: '__ZN4core5slice29_$LT$impl$u20$$u5b$T$u5d$$GT$18split_at_unchecked17h790f0ed8a8970560E', symObjAddr: 0x1264, symBinAddr: 0x39114, symSize: 0xDC }
  - { offset: 0xE11A0, size: 0x8, addend: 0x0, symName: '__ZN4core5slice29_$LT$impl$u20$$u5b$T$u5d$$GT$18split_at_unchecked18precondition_check17h0ebed7f7c070daeeE', symObjAddr: 0x1340, symBinAddr: 0x391F0, symSize: 0x40 }
  - { offset: 0xE11D7, size: 0x8, addend: 0x0, symName: '__ZN4core5slice29_$LT$impl$u20$$u5b$T$u5d$$GT$4iter17hac98bf74d335fe30E', symObjAddr: 0x13C4, symBinAddr: 0x39230, symSize: 0x28 }
  - { offset: 0xE120E, size: 0x8, addend: 0x0, symName: '__ZN4core5slice29_$LT$impl$u20$$u5b$T$u5d$$GT$6chunks17h24a2c35cb3e88c73E', symObjAddr: 0x13EC, symBinAddr: 0x39258, symSize: 0xB0 }
  - { offset: 0xE133F, size: 0x8, addend: 0x0, symName: __ZN4core5slice3raw14from_raw_parts18precondition_check17h8c63150ae1fa31a4E, symObjAddr: 0x149C, symBinAddr: 0x39308, symSize: 0x164 }
  - { offset: 0xE1499, size: 0x8, addend: 0x0, symName: __ZN4core5slice3raw18from_raw_parts_mut18precondition_check17h08efe04daf19e08dE, symObjAddr: 0x1600, symBinAddr: 0x3946C, symSize: 0x164 }
  - { offset: 0xE1689, size: 0x8, addend: 0x0, symName: '__ZN75_$LT$usize$u20$as$u20$core..slice..index..SliceIndex$LT$$u5b$T$u5d$$GT$$GT$9index_mut17h0c4ab3532d99e171E', symObjAddr: 0x370C, symBinAddr: 0x3B21C, symSize: 0x5C }
  - { offset: 0xE1803, size: 0x8, addend: 0x0, symName: '__ZN4core3num23_$LT$impl$u20$usize$GT$13unchecked_add18precondition_check17h21519d3042bcb7e2E', symObjAddr: 0x920, symBinAddr: 0x38BAC, symSize: 0x4C }
  - { offset: 0xE18AA, size: 0x8, addend: 0x0, symName: '__ZN4core3num23_$LT$impl$u20$usize$GT$13unchecked_mul18precondition_check17hae463317069d5108E', symObjAddr: 0x96C, symBinAddr: 0x38BF8, symSize: 0x54 }
  - { offset: 0xE2825, size: 0x8, addend: 0x0, symName: __ZN4core9ub_checks17is_nonoverlapping7runtime17hb5a872e27fbfe161E, symObjAddr: 0x1AC0, symBinAddr: 0x39620, symSize: 0xE4 }
  - { offset: 0xE29D6, size: 0x8, addend: 0x0, symName: __ZN4core10intrinsics11write_bytes18precondition_check17h1cff2a6752eea9eaE, symObjAddr: 0x240, symBinAddr: 0x38524, symSize: 0xEC }
  - { offset: 0xE2AE1, size: 0x8, addend: 0x0, symName: __ZN4core10intrinsics19copy_nonoverlapping18precondition_check17h71f9489fb1d7a7e8E, symObjAddr: 0x32C, symBinAddr: 0x38610, symSize: 0x1EC }
  - { offset: 0xE2E08, size: 0x8, addend: 0x0, symName: __ZN4core4hint16assert_unchecked18precondition_check17h96900602cd9103e2E, symObjAddr: 0xF98, symBinAddr: 0x38E48, symSize: 0x38 }
  - { offset: 0xE2FA6, size: 0x8, addend: 0x0, symName: __ZN4core5alloc6layout6Layout25from_size_align_unchecked18precondition_check17h0be5a4b2eb98b2bbE, symObjAddr: 0x1118, symBinAddr: 0x38FC8, symSize: 0x50 }
  - { offset: 0xE32EA, size: 0x8, addend: 0x0, symName: __ZN4core3fmt8builders9DebugList7entries17h4faae0cfeedcea90E, symObjAddr: 0x850, symBinAddr: 0x38ADC, symSize: 0xD0 }
  - { offset: 0xE3417, size: 0x8, addend: 0x0, symName: __ZN4core5alloc6layout6Layout13repeat_packed17h7549b91a46ac5a82E, symObjAddr: 0x101C, symBinAddr: 0x38ECC, symSize: 0xFC }
  - { offset: 0xE35FA, size: 0x8, addend: 0x0, symName: __ZN4core5alloc6layout6Layout6repeat17h07276e0fa1524964E, symObjAddr: 0x1168, symBinAddr: 0x39018, symSize: 0xFC }
  - { offset: 0xE37C4, size: 0x8, addend: 0x0, symName: '__ZN4core5slice4iter13Iter$LT$T$GT$3new17hfc081b0756e131bbE', symObjAddr: 0x1764, symBinAddr: 0x395D0, symSize: 0x50 }
  - { offset: 0xE3925, size: 0x8, addend: 0x0, symName: '__ZN5alloc3vec12Vec$LT$T$GT$13with_capacity17hbc0df618d4a0b251E', symObjAddr: 0x1BA4, symBinAddr: 0x39704, symSize: 0x40 }
  - { offset: 0xE39AA, size: 0x8, addend: 0x0, symName: '__ZN5alloc3vec16Vec$LT$T$C$A$GT$3len17h492c31b785d01de8E', symObjAddr: 0x1BE4, symBinAddr: 0x39744, symSize: 0x18 }
  - { offset: 0xE3B4D, size: 0x8, addend: 0x0, symName: '__ZN5alloc3vec16Vec$LT$T$C$A$GT$4push17h3e14297870fea48fE', symObjAddr: 0x1BFC, symBinAddr: 0x3975C, symSize: 0xE8 }
  - { offset: 0xE3E56, size: 0x8, addend: 0x0, symName: '__ZN5alloc3vec16Vec$LT$T$C$A$GT$8truncate17hff0d7426c48f55eeE', symObjAddr: 0x1CE4, symBinAddr: 0x39844, symSize: 0x80 }
  - { offset: 0xE41C3, size: 0x8, addend: 0x0, symName: __ZN5alloc5alloc6Global10alloc_impl17heebeebcc98bfcc05E, symObjAddr: 0x1E64, symBinAddr: 0x399C4, symSize: 0x1BC }
  - { offset: 0xE46E4, size: 0x8, addend: 0x0, symName: __ZN5alloc5alloc6Global9grow_impl17h7b6f64d5fe7313e7E, symObjAddr: 0x2020, symBinAddr: 0x39B80, symSize: 0x49C }
  - { offset: 0xE4E6D, size: 0x8, addend: 0x0, symName: __ZN5alloc6string6String9from_utf817hba3a51a4adcbba10E, symObjAddr: 0x24BC, symBinAddr: 0x3A01C, symSize: 0x168 }
  - { offset: 0xE50D2, size: 0x8, addend: 0x0, symName: '__ZN5alloc7raw_vec19RawVec$LT$T$C$A$GT$8grow_one17h37ad7629554c60a2E', symObjAddr: 0x2818, symBinAddr: 0x3A378, symSize: 0x80 }
  - { offset: 0xE513B, size: 0x8, addend: 0x0, symName: '__ZN5alloc7raw_vec20RawVecInner$LT$A$GT$10deallocate17h4441acd27c5fedc6E', symObjAddr: 0x2898, symBinAddr: 0x3A3F8, symSize: 0x70 }
  - { offset: 0xE5215, size: 0x8, addend: 0x0, symName: '__ZN5alloc7raw_vec20RawVecInner$LT$A$GT$14current_memory17h4781aa1c5803b113E', symObjAddr: 0x2908, symBinAddr: 0x3A468, symSize: 0x118 }
  - { offset: 0xE5499, size: 0x8, addend: 0x0, symName: '__ZN5alloc7raw_vec20RawVecInner$LT$A$GT$14grow_amortized17h9e4a6b81ba181ee6E', symObjAddr: 0x2A20, symBinAddr: 0x3A580, symSize: 0x484 }
  - { offset: 0xE5B58, size: 0x8, addend: 0x0, symName: '__ZN5alloc7raw_vec20RawVecInner$LT$A$GT$15try_allocate_in17h67478e3e21b3095bE', symObjAddr: 0x2EA4, symBinAddr: 0x3AA04, symSize: 0x31C }
  - { offset: 0xE5F43, size: 0x8, addend: 0x0, symName: '__ZN5alloc7raw_vec20RawVecInner$LT$A$GT$16with_capacity_in17h0b4d4342ff906f93E', symObjAddr: 0x31C0, symBinAddr: 0x3AD20, symSize: 0xF8 }
  - { offset: 0xE6580, size: 0x8, addend: 0x0, symName: __ZN6base326encode17hb9676289628bbfd3E, symObjAddr: 0x3AE8, symBinAddr: 0x3B5F8, symSize: 0xB84 }
  - { offset: 0xE6E88, size: 0x8, addend: 0x0, symName: '__ZN4core3ptr9const_ptr33_$LT$impl$u20$$BP$const$u20$T$GT$7sub_ptr18precondition_check17hcadcf5cbf9928901E', symObjAddr: 0x1870, symBinAddr: 0x3C538, symSize: 0x40 }
  - { offset: 0xE6EE6, size: 0x8, addend: 0x0, symName: '__ZN4core3ptr101drop_in_place$LT$std..io..error..ErrorData$LT$alloc..boxed..Box$LT$std..io..error..Custom$GT$$GT$$GT$17h417cca2f127bfd88E', symObjAddr: 0xD3C, symBinAddr: 0x3C1F4, symSize: 0x48 }
  - { offset: 0xE6F15, size: 0x8, addend: 0x0, symName: '__ZN4core3ptr118drop_in_place$LT$alloc..boxed..Box$LT$dyn$u20$core..error..Error$u2b$core..marker..Send$u2b$core..marker..Sync$GT$$GT$17h875a9474927f7cc0E', symObjAddr: 0xEA0, symBinAddr: 0x3C23C, symSize: 0x80 }
  - { offset: 0xE6F44, size: 0x8, addend: 0x0, symName: '__ZN4core3ptr42drop_in_place$LT$alloc..string..String$GT$17h9237f52035f99419E', symObjAddr: 0x10AC, symBinAddr: 0x3C2BC, symSize: 0x24 }
  - { offset: 0xE6F73, size: 0x8, addend: 0x0, symName: '__ZN4core3ptr42drop_in_place$LT$std..io..error..Error$GT$17hacca4e5cddc1d8a0E', symObjAddr: 0x10D0, symBinAddr: 0x3C2E0, symSize: 0x24 }
  - { offset: 0xE6FA2, size: 0x8, addend: 0x0, symName: '__ZN4core3ptr43drop_in_place$LT$std..io..error..Custom$GT$17h3d9962cdc9112eecE', symObjAddr: 0x10F4, symBinAddr: 0x3C304, symSize: 0x24 }
  - { offset: 0xE6FD1, size: 0x8, addend: 0x0, symName: '__ZN4core3ptr45drop_in_place$LT$serde_json..error..Error$GT$17h290ad718e3965c58E', symObjAddr: 0x113C, symBinAddr: 0x3C328, symSize: 0x24 }
  - { offset: 0xE7000, size: 0x8, addend: 0x0, symName: '__ZN4core3ptr46drop_in_place$LT$alloc..vec..Vec$LT$u8$GT$$GT$17h90b7ef751ad19f3aE', symObjAddr: 0x11FC, symBinAddr: 0x3C34C, symSize: 0x5C }
  - { offset: 0xE702F, size: 0x8, addend: 0x0, symName: '__ZN4core3ptr49drop_in_place$LT$serde_json..error..ErrorCode$GT$17h1364daa671de6408E', symObjAddr: 0x1268, symBinAddr: 0x3C3A8, symSize: 0x64 }
  - { offset: 0xE705E, size: 0x8, addend: 0x0, symName: '__ZN4core3ptr49drop_in_place$LT$serde_json..error..ErrorImpl$GT$17h539b2811aae02ee0E', symObjAddr: 0x12CC, symBinAddr: 0x3C40C, symSize: 0x24 }
  - { offset: 0xE708D, size: 0x8, addend: 0x0, symName: '__ZN4core3ptr53drop_in_place$LT$alloc..raw_vec..RawVec$LT$u8$GT$$GT$17h53e355d4c52ea094E', symObjAddr: 0x1300, symBinAddr: 0x3C430, symSize: 0x24 }
  - { offset: 0xE70BC, size: 0x8, addend: 0x0, symName: '__ZN4core3ptr57drop_in_place$LT$std..io..error..repr_bitpacked..Repr$GT$17hf4c967004fe21272E', symObjAddr: 0x13E8, symBinAddr: 0x3C454, symSize: 0x24 }
  - { offset: 0xE70EB, size: 0x8, addend: 0x0, symName: '__ZN4core3ptr68drop_in_place$LT$alloc..boxed..Box$LT$std..io..error..Custom$GT$$GT$17h32292538beabe699E', symObjAddr: 0x1454, symBinAddr: 0x3C478, symSize: 0x60 }
  - { offset: 0xE711A, size: 0x8, addend: 0x0, symName: '__ZN4core3ptr74drop_in_place$LT$alloc..boxed..Box$LT$serde_json..error..ErrorImpl$GT$$GT$17hccd982dbd5386bddE', symObjAddr: 0x15C0, symBinAddr: 0x3C4D8, symSize: 0x60 }
  - { offset: 0xE7230, size: 0x8, addend: 0x0, symName: '__ZN4core3num23_$LT$impl$u20$usize$GT$13unchecked_add18precondition_check17hc35eb96d5af3042eE', symObjAddr: 0x9EC, symBinAddr: 0x3C17C, symSize: 0x4C }
  - { offset: 0xE7352, size: 0x8, addend: 0x0, symName: __ZN4core3ops8function6FnOnce9call_once17hb5e4a47222efce00E, symObjAddr: 0xC70, symBinAddr: 0x3C1C8, symSize: 0x2C }
  - { offset: 0xE73A3, size: 0x8, addend: 0x0, symName: __ZN4core9ub_checks17is_nonoverlapping7runtime17hc053137692091455E, symObjAddr: 0x1E74, symBinAddr: 0x3C578, symSize: 0xE4 }
  - { offset: 0xE8C86, size: 0x8, addend: 0x0, symName: __ZN4core5slice3raw14from_raw_parts17he971e04259166e1cE, symObjAddr: 0xE68, symBinAddr: 0x3CE98, symSize: 0x50 }
  - { offset: 0xE8CCE, size: 0x8, addend: 0x0, symName: __ZN4core5slice3raw14from_raw_parts18precondition_check17hc0a4db55dfcef995E, symObjAddr: 0xEB8, symBinAddr: 0x3CEE8, symSize: 0x164 }
  - { offset: 0xE8E28, size: 0x8, addend: 0x0, symName: __ZN4core5slice3raw18from_raw_parts_mut18precondition_check17hb39e88693637cd29E, symObjAddr: 0x101C, symBinAddr: 0x3D04C, symSize: 0x164 }
  - { offset: 0xE948C, size: 0x8, addend: 0x0, symName: '__ZN78_$LT$std..io..error..repr_bitpacked..Repr$u20$as$u20$core..ops..drop..Drop$GT$4drop28_$u7b$$u7b$closure$u7d$$u7d$17ha67ae066c85120bfE', symObjAddr: 0x3A88, symBinAddr: 0x3D428, symSize: 0x34 }
  - { offset: 0xE9541, size: 0x8, addend: 0x0, symName: '__ZN78_$LT$std..io..error..repr_bitpacked..Repr$u20$as$u20$core..ops..drop..Drop$GT$4drop17hb66f277d333b93d2E', symObjAddr: 0x3A50, symBinAddr: 0x3D3F0, symSize: 0x38 }
  - { offset: 0xE956A, size: 0x8, addend: 0x0, symName: __ZN3std2io5error14repr_bitpacked11decode_repr17h9e7816fd628e51eeE, symObjAddr: 0x2AC, symBinAddr: 0x3C65C, symSize: 0x234 }
  - { offset: 0xE9833, size: 0x8, addend: 0x0, symName: __ZN3std2io5error14repr_bitpacked14kind_from_prim17ha7209c5ae2642beaE, symObjAddr: 0x4E0, symBinAddr: 0x3C890, symSize: 0x608 }
  - { offset: 0xEA770, size: 0x8, addend: 0x0, symName: '__ZN63_$LT$alloc..alloc..Global$u20$as$u20$core..alloc..Allocator$GT$10deallocate17h3ab2c008d303c888E', symObjAddr: 0x2F48, symBinAddr: 0x3D364, symSize: 0x8C }
  - { offset: 0xEAB6A, size: 0x8, addend: 0x0, symName: '__ZN52_$LT$T$u20$as$u20$alloc..slice..hack..ConvertVec$GT$6to_vec17h309632514b2942f5E', symObjAddr: 0x2AC4, symBinAddr: 0x3D27C, symSize: 0xE8 }
  - { offset: 0xEAE40, size: 0x8, addend: 0x0, symName: '__ZN4core6option15Option$LT$T$GT$11map_or_else17h94d5cf91c3d7e2b7E', symObjAddr: 0x1180, symBinAddr: 0x3D1B0, symSize: 0xCC }
  - { offset: 0xEB7D3, size: 0x8, addend: 0x0, symName: '__ZN132_$LT$alloc..vec..Vec$LT$T$C$A$GT$$u20$as$u20$alloc..vec..spec_extend..SpecExtend$LT$$RF$T$C$core..slice..iter..Iter$LT$T$GT$$GT$$GT$11spec_extend17h29f778314041edf6E', symObjAddr: 0x1D0, symBinAddr: 0x3D45C, symSize: 0xA8 }
  - { offset: 0xEC960, size: 0x8, addend: 0x0, symName: __ZN4core5alloc6layout6Layout25from_size_align_unchecked18precondition_check17he5917923d004eda7E, symObjAddr: 0x47C, symBinAddr: 0x3D504, symSize: 0x50 }
  - { offset: 0xECFAB, size: 0x8, addend: 0x0, symName: '__ZN5alloc3vec16Vec$LT$T$C$A$GT$15append_elements17he58b85ec2a60e648E', symObjAddr: 0xF24, symBinAddr: 0x3D554, symSize: 0xE4 }
  - { offset: 0xED22F, size: 0x8, addend: 0x0, symName: '__ZN5alloc3vec16Vec$LT$T$C$A$GT$17extend_from_slice17hf9b2f5eb4522152fE', symObjAddr: 0x11C0, symBinAddr: 0x3D638, symSize: 0x6C }
  - { offset: 0xED37A, size: 0x8, addend: 0x0, symName: '__ZN5alloc3vec16Vec$LT$T$C$A$GT$3len17h2605e843f631166dE', symObjAddr: 0x1244, symBinAddr: 0x3D6A4, symSize: 0x18 }
  - { offset: 0xED4F6, size: 0x8, addend: 0x0, symName: '__ZN5alloc3vec16Vec$LT$T$C$A$GT$4push17hb1b6c423e130a3b9E', symObjAddr: 0x1368, symBinAddr: 0x3D6BC, symSize: 0xE8 }
  - { offset: 0xED7D8, size: 0x8, addend: 0x0, symName: '__ZN45_$LT$T$u20$as$u20$alloc..string..ToString$GT$9to_string17hc1dd361518a91b99E', symObjAddr: 0x52C, symBinAddr: 0x3D7A4, symSize: 0x124 }
  - { offset: 0xEE274, size: 0x8, addend: 0x0, symName: '__ZN4core4iter5range101_$LT$impl$u20$core..iter..traits..iterator..Iterator$u20$for$u20$core..ops..range..Range$LT$A$GT$$GT$4next17h13c80d59c70760f2E', symObjAddr: 0x137C, symBinAddr: 0x3D91C, symSize: 0x24 }
  - { offset: 0xEE2B1, size: 0x8, addend: 0x0, symName: '__ZN89_$LT$core..ops..range..Range$LT$T$GT$$u20$as$u20$core..iter..range..RangeIteratorImpl$GT$9spec_next17h2d76db74b7ff6c98E', symObjAddr: 0x2284, symBinAddr: 0x3D954, symSize: 0x94 }
  - { offset: 0xEE33D, size: 0x8, addend: 0x0, symName: '__ZN63_$LT$I$u20$as$u20$core..iter..traits..collect..IntoIterator$GT$9into_iter17h6448bfc971a6beefE', symObjAddr: 0x2228, symBinAddr: 0x3D940, symSize: 0x14 }
  - { offset: 0xEE382, size: 0x8, addend: 0x0, symName: __ZN4core4hint16assert_unchecked18precondition_check17h5aba01b92e59048bE, symObjAddr: 0x1318, symBinAddr: 0x3D8C8, symSize: 0x38 }
  - { offset: 0xEE3B0, size: 0x8, addend: 0x0, symName: __ZN4core4hint21unreachable_unchecked18precondition_check17hb8f3dddeb0398291E, symObjAddr: 0x1360, symBinAddr: 0x3D900, symSize: 0x1C }
  - { offset: 0xEEA8A, size: 0x8, addend: 0x0, symName: '__ZN67_$LT$serde_json..error..ErrorCode$u20$as$u20$core..fmt..Display$GT$3fmt17hb795eb14e08b2f93E', symObjAddr: 0x28E0, symBinAddr: 0x3D9E8, symSize: 0x380 }
  - { offset: 0xEEB09, size: 0x8, addend: 0x0, symName: '__ZN61_$LT$serde_json..error..Error$u20$as$u20$core..fmt..Debug$GT$3fmt17h4688d5f789750d40E', symObjAddr: 0x2E40, symBinAddr: 0x3DD68, symSize: 0x184 }
  - { offset: 0xEF6E8, size: 0x8, addend: 0x0, symName: '__ZN58_$LT$alloc..string..String$u20$as$u20$core..fmt..Debug$GT$3fmt17hd3768aec1ff9a714E', symObjAddr: 0xD80, symBinAddr: 0x3E36C, symSize: 0x98 }
  - { offset: 0xEF8C7, size: 0x8, addend: 0x0, symName: '__ZN58_$LT$alloc..string..String$u20$as$u20$core..fmt..Write$GT$10write_char17h8d6a5ff7736a649bE', symObjAddr: 0xE18, symBinAddr: 0x3E404, symSize: 0x30 }
  - { offset: 0xEF904, size: 0x8, addend: 0x0, symName: '__ZN58_$LT$alloc..string..String$u20$as$u20$core..fmt..Write$GT$9write_str17h18e2b4d5e6c945c5E', symObjAddr: 0xE48, symBinAddr: 0x3E434, symSize: 0x38 }
  - { offset: 0xEFC41, size: 0x8, addend: 0x0, symName: '__ZN5alloc3fmt6format28_$u7b$$u7b$closure$u7d$$u7d$17h4b0c06131d8b06c7E', symObjAddr: 0x209C, symBinAddr: 0x3E46C, symSize: 0x48 }
  - { offset: 0xEFC7D, size: 0x8, addend: 0x0, symName: '__ZN5alloc3str56_$LT$impl$u20$alloc..borrow..ToOwned$u20$for$u20$str$GT$8to_owned17hacc5f82db2aadac8E', symObjAddr: 0x25E4, symBinAddr: 0x3E4B4, symSize: 0x50 }
  - { offset: 0xF0351, size: 0x8, addend: 0x0, symName: __ZN4core3fmt5Write9write_fmt17he3d3a7fe025c88c4E, symObjAddr: 0x740, symBinAddr: 0x3DEEC, symSize: 0x24 }
  - { offset: 0xF039F, size: 0x8, addend: 0x0, symName: '__ZN75_$LT$$RF$mut$u20$W$u20$as$u20$core..fmt..Write..write_fmt..SpecWriteFmt$GT$14spec_write_fmt17hb27314acc82b506aE', symObjAddr: 0x2E38, symBinAddr: 0x3E760, symSize: 0x190 }
  - { offset: 0xF0584, size: 0x8, addend: 0x0, symName: '__ZN53_$LT$core..fmt..Error$u20$as$u20$core..fmt..Debug$GT$3fmt17hed03893447b23744E', symObjAddr: 0xD14, symBinAddr: 0x3E32C, symSize: 0x40 }
  - { offset: 0xF0860, size: 0x8, addend: 0x0, symName: __ZN4core4char7methods15encode_utf8_raw17h2dc10d6936e4cde1E, symObjAddr: 0xA20, symBinAddr: 0x3E110, symSize: 0x21C }
  - { offset: 0xF0DDE, size: 0x8, addend: 0x0, symName: __ZN4core3fmt9Arguments6new_v117h93b23a5307ed7c5dE, symObjAddr: 0x7B4, symBinAddr: 0x3DF10, symSize: 0x54 }
  - { offset: 0xF0EA4, size: 0x8, addend: 0x0, symName: __ZN4core3fmt9Formatter9write_fmt17h95df40408d2ba966E, symObjAddr: 0x828, symBinAddr: 0x3DF64, symSize: 0x1AC }
  - { offset: 0xF12E9, size: 0x8, addend: 0x0, symName: __ZN5alloc6string6String4push17h7e8ae15019681f5fE, symObjAddr: 0x271C, symBinAddr: 0x3E504, symSize: 0x180 }
  - { offset: 0xF1745, size: 0x8, addend: 0x0, symName: __ZN5alloc6string6String8push_str17h91cf1458e7a8bf68E, symObjAddr: 0x2924, symBinAddr: 0x3E684, symSize: 0xDC }
  - { offset: 0xF26BF, size: 0x8, addend: 0x0, symName: '__ZN4core3ptr8non_null16NonNull$LT$T$GT$13new_unchecked18precondition_check17h6e552d9fd1c120baE', symObjAddr: 0xDE8, symBinAddr: 0x3EB24, symSize: 0x40 }
  - { offset: 0xF333A, size: 0x8, addend: 0x0, symName: '__ZN49_$LT$usize$u20$as$u20$core..iter..range..Step$GT$17forward_unchecked17hb54d311314480a0bE', symObjAddr: 0x6D8, symBinAddr: 0x3E8F0, symSize: 0x48 }
  - { offset: 0xF4122, size: 0x8, addend: 0x0, symName: __ZN4core10intrinsics19copy_nonoverlapping18precondition_check17h9ee9681de3c77ddaE, symObjAddr: 0x768, symBinAddr: 0x3E938, symSize: 0x1EC }
  - { offset: 0xF459D, size: 0x8, addend: 0x0, symName: '__ZN72_$LT$alloc..boxed..Box$LT$T$C$A$GT$$u20$as$u20$core..ops..drop..Drop$GT$4drop17h008e0ad6c84c73d2E', symObjAddr: 0x22B8, symBinAddr: 0x3ECD4, symSize: 0xB0 }
  - { offset: 0xF471B, size: 0x8, addend: 0x0, symName: '__ZN72_$LT$alloc..boxed..Box$LT$T$C$A$GT$$u20$as$u20$core..ops..drop..Drop$GT$4drop17h2dc2d115617c7cbdE', symObjAddr: 0x2418, symBinAddr: 0x3ED84, symSize: 0xC4 }
  - { offset: 0xF4899, size: 0x8, addend: 0x0, symName: '__ZN72_$LT$alloc..boxed..Box$LT$T$C$A$GT$$u20$as$u20$core..ops..drop..Drop$GT$4drop17haf4a915d6158e7a8E', symObjAddr: 0x258C, symBinAddr: 0x3EE48, symSize: 0xB0 }
  - { offset: 0xF53F6, size: 0x8, addend: 0x0, symName: '__ZN4core6result19Result$LT$T$C$E$GT$6expect17h823dad4010011bf2E', symObjAddr: 0x1528, symBinAddr: 0x3EB64, symSize: 0x78 }
  - { offset: 0xF55E7, size: 0x8, addend: 0x0, symName: '__ZN5alloc7raw_vec20RawVecInner$LT$A$GT$16with_capacity_in17h93f3df54f6835660E', symObjAddr: 0x21A4, symBinAddr: 0x3EBDC, symSize: 0xF8 }
  - { offset: 0xF5B68, size: 0x8, addend: 0x0, symName: '__ZN106_$LT$core..ops..range..Range$LT$usize$GT$$u20$as$u20$core..slice..index..SliceIndex$LT$$u5b$T$u5d$$GT$$GT$13get_unchecked18precondition_check17he9054b5fbd3b38b0E', symObjAddr: 0x0, symBinAddr: 0x3EEF8, symSize: 0x60 }
  - { offset: 0xF60D6, size: 0x8, addend: 0x0, symName: '__ZN42_$LT$$RF$T$u20$as$u20$core..fmt..Debug$GT$3fmt17h7b8270675b842aeeE', symObjAddr: 0x1B0, symBinAddr: 0x3EFE8, symSize: 0x30 }
  - { offset: 0xF6240, size: 0x8, addend: 0x0, symName: '__ZN4core3fmt3num52_$LT$impl$u20$core..fmt..Debug$u20$for$u20$usize$GT$3fmt17h08bfd1f3f0ee8393E', symObjAddr: 0x800, symBinAddr: 0x3F018, symSize: 0x90 }
  - { offset: 0xF62DA, size: 0x8, addend: 0x0, symName: __ZN4core9panicking13assert_failed17h45c63f848d814b21E, symObjAddr: 0x18CC, symBinAddr: 0xADA9C, symSize: 0x3C }
  - { offset: 0xF6358, size: 0x8, addend: 0x0, symName: '__ZN106_$LT$core..ops..range..Range$LT$usize$GT$$u20$as$u20$core..slice..index..SliceIndex$LT$$u5b$T$u5d$$GT$$GT$13get_unchecked18precondition_check17he9054b5fbd3b38b0E', symObjAddr: 0x0, symBinAddr: 0x3EEF8, symSize: 0x60 }
  - { offset: 0xF641A, size: 0x8, addend: 0x0, symName: '__ZN110_$LT$core..ops..range..RangeFrom$LT$usize$GT$$u20$as$u20$core..slice..index..SliceIndex$LT$$u5b$T$u5d$$GT$$GT$5index17hcd459454991590b1E', symObjAddr: 0x108, symBinAddr: 0x3EF58, symSize: 0x90 }
  - { offset: 0xF65D6, size: 0x8, addend: 0x0, symName: '__ZN4core5slice29_$LT$impl$u20$$u5b$T$u5d$$GT$18split_at_unchecked17h2eb3238951fb7e7cE', symObjAddr: 0x10A0, symBinAddr: 0x3F0A8, symSize: 0xDC }
  - { offset: 0xF673B, size: 0x8, addend: 0x0, symName: '__ZN4core5slice29_$LT$impl$u20$$u5b$T$u5d$$GT$18split_at_unchecked18precondition_check17h21be3ff4b4a76f39E', symObjAddr: 0x117C, symBinAddr: 0x3F184, symSize: 0x40 }
  - { offset: 0xF67A5, size: 0x8, addend: 0x0, symName: '__ZN4core5slice29_$LT$impl$u20$$u5b$T$u5d$$GT$8split_at17hffccb3d8719c3bedE', symObjAddr: 0x1244, symBinAddr: 0x3F1C4, symSize: 0xD0 }
  - { offset: 0xF6880, size: 0x8, addend: 0x0, symName: __ZN4core5slice3raw14from_raw_parts18precondition_check17h1ab91f9bcc560defE, symObjAddr: 0x1314, symBinAddr: 0x3F294, symSize: 0x164 }
  - { offset: 0xF6A57, size: 0x8, addend: 0x0, symName: '__ZN4core5slice4iter87_$LT$impl$u20$core..iter..traits..collect..IntoIterator$u20$for$u20$$RF$$u5b$T$u5d$$GT$9into_iter17hacaef6979d542de1E', symObjAddr: 0x1478, symBinAddr: 0x3F3F8, symSize: 0x50 }
  - { offset: 0xF71F7, size: 0x8, addend: 0x0, symName: '__ZN55_$LT$$RF$T$u20$as$u20$core..convert..AsRef$LT$U$GT$$GT$6as_ref17h1291425c55634b64E', symObjAddr: 0x19EC, symBinAddr: 0x3F448, symSize: 0x28 }
  - { offset: 0xF7685, size: 0x8, addend: 0x0, symName: '__ZN42_$LT$$RF$T$u20$as$u20$core..fmt..Debug$GT$3fmt17h1d2b90e92e56565aE', symObjAddr: 0xD0, symBinAddr: 0x3F470, symSize: 0x30 }
  - { offset: 0xF76D1, size: 0x8, addend: 0x0, symName: '__ZN45_$LT$$LP$$RP$$u20$as$u20$core..fmt..Debug$GT$3fmt17hb6e6066bd221c0baE', symObjAddr: 0x100, symBinAddr: 0x3F4A0, symSize: 0x40 }
  - { offset: 0xF79E2, size: 0x8, addend: 0x0, symName: '__ZN4core5array98_$LT$impl$u20$core..convert..TryFrom$LT$$RF$$u5b$T$u5d$$GT$$u20$for$u20$$u5b$T$u3b$$u20$N$u5d$$GT$8try_from17h192ed91669ec5c2aE', symObjAddr: 0x7F0, symBinAddr: 0x3F9CC, symSize: 0x6C }
  - { offset: 0xF7A83, size: 0x8, addend: 0x0, symName: '__ZN4core5array98_$LT$impl$u20$core..convert..TryFrom$LT$$RF$$u5b$T$u5d$$GT$$u20$for$u20$$u5b$T$u3b$$u20$N$u5d$$GT$8try_from17haaf5d1b63abde65aE', symObjAddr: 0x85C, symBinAddr: 0x3FA38, symSize: 0x74 }
  - { offset: 0xF7B2A, size: 0x8, addend: 0x0, symName: '__ZN67_$LT$core..array..TryFromSliceError$u20$as$u20$core..fmt..Debug$GT$3fmt17h086c9211abc5c116E', symObjAddr: 0xFAC, symBinAddr: 0x4003C, symSize: 0x54 }
  - { offset: 0xF7CE5, size: 0x8, addend: 0x0, symName: '__ZN42_$LT$$RF$T$u20$as$u20$core..fmt..Debug$GT$3fmt17h5140f7ddebb0cfacE', symObjAddr: 0x3E0, symBinAddr: 0x3F6D0, symSize: 0x30 }
  - { offset: 0xF7D31, size: 0x8, addend: 0x0, symName: '__ZN45_$LT$$LP$$RP$$u20$as$u20$core..fmt..Debug$GT$3fmt17h9215f78dc1df2861E', symObjAddr: 0x410, symBinAddr: 0x3F700, symSize: 0x40 }
  - { offset: 0xF7EA5, size: 0x8, addend: 0x0, symName: '__ZN4core3cmp5impls50_$LT$impl$u20$core..cmp..Ord$u20$for$u20$usize$GT$3cmp17hd78ab6d47357bf68E', symObjAddr: 0x450, symBinAddr: 0x3F740, symSize: 0x38 }
  - { offset: 0xF7EE4, size: 0x8, addend: 0x0, symName: __ZN4core3cmp6min_by17h5479deb9a2e78b52E, symObjAddr: 0x488, symBinAddr: 0x3F778, symSize: 0xC8 }
  - { offset: 0xF7F57, size: 0x8, addend: 0x0, symName: '__ZN102_$LT$core..iter..adapters..zip..Zip$LT$A$C$B$GT$$u20$as$u20$core..iter..traits..iterator..Iterator$GT$4next17hb94b1a4632c207e5E', symObjAddr: 0x24, symBinAddr: 0x3F4E0, symSize: 0x24 }
  - { offset: 0xF7F9B, size: 0x8, addend: 0x0, symName: '__ZN111_$LT$core..iter..adapters..zip..Zip$LT$A$C$B$GT$$u20$as$u20$core..iter..adapters..zip..ZipImpl$LT$A$C$B$GT$$GT$3new17haa797efe53adbbb2E', symObjAddr: 0x13C, symBinAddr: 0x3F504, symSize: 0xF4 }
  - { offset: 0xF8074, size: 0x8, addend: 0x0, symName: '__ZN111_$LT$core..iter..adapters..zip..Zip$LT$A$C$B$GT$$u20$as$u20$core..iter..adapters..zip..ZipImpl$LT$A$C$B$GT$$GT$4next17h6680aee4146c0de9E', symObjAddr: 0x308, symBinAddr: 0x3F5F8, symSize: 0xD8 }
  - { offset: 0xF8153, size: 0x8, addend: 0x0, symName: __ZN4core4iter8adapters3zip27TrustedRandomAccessNoCoerce4size17h814b93e5522483e2E, symObjAddr: 0x798, symBinAddr: 0x3F974, symSize: 0x2C }
  - { offset: 0xF818A, size: 0x8, addend: 0x0, symName: __ZN4core4iter8adapters3zip27TrustedRandomAccessNoCoerce4size17hc9529ca15113bb2bE, symObjAddr: 0x7C4, symBinAddr: 0x3F9A0, symSize: 0x2C }
  - { offset: 0xF81D3, size: 0x8, addend: 0x0, symName: __ZN4core4iter6traits8iterator8Iterator3zip17h08db94f3c473a186E, symObjAddr: 0x634, symBinAddr: 0x3F8D8, symSize: 0x9C }
  - { offset: 0xF8255, size: 0x8, addend: 0x0, symName: '__ZN63_$LT$I$u20$as$u20$core..iter..traits..collect..IntoIterator$GT$9into_iter17h8f06ee8df46b2d14E', symObjAddr: 0xF4C, symBinAddr: 0x3FFDC, symSize: 0x30 }
  - { offset: 0xF828D, size: 0x8, addend: 0x0, symName: '__ZN63_$LT$I$u20$as$u20$core..iter..traits..collect..IntoIterator$GT$9into_iter17hc36807da35c53b67E', symObjAddr: 0xF7C, symBinAddr: 0x4000C, symSize: 0x30 }
  - { offset: 0xF832D, size: 0x8, addend: 0x0, symName: '__ZN4core3num21_$LT$impl$u20$u32$GT$13from_be_bytes17h09bc939430f58312E', symObjAddr: 0x550, symBinAddr: 0x3F840, symSize: 0x2C }
  - { offset: 0xF845A, size: 0x8, addend: 0x0, symName: __ZN4core3ops8function6FnOnce9call_once17hbabb2c3292f1d8d2E, symObjAddr: 0x5A8, symBinAddr: 0x3F86C, symSize: 0x2C }
  - { offset: 0xF84B5, size: 0x8, addend: 0x0, symName: '__ZN4core3ptr9const_ptr33_$LT$impl$u20$$BP$const$u20$T$GT$7sub_ptr18precondition_check17h59d410cbf4697891E', symObjAddr: 0x5F4, symBinAddr: 0x3F898, symSize: 0x40 }
  - { offset: 0xF8A45, size: 0x8, addend: 0x0, symName: '__ZN4core5slice4iter87_$LT$impl$u20$core..iter..traits..collect..IntoIterator$u20$for$u20$$RF$$u5b$T$u5d$$GT$9into_iter17hc614cca4a9436d87E', symObjAddr: 0xE4C, symBinAddr: 0x3FF0C, symSize: 0x50 }
  - { offset: 0xF8C20, size: 0x8, addend: 0x0, symName: '__ZN91_$LT$core..slice..iter..Iter$LT$T$GT$$u20$as$u20$core..iter..traits..iterator..Iterator$GT$4next17h7b62e5a3a61d396fE', symObjAddr: 0x10CC, symBinAddr: 0x40090, symSize: 0xCC }
  - { offset: 0xF8D87, size: 0x8, addend: 0x0, symName: '__ZN94_$LT$core..slice..iter..IterMut$LT$T$GT$$u20$as$u20$core..iter..traits..iterator..Iterator$GT$24__iterator_get_unchecked17h01d88c2fc1b081beE', symObjAddr: 0x1198, symBinAddr: 0x4015C, symSize: 0x28 }
  - { offset: 0xF8E11, size: 0x8, addend: 0x0, symName: '__ZN94_$LT$core..slice..iter..IterMut$LT$T$GT$$u20$as$u20$core..iter..traits..iterator..Iterator$GT$9size_hint17h191a39f760c27d06E', symObjAddr: 0x11E8, symBinAddr: 0x40184, symSize: 0xC0 }
  - { offset: 0xF8EFC, size: 0x8, addend: 0x0, symName: '__ZN98_$LT$core..slice..iter..ChunksExact$LT$T$GT$$u20$as$u20$core..iter..traits..iterator..Iterator$GT$24__iterator_get_unchecked17h20b3e76bf35e605eE', symObjAddr: 0x1368, symBinAddr: 0x40244, symSize: 0x98 }
  - { offset: 0xF8FBA, size: 0x8, addend: 0x0, symName: '__ZN98_$LT$core..slice..iter..ChunksExact$LT$T$GT$$u20$as$u20$core..iter..traits..iterator..Iterator$GT$9size_hint17h41aba4b590d47e0fE', symObjAddr: 0x1400, symBinAddr: 0x402DC, symSize: 0x7C }
  - { offset: 0xF9016, size: 0x8, addend: 0x0, symName: '__ZN4core5slice29_$LT$impl$u20$$u5b$T$u5d$$GT$12chunks_exact17h5069be17ee456614E', symObjAddr: 0x8D0, symBinAddr: 0x3FAAC, symSize: 0x114 }
  - { offset: 0xF9102, size: 0x8, addend: 0x0, symName: '__ZN4core5slice29_$LT$impl$u20$$u5b$T$u5d$$GT$18split_at_unchecked17hb66481a34b916d9eE', symObjAddr: 0x9E4, symBinAddr: 0x3FBC0, symSize: 0xDC }
  - { offset: 0xF9267, size: 0x8, addend: 0x0, symName: '__ZN4core5slice29_$LT$impl$u20$$u5b$T$u5d$$GT$18split_at_unchecked18precondition_check17hfeab403d4fd04867E', symObjAddr: 0xAC0, symBinAddr: 0x3FC9C, symSize: 0x40 }
  - { offset: 0xF929E, size: 0x8, addend: 0x0, symName: '__ZN4core5slice29_$LT$impl$u20$$u5b$T$u5d$$GT$8iter_mut17h8cd4986ce052c649E', symObjAddr: 0xB28, symBinAddr: 0x3FCDC, symSize: 0x28 }
  - { offset: 0xF9359, size: 0x8, addend: 0x0, symName: __ZN4core5slice3raw14from_raw_parts17hbcf0ded672d8e3caE, symObjAddr: 0xBA4, symBinAddr: 0x3FD04, symSize: 0x54 }
  - { offset: 0xF93A1, size: 0x8, addend: 0x0, symName: __ZN4core5slice3raw14from_raw_parts18precondition_check17hf61b5c5ef96ae515E, symObjAddr: 0xBF8, symBinAddr: 0x3FD58, symSize: 0x164 }
  - { offset: 0xF9A9B, size: 0x8, addend: 0x0, symName: '__ZN53_$LT$T$u20$as$u20$core..convert..TryInto$LT$U$GT$$GT$8try_into17h1eb452102dfcded4E', symObjAddr: 0xE9C, symBinAddr: 0x3FF5C, symSize: 0x58 }
  - { offset: 0xF9ADB, size: 0x8, addend: 0x0, symName: '__ZN53_$LT$T$u20$as$u20$core..convert..TryInto$LT$U$GT$$GT$8try_into17ha9d6dbf0c2d1ab5eE', symObjAddr: 0xEF4, symBinAddr: 0x3FFB4, symSize: 0x28 }
  - { offset: 0xF9F5D, size: 0x8, addend: 0x0, symName: '__ZN4core5slice4iter16IterMut$LT$T$GT$3new17h74670669daff0d0cE', symObjAddr: 0xDAC, symBinAddr: 0x3FEBC, symSize: 0x50 }
  - { offset: 0xFA29E, size: 0x8, addend: 0x0, symName: __ZN4sha26sha25611compress25617hcac7fd3a90510484E, symObjAddr: 0x147C, symBinAddr: 0x40358, symSize: 0x74 }
  - { offset: 0xFA313, size: 0x8, addend: 0x0, symName: __ZN4sha26sha2564soft10sha256load17hfcb10a9c17aee6c2E, symObjAddr: 0x1564, symBinAddr: 0x403CC, symSize: 0x28 }
  - { offset: 0xFA34D, size: 0x8, addend: 0x0, symName: __ZN4sha26sha2564soft10sha256swap17he76a99e473f22c78E, symObjAddr: 0x158C, symBinAddr: 0x403F4, symSize: 0x28 }
  - { offset: 0xFA3A0, size: 0x8, addend: 0x0, symName: __ZN4sha26sha2564soft10sha256msg117h581c8885ecd5a339E, symObjAddr: 0x15B4, symBinAddr: 0x4041C, symSize: 0xC0 }
  - { offset: 0xFA536, size: 0x8, addend: 0x0, symName: __ZN4sha26sha2564soft10sha256msg18sigma0x417hbf2248dd22a90066E, symObjAddr: 0x1674, symBinAddr: 0x404DC, symSize: 0x270 }
  - { offset: 0xFA715, size: 0x8, addend: 0x0, symName: __ZN4sha26sha2564soft10sha256msg217h1ef45dfea8215ddbE, symObjAddr: 0x18E4, symBinAddr: 0x4074C, symSize: 0x158 }
  - { offset: 0xFAA01, size: 0x8, addend: 0x0, symName: __ZN4sha26sha2564soft22sha256_digest_round_x217hcfdf042e9f67fc0fE, symObjAddr: 0x1A3C, symBinAddr: 0x408A4, symSize: 0x324 }
  - { offset: 0xFAFF8, size: 0x8, addend: 0x0, symName: __ZN4sha26sha2564soft8schedule17hd21e03cf10e42376E, symObjAddr: 0x1D60, symBinAddr: 0x40BC8, symSize: 0x108 }
  - { offset: 0xFB162, size: 0x8, addend: 0x0, symName: __ZN4sha26sha2564soft23sha256_digest_block_u3217hb9b0a7884d5098e6E, symObjAddr: 0x1E68, symBinAddr: 0x40CD0, symSize: 0x1700 }
  - { offset: 0xFC3F3, size: 0x8, addend: 0x0, symName: __ZN4sha26sha2564soft8compress17h60dd04ae58dbcc35E, symObjAddr: 0x3568, symBinAddr: 0x423D0, symSize: 0x280 }
  - { offset: 0xFD5AE, size: 0x8, addend: 0x0, symName: '__ZN4core3ptr42drop_in_place$LT$alloc..string..String$GT$17h00c94ad5c95ec433E', symObjAddr: 0xB2C, symBinAddr: 0x4288C, symSize: 0x24 }
  - { offset: 0xFD5DD, size: 0x8, addend: 0x0, symName: '__ZN4core3ptr46drop_in_place$LT$alloc..vec..Vec$LT$u8$GT$$GT$17ha1220811a94be424E', symObjAddr: 0xB50, symBinAddr: 0x428B0, symSize: 0x5C }
  - { offset: 0xFD60C, size: 0x8, addend: 0x0, symName: '__ZN4core3ptr53drop_in_place$LT$alloc..raw_vec..RawVec$LT$u8$GT$$GT$17h69491d7f91c61a08E', symObjAddr: 0xBAC, symBinAddr: 0x4290C, symSize: 0x24 }
  - { offset: 0xFDB2A, size: 0x8, addend: 0x0, symName: __ZN4core9ub_checks17is_nonoverlapping7runtime17h442c30c1a54a92d1E, symObjAddr: 0x1760, symBinAddr: 0x42968, symSize: 0xE4 }
  - { offset: 0xFDE00, size: 0x8, addend: 0x0, symName: __ZN4core10intrinsics19copy_nonoverlapping18precondition_check17ha5ec5c39580e43deE, symObjAddr: 0x390, symBinAddr: 0x42650, symSize: 0x1EC }
  - { offset: 0xFE173, size: 0x8, addend: 0x0, symName: __ZN4core4hint16assert_unchecked18precondition_check17h423aa7f3533eeadcE, symObjAddr: 0xFF8, symBinAddr: 0x42930, symSize: 0x38 }
  - { offset: 0xFEE93, size: 0x8, addend: 0x0, symName: '__ZN52_$LT$T$u20$as$u20$alloc..slice..hack..ConvertVec$GT$6to_vec17h185d89cc1a810c23E', symObjAddr: 0x1844, symBinAddr: 0x42A4C, symSize: 0xE8 }
  - { offset: 0xFF34D, size: 0x8, addend: 0x0, symName: __ZN4core3fmt9Arguments6new_v117hc951c046119331a8E, symObjAddr: 0x5D0, symBinAddr: 0x4283C, symSize: 0x50 }
  - { offset: 0xFF772, size: 0x8, addend: 0x0, symName: '__ZN5alloc7raw_vec20RawVecInner$LT$A$GT$16with_capacity_in17hf734dce2ee4aeca1E', symObjAddr: 0x24AC, symBinAddr: 0x42B34, symSize: 0xF8 }
  - { offset: 0xFF928, size: 0x8, addend: 0x0, symName: '__ZN106_$LT$core..ops..range..Range$LT$usize$GT$$u20$as$u20$core..slice..index..SliceIndex$LT$$u5b$T$u5d$$GT$$GT$9index_mut17h8608fb767112ef07E', symObjAddr: 0x0, symBinAddr: 0x42C2C, symSize: 0xC8 }
  - { offset: 0xFFDD5, size: 0x8, addend: 0x0, symName: '__ZN44_$LT$$RF$T$u20$as$u20$core..fmt..Display$GT$3fmt17hb20a9303543a7a7bE', symObjAddr: 0x214, symBinAddr: 0x42CF4, symSize: 0x3C }
  - { offset: 0x10033A, size: 0x8, addend: 0x0, symName: '__ZN4core3cmp5impls50_$LT$impl$u20$core..cmp..Ord$u20$for$u20$usize$GT$3cmp17h005908e8d1b2e256E', symObjAddr: 0x4F4, symBinAddr: 0x42FAC, symSize: 0x38 }
  - { offset: 0x10047B, size: 0x8, addend: 0x0, symName: __ZN4core3cmp6max_by17h76d46cb5f3473934E, symObjAddr: 0x52C, symBinAddr: 0x42FE4, symSize: 0xC0 }
  - { offset: 0x100C4F, size: 0x8, addend: 0x0, symName: '__ZN4core3ptr49drop_in_place$LT$alloc..boxed..Box$LT$str$GT$$GT$17h3733dbab050522f8E', symObjAddr: 0x9BC, symBinAddr: 0x43170, symSize: 0x2C }
  - { offset: 0x100EC2, size: 0x8, addend: 0x0, symName: '__ZN4core3num23_$LT$impl$u20$usize$GT$13unchecked_add18precondition_check17h03acbbef4cb9d4a0E', symObjAddr: 0x8E0, symBinAddr: 0x430A4, symSize: 0x4C }
  - { offset: 0x100F69, size: 0x8, addend: 0x0, symName: '__ZN4core3num23_$LT$impl$u20$usize$GT$13unchecked_sub18precondition_check17h200ad220dda6128dE', symObjAddr: 0x92C, symBinAddr: 0x430F0, symSize: 0x54 }
  - { offset: 0x1011BE, size: 0x8, addend: 0x0, symName: '__ZN106_$LT$core..ops..range..Range$LT$usize$GT$$u20$as$u20$core..slice..index..SliceIndex$LT$$u5b$T$u5d$$GT$$GT$9index_mut17h8608fb767112ef07E', symObjAddr: 0x0, symBinAddr: 0x42C2C, symSize: 0xC8 }
  - { offset: 0x101599, size: 0x8, addend: 0x0, symName: '__ZN4core5slice29_$LT$impl$u20$$u5b$T$u5d$$GT$15copy_from_slice17h9c41e6dc900eb6cfE', symObjAddr: 0x1B3C, symBinAddr: 0x44294, symSize: 0xA4 }
  - { offset: 0x101741, size: 0x8, addend: 0x0, symName: __ZN4core5slice3raw18from_raw_parts_mut18precondition_check17hd9f50afeb3a21e5eE, symObjAddr: 0x1C08, symBinAddr: 0x44338, symSize: 0x164 }
  - { offset: 0x101945, size: 0x8, addend: 0x0, symName: '__ZN91_$LT$core..slice..iter..Iter$LT$T$GT$$u20$as$u20$core..iter..traits..iterator..Iterator$GT$4next17hce88e19123bca73aE', symObjAddr: 0x2CC4, symBinAddr: 0x450F4, symSize: 0xCC }
  - { offset: 0x101AE2, size: 0x8, addend: 0x0, symName: __ZN4core5slice6memchr6memchr17h71414e346a406dc5E, symObjAddr: 0x1DBC, symBinAddr: 0x4449C, symSize: 0x114 }
  - { offset: 0x101C76, size: 0x8, addend: 0x0, symName: __ZN4core3ops8function6FnOnce9call_once17h439d90e4f0a5243aE, symObjAddr: 0x980, symBinAddr: 0x43144, symSize: 0x2C }
  - { offset: 0x101DC2, size: 0x8, addend: 0x0, symName: '__ZN49_$LT$usize$u20$as$u20$core..iter..range..Step$GT$17forward_unchecked17hf52ab01391df8a63E', symObjAddr: 0x250, symBinAddr: 0x42D30, symSize: 0x48 }
  - { offset: 0x101E21, size: 0x8, addend: 0x0, symName: '__ZN49_$LT$usize$u20$as$u20$core..iter..range..Step$GT$18backward_unchecked17h4dd04f8774316b48E', symObjAddr: 0x298, symBinAddr: 0x42D78, symSize: 0x48 }
  - { offset: 0x102293, size: 0x8, addend: 0x0, symName: __ZN4core9ub_checks17is_nonoverlapping7runtime17hef15b46789e65129E, symObjAddr: 0x1ED0, symBinAddr: 0x445B0, symSize: 0xE4 }
  - { offset: 0x102444, size: 0x8, addend: 0x0, symName: __ZN4core10intrinsics19copy_nonoverlapping18precondition_check17ha009b79c8051033fE, symObjAddr: 0x2E0, symBinAddr: 0x42DC0, symSize: 0x1EC }
  - { offset: 0x102724, size: 0x8, addend: 0x0, symName: __ZN4core3str11validations15next_code_point17hc6d70c4f42d32314E, symObjAddr: 0x9E8, symBinAddr: 0x4319C, symSize: 0x20C }
  - { offset: 0x102978, size: 0x8, addend: 0x0, symName: '__ZN4core3str21_$LT$impl$u20$str$GT$8contains17h133639ab370bd7f8E', symObjAddr: 0xC10, symBinAddr: 0x433A8, symSize: 0x44 }
  - { offset: 0x102B04, size: 0x8, addend: 0x0, symName: '__ZN4core3str6traits108_$LT$impl$u20$core..slice..index..SliceIndex$LT$str$GT$$u20$for$u20$core..ops..range..Range$LT$usize$GT$$GT$13get_unchecked18precondition_check17h0f86c0032b9e4686E', symObjAddr: 0xC54, symBinAddr: 0x433EC, symSize: 0x60 }
  - { offset: 0x102BCD, size: 0x8, addend: 0x0, symName: '__ZN4core3str6traits112_$LT$impl$u20$core..slice..index..SliceIndex$LT$str$GT$$u20$for$u20$core..ops..range..RangeFrom$LT$usize$GT$$GT$3get17h9e81cff190dbb48cE', symObjAddr: 0xCB4, symBinAddr: 0x4344C, symSize: 0x130 }
  - { offset: 0x10302C, size: 0x8, addend: 0x0, symName: '__ZN52_$LT$char$u20$as$u20$core..str..pattern..Pattern$GT$15is_contained_in17h455089bb44b29623E', symObjAddr: 0x1FB4, symBinAddr: 0x44694, symSize: 0xEC }
  - { offset: 0x10314D, size: 0x8, addend: 0x0, symName: '__ZN55_$LT$$RF$str$u20$as$u20$core..str..pattern..Pattern$GT$15is_contained_in17h5321e308cf5625fcE', symObjAddr: 0x20A0, symBinAddr: 0x44780, symSize: 0x1F8 }
  - { offset: 0x103484, size: 0x8, addend: 0x0, symName: '__ZN80_$LT$core..str..pattern..StrSearcher$u20$as$u20$core..str..pattern..Searcher$GT$10next_match17h38b7a17a9762c8a2E', symObjAddr: 0x25C4, symBinAddr: 0x44AC0, symSize: 0x148 }
  - { offset: 0x10350F, size: 0x8, addend: 0x0, symName: '__ZN80_$LT$core..str..pattern..StrSearcher$u20$as$u20$core..str..pattern..Searcher$GT$4next17h4740eb2fc8ac3cbdE', symObjAddr: 0x270C, symBinAddr: 0x44C08, symSize: 0x44C }
  - { offset: 0x1039B7, size: 0x8, addend: 0x0, symName: '__ZN84_$LT$core..str..pattern..MatchOnly$u20$as$u20$core..str..pattern..TwoWayStrategy$GT$16use_early_reject17h592be739b284d119E', symObjAddr: 0x2B58, symBinAddr: 0x45054, symSize: 0xC }
  - { offset: 0x1039D5, size: 0x8, addend: 0x0, symName: '__ZN84_$LT$core..str..pattern..MatchOnly$u20$as$u20$core..str..pattern..TwoWayStrategy$GT$8matching17h93221bdb818e8e4fE', symObjAddr: 0x2B64, symBinAddr: 0x45060, symSize: 0x28 }
  - { offset: 0x103A12, size: 0x8, addend: 0x0, symName: '__ZN84_$LT$core..str..pattern..MatchOnly$u20$as$u20$core..str..pattern..TwoWayStrategy$GT$9rejecting17h6cc2da4cd94f6104E', symObjAddr: 0x2B8C, symBinAddr: 0x45088, symSize: 0x18 }
  - { offset: 0x103A55, size: 0x8, addend: 0x0, symName: '__ZN89_$LT$core..str..pattern..RejectAndMatch$u20$as$u20$core..str..pattern..TwoWayStrategy$GT$16use_early_reject17h79fdc011cd86c18cE', symObjAddr: 0x2BA4, symBinAddr: 0x450A0, symSize: 0xC }
  - { offset: 0x103A73, size: 0x8, addend: 0x0, symName: '__ZN89_$LT$core..str..pattern..RejectAndMatch$u20$as$u20$core..str..pattern..TwoWayStrategy$GT$8matching17h5005832ae2a4bd31E', symObjAddr: 0x2BB0, symBinAddr: 0x450AC, symSize: 0x20 }
  - { offset: 0x103AB0, size: 0x8, addend: 0x0, symName: '__ZN89_$LT$core..str..pattern..RejectAndMatch$u20$as$u20$core..str..pattern..TwoWayStrategy$GT$9rejecting17hdfe3188aa4892958E', symObjAddr: 0x2BD0, symBinAddr: 0x450CC, symSize: 0x28 }
  - { offset: 0x103BA5, size: 0x8, addend: 0x0, symName: __ZN4core4hint21unreachable_unchecked18precondition_check17hcfdf0f47abe76a24E, symObjAddr: 0x1AA8, symBinAddr: 0x44228, symSize: 0x1C }
  - { offset: 0x103C00, size: 0x8, addend: 0x0, symName: __ZN4core4char7convert18from_u32_unchecked18precondition_check17h5bfdb2586c96969cE, symObjAddr: 0x17F4, symBinAddr: 0x43F74, symSize: 0x98 }
  - { offset: 0x103CC0, size: 0x8, addend: 0x0, symName: __ZN4core4char7methods15encode_utf8_raw17h22ca675dfb7c55c8E, symObjAddr: 0x188C, symBinAddr: 0x4400C, symSize: 0x21C }
  - { offset: 0x103EDF, size: 0x8, addend: 0x0, symName: __ZN4core5alloc6layout6Layout25from_size_align_unchecked18precondition_check17h8dd2113a2462dd4fE, symObjAddr: 0x1AEC, symBinAddr: 0x44244, symSize: 0x50 }
  - { offset: 0x1043BE, size: 0x8, addend: 0x0, symName: __ZN4core3str7pattern14TwoWaySearcher4next17h265887b527fd0425E, symObjAddr: 0xDE4, symBinAddr: 0x4357C, symSize: 0x4FC }
  - { offset: 0x104741, size: 0x8, addend: 0x0, symName: __ZN4core3str7pattern14TwoWaySearcher4next17h2d678e53b4f15a9aE, symObjAddr: 0x12E0, symBinAddr: 0x43A78, symSize: 0x4FC }
  - { offset: 0x104BF4, size: 0x8, addend: 0x0, symName: '__ZN63_$LT$alloc..alloc..Global$u20$as$u20$core..alloc..Allocator$GT$10deallocate17hb38972e7fd3d10e8E', symObjAddr: 0x22B0, symBinAddr: 0x44978, symSize: 0x8C }
  - { offset: 0x104CEC, size: 0x8, addend: 0x0, symName: '__ZN72_$LT$alloc..boxed..Box$LT$T$C$A$GT$$u20$as$u20$core..ops..drop..Drop$GT$4drop17hdb2ef8c718cba463E', symObjAddr: 0x2378, symBinAddr: 0x44A04, symSize: 0xBC }
  - { offset: 0x105998, size: 0x8, addend: 0x0, symName: __ZN4core3fmt9Arguments9new_const17ha8da005ed9ceec1eE, symObjAddr: 0x18, symBinAddr: 0x451C0, symSize: 0x48 }
  - { offset: 0x1059FA, size: 0x8, addend: 0x0, symName: '__ZN106_$LT$core..ops..range..Range$LT$usize$GT$$u20$as$u20$core..slice..index..SliceIndex$LT$$u5b$T$u5d$$GT$$GT$17get_unchecked_mut18precondition_check17h3a6a1869346f11c2E', symObjAddr: 0x0, symBinAddr: 0x45208, symSize: 0x60 }
  - { offset: 0x105AB3, size: 0x8, addend: 0x0, symName: '__ZN145_$LT$core..option..Option$LT$T$GT$$u20$as$u20$core..ops..try_trait..FromResidual$LT$core..option..Option$LT$core..convert..Infallible$GT$$GT$$GT$13from_residual17hcd22a6f298ded4e3E', symObjAddr: 0x108, symBinAddr: 0x45310, symSize: 0x14 }
  - { offset: 0x105DAA, size: 0x8, addend: 0x0, symName: '__ZN66_$LT$core..option..Option$LT$T$GT$$u20$as$u20$core..fmt..Debug$GT$3fmt17hf712c01f794e1f5eE', symObjAddr: 0x1420, symBinAddr: 0x46328, symSize: 0x9C }
  - { offset: 0x105E14, size: 0x8, addend: 0x0, symName: '__ZN70_$LT$core..option..Option$LT$T$GT$$u20$as$u20$core..cmp..PartialEq$GT$2eq17h14c022a0df4aed44E', symObjAddr: 0x14BC, symBinAddr: 0x463C4, symSize: 0xA8 }
  - { offset: 0x105E88, size: 0x8, addend: 0x0, symName: '__ZN70_$LT$core..option..Option$LT$T$GT$$u20$as$u20$core..cmp..PartialEq$GT$2eq17heef69665123ab2c0E', symObjAddr: 0x1564, symBinAddr: 0x4646C, symSize: 0xB8 }
  - { offset: 0x105F02, size: 0x8, addend: 0x0, symName: '__ZN75_$LT$core..option..Option$LT$T$GT$$u20$as$u20$core..ops..try_trait..Try$GT$6branch17hdcdc01d0e8a72b22E', symObjAddr: 0x161C, symBinAddr: 0x46524, symSize: 0x40 }
  - { offset: 0x1061B9, size: 0x8, addend: 0x0, symName: __ZN4core4sync6atomic11atomic_load17h2b24bd4954ea2b2aE, symObjAddr: 0xADC, symBinAddr: 0x45A5C, symSize: 0x14C }
  - { offset: 0x106214, size: 0x8, addend: 0x0, symName: __ZN4core4sync6atomic11atomic_load17h55087a8184006faaE, symObjAddr: 0xC28, symBinAddr: 0x45BA8, symSize: 0x14C }
  - { offset: 0x10626F, size: 0x8, addend: 0x0, symName: __ZN4core4sync6atomic12atomic_store17h9a34ad5963b8ac14E, symObjAddr: 0xD74, symBinAddr: 0x45CF4, symSize: 0x150 }
  - { offset: 0x1062D5, size: 0x8, addend: 0x0, symName: __ZN4core4sync6atomic12atomic_store17hd886cdc9fdf142ddE, symObjAddr: 0xEC4, symBinAddr: 0x45E44, symSize: 0x150 }
  - { offset: 0x10633B, size: 0x8, addend: 0x0, symName: __ZN4core4sync6atomic5fence17h7fd926748900f7b7E, symObjAddr: 0x107C, symBinAddr: 0x45FFC, symSize: 0xD8 }
  - { offset: 0x1065FB, size: 0x8, addend: 0x0, symName: '__ZN42_$LT$$RF$T$u20$as$u20$core..fmt..Debug$GT$3fmt17h06d83f252b62a1d7E', symObjAddr: 0x170, symBinAddr: 0x45378, symSize: 0x3C }
  - { offset: 0x106641, size: 0x8, addend: 0x0, symName: '__ZN42_$LT$$RF$T$u20$as$u20$core..fmt..Debug$GT$3fmt17h2cb7784d8a567fccE', symObjAddr: 0x1AC, symBinAddr: 0x453B4, symSize: 0x30 }
  - { offset: 0x106687, size: 0x8, addend: 0x0, symName: '__ZN42_$LT$$RF$T$u20$as$u20$core..fmt..Debug$GT$3fmt17h4793f7df6b9d564fE', symObjAddr: 0x1DC, symBinAddr: 0x453E4, symSize: 0x30 }
  - { offset: 0x1066CD, size: 0x8, addend: 0x0, symName: '__ZN42_$LT$$RF$T$u20$as$u20$core..fmt..Debug$GT$3fmt17h75a2aaf19866b15eE', symObjAddr: 0x20C, symBinAddr: 0x45414, symSize: 0x30 }
  - { offset: 0x106713, size: 0x8, addend: 0x0, symName: '__ZN42_$LT$$RF$T$u20$as$u20$core..fmt..Debug$GT$3fmt17he56061301d370f04E', symObjAddr: 0x23C, symBinAddr: 0x45444, symSize: 0x30 }
  - { offset: 0x1067FC, size: 0x8, addend: 0x0, symName: '__ZN4core3fmt3num49_$LT$impl$u20$core..fmt..Debug$u20$for$u20$u8$GT$3fmt17h19af4984804cc932E', symObjAddr: 0x488, symBinAddr: 0x45678, symSize: 0x90 }
  - { offset: 0x106876, size: 0x8, addend: 0x0, symName: '__ZN4core3fmt3num50_$LT$impl$u20$core..fmt..Debug$u20$for$u20$i32$GT$3fmt17h858335d9d834d71dE', symObjAddr: 0x518, symBinAddr: 0x45708, symSize: 0x90 }
  - { offset: 0x1068F0, size: 0x8, addend: 0x0, symName: '__ZN4core3fmt3num50_$LT$impl$u20$core..fmt..Debug$u20$for$u20$u32$GT$3fmt17h2847be51ccec4ac8E', symObjAddr: 0x5A8, symBinAddr: 0x45798, symSize: 0x90 }
  - { offset: 0x106A54, size: 0x8, addend: 0x0, symName: __ZN4core3cmp3Ord3min17h2ae81438680baf9cE, symObjAddr: 0x284, symBinAddr: 0x45474, symSize: 0x24 }
  - { offset: 0x106ACE, size: 0x8, addend: 0x0, symName: __ZN4core3cmp3min17h6cca82c308caf50fE, symObjAddr: 0x2A8, symBinAddr: 0x45498, symSize: 0x24 }
  - { offset: 0x106B1E, size: 0x8, addend: 0x0, symName: '__ZN4core3cmp5impls50_$LT$impl$u20$core..cmp..Ord$u20$for$u20$usize$GT$3cmp17h55fffbb453953adaE', symObjAddr: 0x2CC, symBinAddr: 0x454BC, symSize: 0x38 }
  - { offset: 0x106B61, size: 0x8, addend: 0x0, symName: '__ZN4core3cmp5impls53_$LT$impl$u20$core..cmp..PartialEq$u20$for$u20$u8$GT$2eq17h716eb62dd46295f0E', symObjAddr: 0x304, symBinAddr: 0x454F4, symSize: 0x2C }
  - { offset: 0x106BA4, size: 0x8, addend: 0x0, symName: '__ZN4core3cmp5impls54_$LT$impl$u20$core..cmp..PartialEq$u20$for$u20$i32$GT$2eq17h33d5ca34330f94d4E', symObjAddr: 0x330, symBinAddr: 0x45520, symSize: 0x2C }
  - { offset: 0x106BE7, size: 0x8, addend: 0x0, symName: '__ZN4core3cmp5impls69_$LT$impl$u20$core..cmp..PartialEq$LT$$RF$B$GT$$u20$for$u20$$RF$A$GT$2eq17h6a1d6a0ff4635eb1E', symObjAddr: 0x35C, symBinAddr: 0x4554C, symSize: 0x34 }
  - { offset: 0x106C38, size: 0x8, addend: 0x0, symName: __ZN4core3cmp6min_by17h16c9493259b5ccaaE, symObjAddr: 0x390, symBinAddr: 0x45580, symSize: 0xC8 }
  - { offset: 0x106C9B, size: 0x8, addend: 0x0, symName: __ZN4core3cmp9PartialEq2ne17h0827857b16edee84E, symObjAddr: 0x458, symBinAddr: 0x45648, symSize: 0x30 }
  - { offset: 0x106D42, size: 0x8, addend: 0x0, symName: __ZN4core9panicking13assert_failed17h62e1c700ea89e0c6E, symObjAddr: 0x1390, symBinAddr: 0xADAD8, symSize: 0x3C }
  - { offset: 0x106DAB, size: 0x8, addend: 0x0, symName: __ZN4core9panicking13assert_failed17he1654bd921c38d97E, symObjAddr: 0x13CC, symBinAddr: 0xADB14, symSize: 0x3C }
  - { offset: 0x106E29, size: 0x8, addend: 0x0, symName: '__ZN106_$LT$core..ops..range..Range$LT$usize$GT$$u20$as$u20$core..slice..index..SliceIndex$LT$$u5b$T$u5d$$GT$$GT$17get_unchecked_mut18precondition_check17h3a6a1869346f11c2E', symObjAddr: 0x0, symBinAddr: 0x45208, symSize: 0x60 }
  - { offset: 0x106F2D, size: 0x8, addend: 0x0, symName: '__ZN110_$LT$core..ops..range..RangeFrom$LT$usize$GT$$u20$as$u20$core..slice..index..SliceIndex$LT$$u5b$T$u5d$$GT$$GT$9index_mut17h2fa95d5a5d7ee844E', symObjAddr: 0x60, symBinAddr: 0x45268, symSize: 0xA8 }
  - { offset: 0x107322, size: 0x8, addend: 0x0, symName: '__ZN91_$LT$core..slice..iter..Iter$LT$T$GT$$u20$as$u20$core..iter..traits..iterator..Iterator$GT$4next17h9b7b4f3b4d2f62d4E', symObjAddr: 0x16B8, symBinAddr: 0x465C0, symSize: 0xCC }
  - { offset: 0x107483, size: 0x8, addend: 0x0, symName: '__ZN91_$LT$core..slice..iter..Iter$LT$T$GT$$u20$as$u20$core..iter..traits..iterator..Iterator$GT$8position17h42cba236b6f02d45E', symObjAddr: 0x1784, symBinAddr: 0x4668C, symSize: 0x1C4 }
  - { offset: 0x1075C9, size: 0x8, addend: 0x0, symName: '__ZN96_$LT$core..slice..iter..ChunksMut$LT$T$GT$$u20$as$u20$core..iter..traits..iterator..Iterator$GT$4next17h12c747210dc0e4f9E', symObjAddr: 0x1948, symBinAddr: 0x46850, symSize: 0x140 }
  - { offset: 0x1078C3, size: 0x8, addend: 0x0, symName: '__ZN4core5slice29_$LT$impl$u20$$u5b$T$u5d$$GT$10chunks_mut17hc6023cc2ba527ecbE', symObjAddr: 0x1154, symBinAddr: 0x460D4, symSize: 0xB0 }
  - { offset: 0x107944, size: 0x8, addend: 0x0, symName: '__ZN4core5slice29_$LT$impl$u20$$u5b$T$u5d$$GT$4iter17h89f31c6baf9558aeE', symObjAddr: 0x1204, symBinAddr: 0x46184, symSize: 0x28 }
  - { offset: 0x10797B, size: 0x8, addend: 0x0, symName: '__ZN4core5slice29_$LT$impl$u20$$u5b$T$u5d$$GT$4last17hb748db537561b3c2E', symObjAddr: 0x122C, symBinAddr: 0x461AC, symSize: 0x50 }
  - { offset: 0x1079C8, size: 0x8, addend: 0x0, symName: '__ZN4core5slice29_$LT$impl$u20$$u5b$T$u5d$$GT$8is_empty17hc9177abede939dacE', symObjAddr: 0x127C, symBinAddr: 0x461FC, symSize: 0x1C }
  - { offset: 0x107C9A, size: 0x8, addend: 0x0, symName: '__ZN4core3ptr8non_null16NonNull$LT$T$GT$13new_unchecked18precondition_check17h89230c127c33ef62E', symObjAddr: 0x968, symBinAddr: 0x458E8, symSize: 0x40 }
  - { offset: 0x107EC6, size: 0x8, addend: 0x0, symName: '__ZN4core3ptr119drop_in_place$LT$getrandom..use_file..DropGuard$LT$getrandom..use_file..get_rng_fd..$u7b$$u7b$closure$u7d$$u7d$$GT$$GT$17hdaef9e59178e1accE', symObjAddr: 0x8E4, symBinAddr: 0x458C4, symSize: 0x24 }
  - { offset: 0x107F4E, size: 0x8, addend: 0x0, symName: '__ZN4core3ptr9const_ptr33_$LT$impl$u20$$BP$const$u20$T$GT$7sub_ptr18precondition_check17ha9bd1ecaa10e71a8E', symObjAddr: 0xA00, symBinAddr: 0x45980, symSize: 0x40 }
  - { offset: 0x10814E, size: 0x8, addend: 0x0, symName: __ZN4core3ops8function6FnOnce9call_once17h4a55f4d13e0cb945E, symObjAddr: 0x8B8, symBinAddr: 0x45898, symSize: 0x2C }
  - { offset: 0x1082A4, size: 0x8, addend: 0x0, symName: '__ZN153_$LT$core..result..Result$LT$T$C$F$GT$$u20$as$u20$core..ops..try_trait..FromResidual$LT$core..result..Result$LT$core..convert..Infallible$C$E$GT$$GT$$GT$13from_residual17h3ce25c3da94d72bdE', symObjAddr: 0x11C, symBinAddr: 0x45324, symSize: 0x30 }
  - { offset: 0x10830A, size: 0x8, addend: 0x0, symName: '__ZN153_$LT$core..result..Result$LT$T$C$F$GT$$u20$as$u20$core..ops..try_trait..FromResidual$LT$core..result..Result$LT$core..convert..Infallible$C$E$GT$$GT$$GT$13from_residual17hec6748b9e537eed6E', symObjAddr: 0x14C, symBinAddr: 0x45354, symSize: 0x24 }
  - { offset: 0x10849E, size: 0x8, addend: 0x0, symName: '__ZN79_$LT$core..result..Result$LT$T$C$E$GT$$u20$as$u20$core..ops..try_trait..Try$GT$6branch17h2172d9b911b73b10E', symObjAddr: 0x165C, symBinAddr: 0x46564, symSize: 0x5C }
  - { offset: 0x1087A4, size: 0x8, addend: 0x0, symName: __ZN4core4hint16assert_unchecked18precondition_check17hd1f782e330ab9baaE, symObjAddr: 0xA40, symBinAddr: 0x459C0, symSize: 0x38 }
  - { offset: 0x108827, size: 0x8, addend: 0x0, symName: '__ZN63_$LT$I$u20$as$u20$core..iter..traits..collect..IntoIterator$GT$9into_iter17h68e355bdc05bfcc5E', symObjAddr: 0x1408, symBinAddr: 0x46310, symSize: 0x18 }
  - { offset: 0x10891E, size: 0x8, addend: 0x0, symName: __ZN9getrandom8use_file10get_rng_fd2FD17h9c4c8dbe22f725b3E, symObjAddr: 0x3908, symBinAddr: 0x114770, symSize: 0x0 }
  - { offset: 0x108938, size: 0x8, addend: 0x0, symName: __ZN9getrandom8use_file10get_rng_fd5MUTEX17h1d4f82c2e56da907E, symObjAddr: 0x3910, symBinAddr: 0x114778, symSize: 0x0 }
  - { offset: 0x108945, size: 0x8, addend: 0x0, symName: __ZN9getrandom8use_file10get_rng_fd6get_fd17h260fe97f2fc8196fE, symObjAddr: 0x29E8, symBinAddr: 0x47680, symSize: 0x64 }
  - { offset: 0x108980, size: 0x8, addend: 0x0, symName: '__ZN9getrandom8use_file10get_rng_fd28_$u7b$$u7b$closure$u7d$$u7d$17hb62926c7978db6c3E', symObjAddr: 0x2A4C, symBinAddr: 0x476E4, symSize: 0x28 }
  - { offset: 0x1089E3, size: 0x8, addend: 0x0, symName: __ZN9getrandom8use_file15getrandom_inner17h7da440ccdb9ee17aE, symObjAddr: 0x2740, symBinAddr: 0x473D8, symSize: 0x88 }
  - { offset: 0x108A68, size: 0x8, addend: 0x0, symName: '__ZN9getrandom8use_file15getrandom_inner28_$u7b$$u7b$closure$u7d$$u7d$17h85600ad802b1e6f2E', symObjAddr: 0x27C8, symBinAddr: 0x47460, symSize: 0x44 }
  - { offset: 0x108AB8, size: 0x8, addend: 0x0, symName: __ZN9getrandom8use_file10get_rng_fd17h8f855f7ef9b2b9f9E, symObjAddr: 0x280C, symBinAddr: 0x474A4, symSize: 0x1DC }
  - { offset: 0x108B47, size: 0x8, addend: 0x0, symName: '__ZN81_$LT$getrandom..use_file..DropGuard$LT$F$GT$$u20$as$u20$core..ops..drop..Drop$GT$4drop17h7aafd1c78f409e50E', symObjAddr: 0x2B7C, symBinAddr: 0x47814, symSize: 0x24 }
  - { offset: 0x108BAF, size: 0x8, addend: 0x0, symName: __ZN9getrandom3imp15getrandom_inner10GETENTROPY17h01a81c7f4292cfb1E, symObjAddr: 0x3950, symBinAddr: 0x1147B8, symSize: 0x0 }
  - { offset: 0x108BBD, size: 0x8, addend: 0x0, symName: __ZN9getrandom3imp15getrandom_inner17h644dc41ec57a3904E, symObjAddr: 0x2BA0, symBinAddr: 0x47838, symSize: 0x12C }
  - { offset: 0x108C8F, size: 0x8, addend: 0x0, symName: __ZN9getrandom9util_libc13last_os_error17h837ffc5b8cdfa6b8E, symObjAddr: 0x2330, symBinAddr: 0x46FC8, symSize: 0x78 }
  - { offset: 0x108CE6, size: 0x8, addend: 0x0, symName: __ZN9getrandom9util_libc14sys_fill_exact17ha79e580e9d661c50E, symObjAddr: 0x23A8, symBinAddr: 0x47040, symSize: 0x164 }
  - { offset: 0x108D9E, size: 0x8, addend: 0x0, symName: __ZN9getrandom9util_libc13open_readonly17hda15f47f0544b1e3E, symObjAddr: 0x2610, symBinAddr: 0x472A8, symSize: 0x130 }
  - { offset: 0x108E33, size: 0x8, addend: 0x0, symName: __ZN9getrandom9util_libc9get_errno17h6fbba6861f94f870E, symObjAddr: 0x2CCC, symBinAddr: 0x47964, symSize: 0x18 }
  - { offset: 0x108E85, size: 0x8, addend: 0x0, symName: '__ZN60_$LT$getrandom..error..Error$u20$as$u20$core..fmt..Debug$GT$3fmt17hf10d95089e05c79bE', symObjAddr: 0x1B30, symBinAddr: 0x469EC, symSize: 0x208 }
  - { offset: 0x108F2F, size: 0x8, addend: 0x0, symName: '__ZN109_$LT$getrandom..error..Error$u20$as$u20$core..convert..From$LT$core..num..nonzero..NonZero$LT$u32$GT$$GT$$GT$4from17hd8cea536ae0df912E', symObjAddr: 0x1F5C, symBinAddr: 0x46BF4, symSize: 0x10 }
  - { offset: 0x108F5C, size: 0x8, addend: 0x0, symName: __ZN9getrandom5error13internal_desc17h5e66063fc8f4a952E, symObjAddr: 0x1F6C, symBinAddr: 0x46C04, symSize: 0x250 }
  - { offset: 0x108F88, size: 0x8, addend: 0x0, symName: __ZN9getrandom5error6os_err17he490e21d14dab7dbE, symObjAddr: 0x21BC, symBinAddr: 0x46E54, symSize: 0x14C }
  - { offset: 0x109140, size: 0x8, addend: 0x0, symName: '__ZN9getrandom5error6os_err28_$u7b$$u7b$closure$u7d$$u7d$17h6231c34a275f1e1fE', symObjAddr: 0x2308, symBinAddr: 0x46FA0, symSize: 0x28 }
  - { offset: 0x1093FB, size: 0x8, addend: 0x0, symName: __ZN4core3fmt9Arguments6new_v117h235202bcfd3ebb05E, symObjAddr: 0x638, symBinAddr: 0x45828, symSize: 0x50 }
  - { offset: 0x109454, size: 0x8, addend: 0x0, symName: '__ZN4core3num7nonzero16NonZero$LT$T$GT$3get17h9dfad50d676023b1E', symObjAddr: 0x898, symBinAddr: 0x45878, symSize: 0x10 }
  - { offset: 0x109480, size: 0x8, addend: 0x0, symName: '__ZN4core3num7nonzero16NonZero$LT$T$GT$3new17hc1113ca1a2b8a28cE', symObjAddr: 0x8A8, symBinAddr: 0x45888, symSize: 0x10 }
  - { offset: 0x1094E1, size: 0x8, addend: 0x0, symName: '__ZN4core3ptr8non_null16NonNull$LT$T$GT$3new17hfa3da11c5a931cecE', symObjAddr: 0x9A8, symBinAddr: 0x45928, symSize: 0x58 }
  - { offset: 0x109585, size: 0x8, addend: 0x0, symName: __ZN4core4sync6atomic11AtomicUsize4load17hc80ca26b1a4fe078E, symObjAddr: 0xA78, symBinAddr: 0x459F8, symSize: 0x30 }
  - { offset: 0x1095B7, size: 0x8, addend: 0x0, symName: __ZN4core4sync6atomic11AtomicUsize5store17hc9dd054e8bdb240cE, symObjAddr: 0xAA8, symBinAddr: 0x45A28, symSize: 0x34 }
  - { offset: 0x109655, size: 0x8, addend: 0x0, symName: '__ZN4core4sync6atomic18AtomicPtr$LT$T$GT$4load17hd5291a1e0d74a36cE', symObjAddr: 0x1014, symBinAddr: 0x45F94, symSize: 0x30 }
  - { offset: 0x109690, size: 0x8, addend: 0x0, symName: '__ZN4core4sync6atomic18AtomicPtr$LT$T$GT$5store17h36d01929fb04ff29E', symObjAddr: 0x1044, symBinAddr: 0x45FC4, symSize: 0x38 }
  - { offset: 0x1097EC, size: 0x8, addend: 0x0, symName: '__ZN4core5slice4iter13Iter$LT$T$GT$3new17hc50e18183aac4bc7E', symObjAddr: 0x1298, symBinAddr: 0x46218, symSize: 0x50 }
  - { offset: 0x1098ED, size: 0x8, addend: 0x0, symName: '__ZN4core6option15Option$LT$T$GT$9unwrap_or17h33b64d311e2eb84aE', symObjAddr: 0x12E8, symBinAddr: 0x46268, symSize: 0x48 }
  - { offset: 0x109946, size: 0x8, addend: 0x0, symName: '__ZN4core6result19Result$LT$T$C$E$GT$2ok17ha27cee8da191f126E', symObjAddr: 0x1330, symBinAddr: 0x462B0, symSize: 0x60 }
  - { offset: 0x109AF1, size: 0x8, addend: 0x0, symName: __ZN9getrandom5error5Error12raw_os_error17h877baa4da3c130f9E, symObjAddr: 0x1AD4, symBinAddr: 0x46990, symSize: 0x5C }
  - { offset: 0x109B9E, size: 0x8, addend: 0x0, symName: __ZN9getrandom9util_libc4Weak3ptr17h771a699bd6fee9e8E, symObjAddr: 0x250C, symBinAddr: 0x471A4, symSize: 0x104 }
  - { offset: 0x109C56, size: 0x8, addend: 0x0, symName: __ZN9getrandom8use_file5Mutex4lock17hb5a971c264edc74eE, symObjAddr: 0x2A74, symBinAddr: 0x4770C, symSize: 0x84 }
  - { offset: 0x109CDC, size: 0x8, addend: 0x0, symName: __ZN9getrandom8use_file5Mutex6unlock17h66e955a9f2331136E, symObjAddr: 0x2AF8, symBinAddr: 0x47790, symSize: 0x84 }
  - { offset: 0x109EFF, size: 0x8, addend: 0x0, symName: '__ZN42_$LT$$RF$T$u20$as$u20$core..fmt..Debug$GT$3fmt17hc6e27e3fae234125E', symObjAddr: 0x0, symBinAddr: 0x4797C, symSize: 0x30 }
  - { offset: 0x109F5B, size: 0x8, addend: 0x0, symName: '__ZN45_$LT$T$u20$as$u20$alloc..string..ToString$GT$9to_string17h2ab9ce37da6c62eaE', symObjAddr: 0x120, symBinAddr: 0x47A30, symSize: 0x124 }
  - { offset: 0x10A1CB, size: 0x8, addend: 0x0, symName: '__ZN44_$LT$T$u20$as$u20$alloc..borrow..ToOwned$GT$8to_owned17hb9ffa371384f094cE', symObjAddr: 0xFC, symBinAddr: 0x47A0C, symSize: 0x24 }
  - { offset: 0x10A6BC, size: 0x8, addend: 0x0, symName: '__ZN42_$LT$$RF$T$u20$as$u20$core..fmt..Debug$GT$3fmt17hc6e27e3fae234125E', symObjAddr: 0x0, symBinAddr: 0x4797C, symSize: 0x30 }
  - { offset: 0x10A708, size: 0x8, addend: 0x0, symName: '__ZN44_$LT$$RF$T$u20$as$u20$core..fmt..Display$GT$3fmt17h3bf78d8461fb2510E', symObjAddr: 0x30, symBinAddr: 0x479AC, symSize: 0x30 }
  - { offset: 0x10A74E, size: 0x8, addend: 0x0, symName: '__ZN44_$LT$$RF$T$u20$as$u20$core..fmt..Display$GT$3fmt17he46fa678e5036da3E', symObjAddr: 0x60, symBinAddr: 0x479DC, symSize: 0x30 }
  - { offset: 0x10B35B, size: 0x8, addend: 0x0, symName: '__ZN4core5array4iter94_$LT$impl$u20$core..iter..traits..collect..IntoIterator$u20$for$u20$$u5b$T$u3b$$u20$N$u5d$$GT$9into_iter17h7ab3fcc017d5ad76E', symObjAddr: 0x244, symBinAddr: 0x47B54, symSize: 0x30 }
  - { offset: 0x10B3C2, size: 0x8, addend: 0x0, symName: '__ZN4core5array4iter94_$LT$impl$u20$core..iter..traits..collect..IntoIterator$u20$for$u20$$u5b$T$u3b$$u20$N$u5d$$GT$9into_iter17hce3833b4fe8031c8E', symObjAddr: 0x274, symBinAddr: 0x47B84, symSize: 0x3C }
  - { offset: 0x10B48A, size: 0x8, addend: 0x0, symName: '__ZN50_$LT$T$u20$as$u20$core..convert..Into$LT$U$GT$$GT$4into17h8150a64ebf7eaeadE', symObjAddr: 0x2F8, symBinAddr: 0x47BC0, symSize: 0x24 }
  - { offset: 0x10B4CA, size: 0x8, addend: 0x0, symName: '__ZN50_$LT$T$u20$as$u20$core..convert..Into$LT$U$GT$$GT$4into17h8f7538efa34d471eE', symObjAddr: 0x31C, symBinAddr: 0x47BE4, symSize: 0x24 }
  - { offset: 0x10B50A, size: 0x8, addend: 0x0, symName: '__ZN50_$LT$T$u20$as$u20$core..convert..Into$LT$U$GT$$GT$4into17h988a3a5fd7a635beE', symObjAddr: 0x340, symBinAddr: 0x47C08, symSize: 0x24 }
  - { offset: 0x10B54A, size: 0x8, addend: 0x0, symName: '__ZN50_$LT$T$u20$as$u20$core..convert..Into$LT$U$GT$$GT$4into17hf1e324326be96384E', symObjAddr: 0x3D0, symBinAddr: 0x47C2C, symSize: 0x24 }
  - { offset: 0x10DBD3, size: 0x8, addend: 0x0, symName: '__ZN4pyo38instance36Bound$LT$pyo3..types..any..PyAny$GT$21from_owned_ptr_or_opt28_$u7b$$u7b$closure$u7d$$u7d$17h44525db4f7e37c1cE', symObjAddr: 0xF58, symBinAddr: 0x48080, symSize: 0x28 }
  - { offset: 0x10DC30, size: 0x8, addend: 0x0, symName: '__ZN4pyo38instance36Bound$LT$pyo3..types..any..PyAny$GT$21from_owned_ptr_or_err28_$u7b$$u7b$closure$u7d$$u7d$17he584c596e64c103cE', symObjAddr: 0xFC0, symBinAddr: 0x480E8, symSize: 0x28 }
  - { offset: 0x10DD5D, size: 0x8, addend: 0x0, symName: '__ZN67_$LT$pyo3..instance..Bound$LT$T$GT$$u20$as$u20$core..fmt..Debug$GT$3fmt17h0d6e8367d56411f8E', symObjAddr: 0x106C, symBinAddr: 0x4813C, symSize: 0x54 }
  - { offset: 0x10DDC1, size: 0x8, addend: 0x0, symName: '__ZN67_$LT$pyo3..instance..Bound$LT$T$GT$$u20$as$u20$core..fmt..Debug$GT$3fmt17h607a9308e11d3edaE', symObjAddr: 0x10C0, symBinAddr: 0x48190, symSize: 0x54 }
  - { offset: 0x10DE25, size: 0x8, addend: 0x0, symName: '__ZN67_$LT$pyo3..instance..Bound$LT$T$GT$$u20$as$u20$core..fmt..Debug$GT$3fmt17hf3fb8967d6aef79bE', symObjAddr: 0x1114, symBinAddr: 0x481E4, symSize: 0x54 }
  - { offset: 0x10DE8F, size: 0x8, addend: 0x0, symName: '__ZN69_$LT$pyo3..instance..Bound$LT$T$GT$$u20$as$u20$core..fmt..Display$GT$3fmt17h4367b7584edcf798E', symObjAddr: 0x1168, symBinAddr: 0x48238, symSize: 0x54 }
  - { offset: 0x10DEF3, size: 0x8, addend: 0x0, symName: '__ZN69_$LT$pyo3..instance..Bound$LT$T$GT$$u20$as$u20$core..fmt..Display$GT$3fmt17h79a5867ac2e8320bE', symObjAddr: 0x11BC, symBinAddr: 0x4828C, symSize: 0x54 }
  - { offset: 0x10DF57, size: 0x8, addend: 0x0, symName: '__ZN69_$LT$pyo3..instance..Bound$LT$T$GT$$u20$as$u20$core..fmt..Display$GT$3fmt17hf6294b32f06935f4E', symObjAddr: 0x1210, symBinAddr: 0x482E0, symSize: 0x54 }
  - { offset: 0x10DFBB, size: 0x8, addend: 0x0, symName: '__ZN69_$LT$pyo3..instance..Bound$LT$T$GT$$u20$as$u20$core..fmt..Display$GT$3fmt17hf91317a23ac740ddE', symObjAddr: 0x1264, symBinAddr: 0x48334, symSize: 0x54 }
  - { offset: 0x10E244, size: 0x8, addend: 0x0, symName: __ZN4pyo38instance13python_format17ha73f2ccc82efd6c9E, symObjAddr: 0x12B8, symBinAddr: 0x48388, symSize: 0x31C }
  - { offset: 0x10E354, size: 0x8, addend: 0x0, symName: '__ZN74_$LT$pyo3..instance..Bound$LT$T$GT$$u20$as$u20$core..ops..deref..Deref$GT$5deref17h214831f346552d06E', symObjAddr: 0x15D4, symBinAddr: 0x486A4, symSize: 0x24 }
  - { offset: 0x10E38B, size: 0x8, addend: 0x0, symName: '__ZN74_$LT$pyo3..instance..Bound$LT$T$GT$$u20$as$u20$core..ops..deref..Deref$GT$5deref17h2a40153027937569E', symObjAddr: 0x15F8, symBinAddr: 0x486C8, symSize: 0x24 }
  - { offset: 0x10E3C2, size: 0x8, addend: 0x0, symName: '__ZN74_$LT$pyo3..instance..Bound$LT$T$GT$$u20$as$u20$core..ops..deref..Deref$GT$5deref17h3430e6660378370aE', symObjAddr: 0x161C, symBinAddr: 0x486EC, symSize: 0x24 }
  - { offset: 0x10E3F9, size: 0x8, addend: 0x0, symName: '__ZN74_$LT$pyo3..instance..Bound$LT$T$GT$$u20$as$u20$core..ops..deref..Deref$GT$5deref17h66c9e3f4c6199d19E', symObjAddr: 0x1640, symBinAddr: 0x48710, symSize: 0x24 }
  - { offset: 0x10E430, size: 0x8, addend: 0x0, symName: '__ZN74_$LT$pyo3..instance..Bound$LT$T$GT$$u20$as$u20$core..ops..deref..Deref$GT$5deref17h995e1bdbcfbd95f6E', symObjAddr: 0x16AC, symBinAddr: 0x48734, symSize: 0x24 }
  - { offset: 0x10E46D, size: 0x8, addend: 0x0, symName: '__ZN69_$LT$pyo3..instance..Bound$LT$T$GT$$u20$as$u20$core..clone..Clone$GT$5clone17h1517aa25eb81bcbbE', symObjAddr: 0x1760, symBinAddr: 0x48758, symSize: 0x34 }
  - { offset: 0x10E4A4, size: 0x8, addend: 0x0, symName: '__ZN69_$LT$pyo3..instance..Bound$LT$T$GT$$u20$as$u20$core..clone..Clone$GT$5clone17h75d03f99189e1707E', symObjAddr: 0x1830, symBinAddr: 0x4878C, symSize: 0x34 }
  - { offset: 0x10E4DB, size: 0x8, addend: 0x0, symName: '__ZN69_$LT$pyo3..instance..Bound$LT$T$GT$$u20$as$u20$core..clone..Clone$GT$5clone17hc36a915899208063E', symObjAddr: 0x18CC, symBinAddr: 0x487C0, symSize: 0x34 }
  - { offset: 0x10E518, size: 0x8, addend: 0x0, symName: '__ZN72_$LT$pyo3..instance..Bound$LT$T$GT$$u20$as$u20$core..ops..drop..Drop$GT$4drop17h0138d75f9337d411E', symObjAddr: 0x19D0, symBinAddr: 0x487F4, symSize: 0x148 }
  - { offset: 0x10E587, size: 0x8, addend: 0x0, symName: '__ZN72_$LT$pyo3..instance..Bound$LT$T$GT$$u20$as$u20$core..ops..drop..Drop$GT$4drop17h0dbaf4ec17b28293E', symObjAddr: 0x1B18, symBinAddr: 0x4893C, symSize: 0x148 }
  - { offset: 0x10E5F6, size: 0x8, addend: 0x0, symName: '__ZN72_$LT$pyo3..instance..Bound$LT$T$GT$$u20$as$u20$core..ops..drop..Drop$GT$4drop17h1548879baed89821E', symObjAddr: 0x1C60, symBinAddr: 0x48A84, symSize: 0x148 }
  - { offset: 0x10E665, size: 0x8, addend: 0x0, symName: '__ZN72_$LT$pyo3..instance..Bound$LT$T$GT$$u20$as$u20$core..ops..drop..Drop$GT$4drop17h2423b38ed3dd4e54E', symObjAddr: 0x1DA8, symBinAddr: 0x48BCC, symSize: 0x148 }
  - { offset: 0x10E6D4, size: 0x8, addend: 0x0, symName: '__ZN72_$LT$pyo3..instance..Bound$LT$T$GT$$u20$as$u20$core..ops..drop..Drop$GT$4drop17h570393aaa325981eE', symObjAddr: 0x2180, symBinAddr: 0x48D14, symSize: 0x148 }
  - { offset: 0x10E743, size: 0x8, addend: 0x0, symName: '__ZN72_$LT$pyo3..instance..Bound$LT$T$GT$$u20$as$u20$core..ops..drop..Drop$GT$4drop17h801038e845e36f21E', symObjAddr: 0x2558, symBinAddr: 0x48E5C, symSize: 0x148 }
  - { offset: 0x10E7B2, size: 0x8, addend: 0x0, symName: '__ZN72_$LT$pyo3..instance..Bound$LT$T$GT$$u20$as$u20$core..ops..drop..Drop$GT$4drop17h80393fcae698be09E', symObjAddr: 0x26A0, symBinAddr: 0x48FA4, symSize: 0x148 }
  - { offset: 0x10E821, size: 0x8, addend: 0x0, symName: '__ZN72_$LT$pyo3..instance..Bound$LT$T$GT$$u20$as$u20$core..ops..drop..Drop$GT$4drop17h9d01dff9e38f9a1aE', symObjAddr: 0x27E8, symBinAddr: 0x490EC, symSize: 0x148 }
  - { offset: 0x10E890, size: 0x8, addend: 0x0, symName: '__ZN72_$LT$pyo3..instance..Bound$LT$T$GT$$u20$as$u20$core..ops..drop..Drop$GT$4drop17hb863e08d18359621E', symObjAddr: 0x2D08, symBinAddr: 0x49234, symSize: 0x148 }
  - { offset: 0x10E8FF, size: 0x8, addend: 0x0, symName: '__ZN72_$LT$pyo3..instance..Bound$LT$T$GT$$u20$as$u20$core..ops..drop..Drop$GT$4drop17hed8578f298eb6624E', symObjAddr: 0x2F98, symBinAddr: 0x4937C, symSize: 0x148 }
  - { offset: 0x10FD18, size: 0x8, addend: 0x0, symName: '__ZN80_$LT$pyo3..instance..Bound$LT$T$GT$$u20$as$u20$pyo3..conversion..AsPyPointer$GT$6as_ptr17h5c29efd2d7bb6666E', symObjAddr: 0x4488, symBinAddr: 0x49F5C, symSize: 0x2C }
  - { offset: 0x10FD55, size: 0x8, addend: 0x0, symName: '__ZN87_$LT$pyo3..instance..Bound$LT$T$GT$$u20$as$u20$pyo3..instance..BoundObject$LT$T$GT$$GT$11as_borrowed17h19faeb802d1664e6E', symObjAddr: 0x44B4, symBinAddr: 0x49F88, symSize: 0x24 }
  - { offset: 0x10FD8C, size: 0x8, addend: 0x0, symName: '__ZN87_$LT$pyo3..instance..Bound$LT$T$GT$$u20$as$u20$pyo3..instance..BoundObject$LT$T$GT$$GT$11as_borrowed17haf294916dcbea059E', symObjAddr: 0x44FC, symBinAddr: 0x49FAC, symSize: 0x24 }
  - { offset: 0x10FDC3, size: 0x8, addend: 0x0, symName: '__ZN87_$LT$pyo3..instance..Bound$LT$T$GT$$u20$as$u20$pyo3..instance..BoundObject$LT$T$GT$$GT$10into_bound17hd14ac72a67a14688E', symObjAddr: 0x4520, symBinAddr: 0x49FD0, symSize: 0x14 }
  - { offset: 0x10FDFA, size: 0x8, addend: 0x0, symName: '__ZN87_$LT$pyo3..instance..Bound$LT$T$GT$$u20$as$u20$pyo3..instance..BoundObject$LT$T$GT$$GT$8into_any17h00809544133fc747E', symObjAddr: 0x4534, symBinAddr: 0x49FE4, symSize: 0x24 }
  - { offset: 0x10FE31, size: 0x8, addend: 0x0, symName: '__ZN87_$LT$pyo3..instance..Bound$LT$T$GT$$u20$as$u20$pyo3..instance..BoundObject$LT$T$GT$$GT$8into_any17h13639413bbe542faE', symObjAddr: 0x4558, symBinAddr: 0x4A008, symSize: 0x24 }
  - { offset: 0x10FE68, size: 0x8, addend: 0x0, symName: '__ZN87_$LT$pyo3..instance..Bound$LT$T$GT$$u20$as$u20$pyo3..instance..BoundObject$LT$T$GT$$GT$8into_any17h3e83844810d70552E', symObjAddr: 0x457C, symBinAddr: 0x4A02C, symSize: 0x24 }
  - { offset: 0x10FE9F, size: 0x8, addend: 0x0, symName: '__ZN87_$LT$pyo3..instance..Bound$LT$T$GT$$u20$as$u20$pyo3..instance..BoundObject$LT$T$GT$$GT$8into_any17h4e0089b3935ffe92E', symObjAddr: 0x45A0, symBinAddr: 0x4A050, symSize: 0x24 }
  - { offset: 0x10FED6, size: 0x8, addend: 0x0, symName: '__ZN87_$LT$pyo3..instance..Bound$LT$T$GT$$u20$as$u20$pyo3..instance..BoundObject$LT$T$GT$$GT$8into_any17ha2e28c4037743a09E', symObjAddr: 0x45C4, symBinAddr: 0x4A074, symSize: 0x24 }
  - { offset: 0x10FF0D, size: 0x8, addend: 0x0, symName: '__ZN87_$LT$pyo3..instance..Bound$LT$T$GT$$u20$as$u20$pyo3..instance..BoundObject$LT$T$GT$$GT$6unbind17h3dc561675e61a7c6E', symObjAddr: 0x4654, symBinAddr: 0x4A098, symSize: 0x24 }
  - { offset: 0x10FFA4, size: 0x8, addend: 0x0, symName: '__ZN4pyo38instance39Borrowed$LT$pyo3..types..any..PyAny$GT$8from_ptr28_$u7b$$u7b$closure$u7d$$u7d$17h15a98ddfb321368fE', symObjAddr: 0x4864, symBinAddr: 0x4A250, symSize: 0x1C }
  - { offset: 0x10FFF7, size: 0x8, addend: 0x0, symName: '__ZN115_$LT$pyo3..instance..Borrowed$LT$T$GT$$u20$as$u20$core..convert..From$LT$$RF$pyo3..instance..Bound$LT$T$GT$$GT$$GT$4from17h7510cd1738082922E', symObjAddr: 0x4B50, symBinAddr: 0x4A354, symSize: 0x24 }
  - { offset: 0x110034, size: 0x8, addend: 0x0, symName: '__ZN77_$LT$pyo3..instance..Borrowed$LT$T$GT$$u20$as$u20$core..ops..deref..Deref$GT$5deref17h013f1d5aac4eb03cE', symObjAddr: 0x4B74, symBinAddr: 0x4A378, symSize: 0x2C }
  - { offset: 0x11006B, size: 0x8, addend: 0x0, symName: '__ZN77_$LT$pyo3..instance..Borrowed$LT$T$GT$$u20$as$u20$core..ops..deref..Deref$GT$5deref17h1131ecb506cbd2b5E', symObjAddr: 0x4BA0, symBinAddr: 0x4A3A4, symSize: 0x2C }
  - { offset: 0x1100A2, size: 0x8, addend: 0x0, symName: '__ZN77_$LT$pyo3..instance..Borrowed$LT$T$GT$$u20$as$u20$core..ops..deref..Deref$GT$5deref17h24b7acabd64efc26E', symObjAddr: 0x4BF8, symBinAddr: 0x4A3D0, symSize: 0x2C }
  - { offset: 0x1100D9, size: 0x8, addend: 0x0, symName: '__ZN77_$LT$pyo3..instance..Borrowed$LT$T$GT$$u20$as$u20$core..ops..deref..Deref$GT$5deref17h91414b802d8a6d3dE', symObjAddr: 0x4C50, symBinAddr: 0x4A3FC, symSize: 0x2C }
  - { offset: 0x110110, size: 0x8, addend: 0x0, symName: '__ZN77_$LT$pyo3..instance..Borrowed$LT$T$GT$$u20$as$u20$core..ops..deref..Deref$GT$5deref17hacad8836c21df9acE', symObjAddr: 0x4C7C, symBinAddr: 0x4A428, symSize: 0x2C }
  - { offset: 0x110147, size: 0x8, addend: 0x0, symName: '__ZN77_$LT$pyo3..instance..Borrowed$LT$T$GT$$u20$as$u20$core..ops..deref..Deref$GT$5deref17had55efcd1eb0ed3fE', symObjAddr: 0x4CA8, symBinAddr: 0x4A454, symSize: 0x2C }
  - { offset: 0x110184, size: 0x8, addend: 0x0, symName: '__ZN90_$LT$pyo3..instance..Borrowed$LT$T$GT$$u20$as$u20$pyo3..instance..BoundObject$LT$T$GT$$GT$11as_borrowed17h2977ffc659dd5743E', symObjAddr: 0x4D54, symBinAddr: 0x4A480, symSize: 0x18 }
  - { offset: 0x1101BB, size: 0x8, addend: 0x0, symName: '__ZN90_$LT$pyo3..instance..Borrowed$LT$T$GT$$u20$as$u20$pyo3..instance..BoundObject$LT$T$GT$$GT$11as_borrowed17hef5d47e67ef41093E', symObjAddr: 0x4D6C, symBinAddr: 0x4A498, symSize: 0x18 }
  - { offset: 0x1101F2, size: 0x8, addend: 0x0, symName: '__ZN90_$LT$pyo3..instance..Borrowed$LT$T$GT$$u20$as$u20$pyo3..instance..BoundObject$LT$T$GT$$GT$10into_bound17h4421a9d69c54281eE', symObjAddr: 0x4D84, symBinAddr: 0x4A4B0, symSize: 0x2C }
  - { offset: 0x110229, size: 0x8, addend: 0x0, symName: '__ZN90_$LT$pyo3..instance..Borrowed$LT$T$GT$$u20$as$u20$pyo3..instance..BoundObject$LT$T$GT$$GT$8into_any17h3e77849bdfb27c7eE', symObjAddr: 0x4DD4, symBinAddr: 0x4A4DC, symSize: 0x24 }
  - { offset: 0x110260, size: 0x8, addend: 0x0, symName: '__ZN90_$LT$pyo3..instance..Borrowed$LT$T$GT$$u20$as$u20$pyo3..instance..BoundObject$LT$T$GT$$GT$8into_any17h6586324da8b76cdeE', symObjAddr: 0x4E1C, symBinAddr: 0x4A500, symSize: 0x24 }
  - { offset: 0x110297, size: 0x8, addend: 0x0, symName: '__ZN90_$LT$pyo3..instance..Borrowed$LT$T$GT$$u20$as$u20$pyo3..instance..BoundObject$LT$T$GT$$GT$8into_any17h6c602f51fb3151c0E', symObjAddr: 0x4E40, symBinAddr: 0x4A524, symSize: 0x24 }
  - { offset: 0x1102CE, size: 0x8, addend: 0x0, symName: '__ZN90_$LT$pyo3..instance..Borrowed$LT$T$GT$$u20$as$u20$pyo3..instance..BoundObject$LT$T$GT$$GT$8into_any17hddbbe8d64831a302E', symObjAddr: 0x4E88, symBinAddr: 0x4A548, symSize: 0x24 }
  - { offset: 0x110310, size: 0x8, addend: 0x0, symName: '__ZN4pyo38instance11Py$LT$T$GT$21from_owned_ptr_or_opt28_$u7b$$u7b$closure$u7d$$u7d$17h21af4ea35b95a483E', symObjAddr: 0x65D0, symBinAddr: 0x4B09C, symSize: 0x14 }
  - { offset: 0x110360, size: 0x8, addend: 0x0, symName: '__ZN127_$LT$pyo3..instance..Py$LT$pyo3..types..any..PyAny$GT$$u20$as$u20$core..convert..From$LT$pyo3..instance..Bound$LT$T$GT$$GT$$GT$4from17h64d87ff7ae1d6a43E', symObjAddr: 0x6848, symBinAddr: 0x4B18C, symSize: 0x28 }
  - { offset: 0x11039D, size: 0x8, addend: 0x0, symName: '__ZN105_$LT$pyo3..instance..Py$LT$T$GT$$u20$as$u20$core..convert..From$LT$pyo3..instance..Bound$LT$T$GT$$GT$$GT$4from17h9e530340c718803bE', symObjAddr: 0x68C0, symBinAddr: 0x4B1B4, symSize: 0x24 }
  - { offset: 0x1103D4, size: 0x8, addend: 0x0, symName: '__ZN105_$LT$pyo3..instance..Py$LT$T$GT$$u20$as$u20$core..convert..From$LT$pyo3..instance..Bound$LT$T$GT$$GT$$GT$4from17h9ec0798d0bcb3ad8E', symObjAddr: 0x68E4, symBinAddr: 0x4B1D8, symSize: 0x24 }
  - { offset: 0x11040B, size: 0x8, addend: 0x0, symName: '__ZN105_$LT$pyo3..instance..Py$LT$T$GT$$u20$as$u20$core..convert..From$LT$pyo3..instance..Bound$LT$T$GT$$GT$$GT$4from17hbb05cd0bf3db1a3fE', symObjAddr: 0x6908, symBinAddr: 0x4B1FC, symSize: 0x24 }
  - { offset: 0x110448, size: 0x8, addend: 0x0, symName: '__ZN69_$LT$pyo3..instance..Py$LT$T$GT$$u20$as$u20$core..ops..drop..Drop$GT$4drop17h05663b58012eabf6E', symObjAddr: 0x692C, symBinAddr: 0x4B220, symSize: 0x28 }
  - { offset: 0x11047B, size: 0x8, addend: 0x0, symName: '__ZN69_$LT$pyo3..instance..Py$LT$T$GT$$u20$as$u20$core..ops..drop..Drop$GT$4drop17h6d53894efc7adb04E', symObjAddr: 0x697C, symBinAddr: 0x4B248, symSize: 0x28 }
  - { offset: 0x1104AE, size: 0x8, addend: 0x0, symName: '__ZN69_$LT$pyo3..instance..Py$LT$T$GT$$u20$as$u20$core..ops..drop..Drop$GT$4drop17h9ef9af2e045528e9E', symObjAddr: 0x69A4, symBinAddr: 0x4B270, symSize: 0x28 }
  - { offset: 0x1104E1, size: 0x8, addend: 0x0, symName: '__ZN69_$LT$pyo3..instance..Py$LT$T$GT$$u20$as$u20$core..ops..drop..Drop$GT$4drop17ha10493a8da44fc0cE', symObjAddr: 0x69CC, symBinAddr: 0x4B298, symSize: 0x28 }
